
 Start         Length     Name                   Class
 0002:00000000 000A6936CH .text                  CODE
 0003:00000000 00002EA40H .data                  DATA
 0004:00000000 000002988H .idata                 DATA
 0005:00000000 000046E70H .rsrc                  DATA


  Address         Publics by Value

 0001:00001898       String1
 0001:00002549       nullsub_1
 0001:000030F1       nullsub_2
 0001:000076AB       nullsub_3
 0001:00016650       ExceptionInfo
 0001:000166E8       lpLibFileName
 0001:0001772C       aEnu
 0001:00017738       aEnu_0
 0001:00017744       aEnu_1
 0001:00017750       aEna
 0001:0001775C       aNlb
 0001:00017768       aEnc
 0001:00017774       aZhh
 0001:00017780       aZhi
 0001:0001778C       aChs
 0001:00017798       aZhh_0
 0001:000177A4       aChs_0
 0001:000177B0       aZhi_0
 0001:000177BC       aCht
 0001:000177C8       aNlb_0
 0001:000177D4       aEnu_2
 0001:000177E0       aEna_0
 0001:000177EC       aEnl
 0001:000177F8       aEnc_0
 0001:00017804       aEnb
 0001:00017810       aEni
 0001:0001781C       aEnj
 0001:00017828       aEnz
 0001:00017834       aEns
 0001:00017840       aEnt
 0001:0001784C       aEng
 0001:00017858       aEnu_3
 0001:00017864       aEnu_4
 0001:00017870       aFrb
 0001:0001787C       aFrc
 0001:00017888       aFrl
 0001:00017894       aFrs
 0001:000178A0       aDea
 0001:000178AC       aDec_0
 0001:000178B8       aDel
 0001:000178C4       aDes
 0001:000178D0       aEni_0
 0001:000178DC       aIts
 0001:000178E8       aNor
 0001:000178F4       aNor_0
 0001:00017900       aNon
 0001:0001790C       aPtb
 0001:00017918       aEss
 0001:00017924       aEsb
 0001:00017930       aEsl
 0001:0001793C       aEso
 0001:00017948       aEsc
 0001:00017954       aEsd
 0001:00017960       aEsf
 0001:0001796C       aEse
 0001:00017978       aEsg
 0001:00017984       aEsh
 0001:00017990       aEsm
 0001:0001799C       aEsn
 0001:000179A8       aEsi
 0001:000179B4       aEsa
 0001:000179C0       aEsz
 0001:000179CC       aEsr
 0001:000179D8       aEsu
 0001:000179E4       aEsy
 0001:000179F0       aEsv
 0001:000179FC       aSvf
 0001:00017A08       aDes_0
 0001:00017A14       aEng_0
 0001:00017A20       aEnu_5
 0001:00017A2C       aEnu_6
 0001:00017A3C       aUsa_0
 0001:00017A48       aGbr
 0001:00017A54       aChn
 0001:00017A60       aCze
 0001:00017A6C       aGbr_0
 0001:00017A78       aGbr_1
 0001:00017A84       aNld
 0001:00017A90       aHkg
 0001:00017A9C       aNzl
 0001:00017AA8       aNzl_0
 0001:00017AB4       aChn_0
 0001:00017AC0       aChn_1
 0001:00017ACC       aPri
 0001:00017AE4       aZaf
 0001:00017AF0       aKor
 0001:00017AFC       aZaf_0
 0001:00017B08       aKor_0
 0001:00017B14       aTto
 0001:00017B20       aGbr_2
 0001:00017B2C       aGbr_3
 0001:00017B38       aUsa_1
 0001:00017B44       aUsa_2
 0001:0001D838       pStubDescriptor
 0001:0002EEB8       __load_config_used
 0001:00032B3C       lpName
 0001:00033630       lpMultiByteStr
 0001:00033780       TlsDirectory
 0001:00033784       TlsEnd_ptr
 0001:00033788       TlsIndex_ptr
 0001:0003378C       TlsCallbacks_ptr
 0001:00033790       TlsSizeOfZeroFill
 0001:00033794       TlsCharacteristics
 0001:00071118       TlsCallbacks
 0001:00071138       ___guard_fids_table
 0001:0007EEA0       aSigseq0x016i64
 0001:0007EEC8       aDeviceHarddisk
 0001:0007EEF8       a?
 0001:0007EF04       a_C
 0001:0007EF14       aMpasyncresou_0
 0001:0007EF50       aMpasyncresourc
 0001:0007EF90       aProcessmemorys
 0001:0007EFB8       aMpasyncprocess
 0001:0007F000       aMp_async_pro_0
 0001:0007F048       aMpasyncproce_0
 0001:0007F07C       aMp_async_proce
 0001:0007F0B8       aMpdisableranso
 0001:0007F0F0       aMpdisablesys_0
 0001:0007F12C       aSesecuritypriv
 0001:0007F154       aSetakeownershi
 0001:0007F188       aWsbackupstore
 0001:0007F1A8       aMpsystemfileca
 0001:0007F1D4       aMpdisablesyste
 0001:0007F208       aU_3
 0001:0007F20C       aMpdisabledosfi
 0001:0007F240       aTdhgetproper_0
 0001:0007F250       aTdhgetproperty
 0001:0007F264       aTdhgeteventinf
 0001:0007F27C       aTdh_dll
 0001:0007F28C       aClosetrace
 0001:0007F298       aProcesstrace
 0001:0007F2A8       ProcName
 0001:0007F2B4       aSechost_dll
 0001:0007F2DC       a27wUIcHv
 0001:0007F2EE       aS_8
 0001:0007F2F0       aYstem
 0001:0007F300       aSS
 0001:0007F30C       aTemp
 0001:0007F320       a02d02d04d02d02
 0001:0007F354       a1_2_840_113549
 0001:0007F36C       aRoot
 0001:0007F378       a_scriptname
 0001:0007F384       aHips
 0001:0007F38C       aLssrpaniccallb
 0001:0007F3A0       aOsmajorversion
 0001:0007F3B0       aOsminorversion
 0001:0007F3C0       aSpmajorversion
 0001:0007F3D0       aSpminorversion
 0001:0007F3E0       aInfo
 0001:0007F3E8       aEnginehost
 0001:0007F3F4       aHost_x86
 0001:0007F400       aOffline
 0001:0007F408       aPtrsize
 0001:0007F410       aEngineversion
 0001:0007F420       aOstype
 0001:0007F428       aServer
 0001:0007F430       aAppx
 0001:0007F438       aCab
 0001:0007F43C       aMd5_0
 0001:0007F440       aUnknown_3
 0001:0007F448       aPe_0
 0001:0007F44C       aAuthenticodein
 0001:0007F468       aHash_0
 0001:0007F470       aHashtype
 0001:0007F47C       aTzmin
 0001:0007F484       aTzhour
 0001:0007F48C       aMilliseconds
 0001:0007F49C       aSecond_0
 0001:0007F4A4       aMinute
 0001:0007F4AC       aHour
 0001:0007F4B4       aDay_0
 0001:0007F4B8       aDayofweek
 0001:0007F4C4       aMonth
 0001:0007F4CC       aYear
 0001:0007F4D4       aBusinesscatego
 0001:0007F4E8       aPostalcode
 0001:0007F4F4       aSerialnumber
 0001:0007F504       aStreetaddress
 0001:0007F514       aOrganization
 0001:0007F524       aOrganizationun
 0001:0007F538       aCommonname
 0001:0007F544       aState_0
 0001:0007F54C       aLocality
 0001:0007F558       aCountry
 0001:0007F560       aSha1_0
 0001:0007F568       aSha256_0
 0001:0007F570       aRsa
 0001:0007F578       aLow
 0001:0007F588       aTelemetry
 0001:0007F5A0       aFullthreadscan
 0001:0007F5C0       aProcessmetasto
 0001:0007F5E4       aFilemetastore
 0001:0007F600       aRemediateproce
 0001:0007F624       aEventlog
 0001:0007F638       aSendmodules
 0001:0007F650       aEmsscan
 0001:0007F660       aMedium
 0001:0007F670       aUi
 0001:0007F678       aAlwayssendsamp
 0001:0007F69C       aFastremediatio
 0001:0007F6BC       aSystem32
 0001:0007F6D0       aRemediatebasef
 0001:0007F6F4       aAllprocessscan
 0001:0007F714       aSingleprocesss
 0001:0007F738       aPacked
 0001:0007F748       aThreadscan
 0001:0007F760       aHigh
 0001:0007F76C       aRegkeyvaluesca
 0001:0007F7A4       aTurnnrion
 0001:0007F7D0       aWindir_0
 0001:0007F7E4       aMpdisableinsta
 0001:0007F81C       aMpdisabletru_1
 0001:0007F850       aMp_fastpath_lo
 0001:0007F888       aMp_make_exp_fi
 0001:0007F8B4       aMp_make_inf_fi
 0001:0007F8E0       aMp_enable_sequ
 0001:0007F978       aDEST00davacaea
 0001:0007F9D8       aAme
 0001:0007F9DC       aUte
 0001:0007F9E0       aAgthfimiwiliri
 0001:0007FA18       aIon
 0001:0007FA1C       aSoprtrasisnsrs
 0001:0007FA48       aExt
 0001:0007FA4C       aOuexex
 0001:0007FA8C       a0000et_a
 0001:0007FA98       aEt_cgetcet_iht
 0001:0007FAB0       aEt_s_?avcWred_
 0001:0007FAC9       aC_5
 0001:0007FACB       aA_2
 0001:0007FACD       aE_1
 0001:0007FACF       aA_3
 0001:0007FAD1       aR_0
 0001:0007FAD3       aAupdacreadefae
 0001:0007FAF5       aA_4
 0001:0007FAF7       aB_0
 0001:0007FAF9       aE_2
 0001:0007FAFB       aCchecbjeceleca
 0001:0007FB1D       aE_3
 0001:0007FB1F       aDreadloadalidh
 0001:0007FB35       aD_3
 0001:0007FB37       aE_4
 0001:0007FB39       aG_1
 0001:0007FB3B       aE_5
 0001:0007FB3F       aE_6
 0001:0007FB41       aM
 0001:0007FB43       aE_7
 0001:0007FB45       aN_2
 0001:0007FB47       aE_8
 0001:0007FB49       aR_1
 0001:0007FB4B       aE_9
 0001:0007FB4D       aS_9
 0001:0007FB4F       aE_10
 0001:0007FB51       aT_0
 0001:0007FB53       aEviceroceexcei
 0001:0007FBC5       aO
 0001:0007FBC7       aFosofperf
 0001:0007FBD1       aA_5
 0001:0007FBD3       aG_2
 0001:0007FBD5       aE_11
 0001:0007FBD7       aG_3
 0001:0007FBD9       aN_3
 0001:0007FBDB       aGimaghang
 0001:0007FBE7       aI_0
 0001:0007FBE9       aR_2
 0001:0007FBEB       aIregippliseris
 0001:0007FC2C       aAndl_dlltoolap
 0001:0007FC45       aA_6
 0001:0007FC47       aM_0
 0001:0007FC49       aO_0
 0001:0007FC4B       aMstemcommfrom
 0001:0007FC59       aA_7
 0001:0007FC5B       aN_4
 0001:0007FC5D       aE_12
 0001:0007FC5F       aN_5
 0001:0007FC61       aO_1
 0001:0007FC63       aNchanstanliene
 0001:0007FC9D       aC_6
 0001:0007FC9F       aO_2
 0001:0007FCA1       aR_3
 0001:0007FCA3       aOindonsioctior
 0001:0007FCD8       aXcepcrippropdi
 0001:0007FCED       aA_8
 0001:0007FCEF       aR_4
 0001:0007FCF1       aC_7
 0001:0007FCF3       aR_5
 0001:0007FCF5       aE_13
 0001:0007FCF7       aR_6
 0001:0007FCF9       aO_3
 0001:0007FCFB       aR_7
 0001:0007FCFD       aT_1
 0001:0007FCFF       aRstarmicrusern
 0001:0007FD2D       aA_9
 0001:0007FD2F       aS_10
 0001:0007FD31       aI_1
 0001:0007FD33       aS_11
 0001:0007FD35       aN_6
 0001:0007FD37       aS_12
 0001:0007FD39       aS_13
 0001:0007FD3B       aS_14
 0001:0007FD3D       aResegistenscon
 0001:0007FD65       aA_10
 0001:0007FD67       aT_2
 0001:0007FD69       aC_8
 0001:0007FD6B       aT_3
 0001:0007FD6D       aE_14
 0001:0007FD6F       aT_4
 0001:0007FD71       aN_7
 0001:0007FD73       aT_5
 0001:0007FD75       aR_8
 0001:0007FD77       aT_6
 0001:0007FD79       aS_15
 0001:0007FD7B       aT_7
 0001:0007FD7D       aT_8
 0001:0007FD7F       aTreatrmatstatl
 0001:0007FD95       aGet
 0001:0007FD99       aGetesetsoftedi
 0001:0007FDED       aO_4
 0001:0007FDEF       aUdocugrouctive
 0001:0007FE05       aE_15
 0001:0007FE07       aXerty
 0001:0007FE4C       aMarataicndcede
 0001:0007FE7C       aAte
 0001:0007FE80       aNgtialelolanen
 0001:0007FEE4       aSet_
 0001:0007FEE9       aT_9
 0001:0007FEEB       aAlocadatatrib
 0001:0007FEF9       aI_2
 0001:0007FEFB       aC_9
 0001:0007FEFD       aN_8
 0001:0007FEFF       aDared
 0001:0007FF05       aC_10
 0001:0007FF07       aEmodenametypeh
 0001:0007FF25       aT_10
 0001:0007FF27       aIstribasi
 0001:0007FF31       aE_16
 0001:0007FF35       aO_5
 0001:0007FF37       aLtrol
 0001:0007FF3D       aE_17
 0001:0007FF3F       aMelemitemform
 0001:0007FF4D       aI_3
 0001:0007FF4F       aNevenpoin
 0001:0007FF59       aT_11
 0001:0007FF5B       aOinfoallocoloc
 0001:0007FF7D       aE_18
 0001:0007FF7F       aSclasentsject
 0001:0007FFB8       aS
 0001:0007FFC0       aProgramfiles
 0001:0007FFE0       aWindir
 0001:0007FFF4       aMpgradualengin
 0001:00080024       aMpcampgradualr
 0001:00080050       aWindirSystem32
 0001:0008008C       aWindirSystem_0
 0001:000800C8       aWindirSystem_1
 0001:00080138       aWindirSystem_2
 0001:00080178       aMp_perf_ts_cpu
 0001:00080198       aMp_perf_ts_wal
 0001:000801B8       aMp_perf_tc_cpu
 0001:000801D8       aMp_perf_tc_wal
 0001:000801F8       aMp_perf_bho_fa
 0001:00080220       aMp_perf_rtp_sa
 0001:00080250       aMp_perf_rtp__0
 0001:00080288       aDefault
 0001:00080290       aRegistryMachin
 0001:000802B8       aRegistryUserS
 0001:000802DC       aProfileimagepa
 0001:00080300       aNtuser_dat
 0001:00080318       aWsWs
 0001:00080328       a_classes
 0001:0008033C       aSSS
 0001:0008034C       aWs_0
 0001:0008035C       aBm_isinstaller
 0001:0008036C       a?Unc
 0001:00080380       EaList
 0001:00080388       aRnel_purge_esb
 0001:0008039C       aAppdataLocalPa
 0001:000803CC       aAcMicrosoftClr
 0001:000803F0       aSuspiciousS
 0001:00080400       aSuspicious_1
 0001:0008040C       aDetectionS
 0001:0008041C       aDetection_0
 0001:00080428       aDosdevicesC
 0001:00080448       a_GlobalrootSys
 0001:00080480       a__1
 0001:00080488       a__
 0001:00080494       aSS_0
 0001:000804A0       aSyswow64
 0001:000804B4       aS1518
 0001:000804C8       aAppdataLocalVi
 0001:00080500       aS1519
 0001:00080514       aS1520
 0001:00080528       a_S_SS
 0001:00080540       aDeviceHarddi_1
 0001:00080570       aBcrypt_dll
 0001:00080588       aSoftwareMicr_4
 0001:000805C0       aSoftwareMicr_7
 0001:0008061C       a_default
 0001:00080630       aSoftwareMic_11
 0001:000806A8       aSoftwarePolici
 0001:00080710       aSoftwareMic_12
 0001:0008076C       aInstalltime
 0001:00080784       aUbr
 0001:00080790       aSoftwarePoli_0
 0001:000807DC       aVshadowbackup
 0001:000807F8       aSystemroot_0
 0001:00080814       aSxsbackup
 0001:00080828       aBuildbranch
 0001:00080840       aMpdisableper_0
 0001:00080874       aSystemrootWins
 0001:000808AC       aMptestoverride
 0001:000808E0       aMpsysiovssretr
 0001:0008090C       aMpsysiodisable
 0001:00080930       aMpdisableinbox
 0001:00080960       a__4
 0001:00080964       a___0
 0001:0008098C       aEventactivityi
 0001:000809A4       aEventwritetran
 0001:000809B8       aEventunregiste
 0001:000809C8       aEventregister
 0001:000809D8       aAdvapi32_dll_0
 0001:000809F4       aMpdisablewmi
 0001:00080A48       aResmgr_
 0001:00080A50       aMpemstestdumpf
 0001:00080A78       aMpfolderscanun
 0001:00080AB8       aMp_foldersca_1
 0001:00080B00       aMpfolderscanfi
 0001:00080B40       aMp_foldersca_0
 0001:00080B84       aMpfolderscanth
 0001:00080BB4       aMp_folderscan_
 0001:00080BEC       aClsid
 0001:00080BF8       aWsWs_0
 0001:00080C08       aSoftwareMic_15
 0001:00080C78       aWindows_manage
 0001:00080CD4       aMpdisablemoder
 0001:00080D0C       aMpsubmitautoru
 0001:00080D34       aMpamsidroprepl
 0001:00080D60       aMpamsienabledr
 0001:00080D90       aMpdisablesymbo
 0001:00080DC4       aMpdisablelocal
 0001:00080DF8       aMpdisableclean
 0001:00080E20       aMp_disable_cle
 0001:00080E50       aS08x04x04x02x0
 0001:00080EBC       aWsCleanstore
 0001:00080EDC       aMpdisablekslna
 0001:00080F18       aMpdisablearems
 0001:00080F38       aMpdisabledirec
 0001:00080F98       aMpdisablefolde
 0001:00080FC4       a27wUIcHvStartm
 0001:00080FE8       aSoftwareMic_16
 0001:00081044       aWs_1
 0001:00081050       aRebootactions
 0001:0008106C       aPreload
 0001:00081074       aFileversion
 0001:0008108C       aInternalname
 0001:0008129C       aRt_rcdata
 0001:000812B0       aSS_1
 0001:000812BC       aConsumeinputco
 0001:000812D4       aNA
 0001:000812D8       aLoad
 0001:00081324       aIncludes
 0001:00081334       aAttr_08ix
 0001:00081348       aThrdmgrWakeino
 0001:00081590       aNtoskrnl
 0001:0008159C       aNtdll
 0001:000815A4       aHal
 0001:000815A8       aKernel32
 0001:000815B4       aWsock32
 0001:000815BC       aD
 0001:000815C0       a_dll
 0001:000815CC       aDll_0
 0001:000815D0       aI64d_0
 0001:000815D8       a_
 0001:000815E4       aNative
 0001:000815EC       aZ
 0001:000815F0       a08x04x04x02x02
 0001:00081654       aMpparsedetecte
 0001:0008166C       aBm_
 0001:00081670       aMpforcescanarc
 0001:00081684       aMpforcescanpac
 0001:00081698       aMpforcescanmai
 0001:000816A8       aMparchivepassw
 0001:000817D8       aPipe
 0001:000817E4       aUnc
 0001:000817EC       aIpc
 0001:000817F8       a??S
 0001:00081808       aMpdisablerhopl
 0001:0008182C       a_version
 0001:00081838       aIpairs
 0001:00081840       aPairs
 0001:00081848       aPe
 0001:0008184C       a_g
 0001:00081850       aMp
 0001:00081854       aTable
 0001:0008185C       aString
 0001:00081864       aHstrlog
 0001:0008186C       aDoshdr
 0001:00081874       aPehdr
 0001:0008187C       aPesecs
 0001:00081884       aPevars
 0001:0008188C       aPeattributes
 0001:0008189C       aOpclog
 0001:000818A4       aFopclog
 0001:000818AC       aFopclog2
 0001:000818B8       aEpcode
 0001:000818C0       aHeaderpage
 0001:000818CC       aFooterpage
 0001:000818D8       aThis_sigattrlo
 0001:000818E8       aSigattr_head
 0001:000818F8       aSigattr_tail
 0001:00081908       a__tostring
 0001:00081914       a__index
 0001:0008191C       a__newindex
 0001:00081928       aMpengine_local
 0001:00081978       a?_
 0001:00081984       aGenericexpkhan
 0001:000819C8       a0123456789_0
 0001:00081A98       aHosts
 0001:00081AA4       aVfsHosts
 0001:00081AC0       aMpvdlltickcoun
 0001:00081AD0       aAttr_
 0001:00081AD8       aSigattrSigat_0
 0001:00081AF8       aSigattrSigattr
 0001:00081D59       a_0123456789?@a
 0001:00081E6C       aHash
 0001:00081E78       aGethashes
 0001:00081E8C       aPea_suspici_10
 0001:00081EA8       aPea_suspicio_9
 0001:00081EC4       aPea_suspicio_8
 0001:00081EE4       aPea_no_data
 0001:00081EF0       aPea_no_idata
 0001:00081F00       aPea_lastscn_wr
 0001:00081F18       aPea_arm_image
 0001:00081F28       aPea_firstsectw
 0001:00081F40       aPea_epatscnsta
 0001:00081F54       aPea_epatstarte
 0001:00081F6C       aPea_requests_e
 0001:00081F84       aPea_lastscn_eq
 0001:00081F98       aPea_debug_stri
 0001:00081FAC       aPea_relocs_str
 0001:00081FC0       aPea_entrybyte5
 0001:00081FD0       aPea_suspicio_7
 0001:00081FEC       aPea_suspicio_6
 0001:00082004       aPea_isdriver
 0001:00082054       aPea_locals_sym
 0001:00082070       aPea_line_numbe
 0001:0008208C       aPea_has_delay_
 0001:000820A8       aPea_no_resourc
 0001:000820BC       aPea_no_debug
 0001:000820CC       aPea_headerchec
 0001:000820E0       aPea_isexe
 0001:000820EC       aPea_suspicio_4
 0001:00082104       aPea_lastscn_va
 0001:00082118       aPea_suspicio_3
 0001:0008213C       aPea_lastscn_vf
 0001:00082150       aPea_hasappende
 0001:00082164       aPea_amd64_imag
 0001:00082174       aPea_resource_o
 0001:0008218C       aPea_no_code
 0001:00082198       aPea_no_relocs
 0001:000821A8       aPea_no_fixups
 0001:000821B8       aPea_handle_lar
 0001:000821CC       aPea_no_impor_0
 0001:000821E0       aPea_no_iat
 0001:000821EC       aPea_no_ep
 0001:000821F8       aPea_epoutofima
 0001:0008220C       aPea_suspicio_0
 0001:0008222C       aPea_no_exports
 0001:0008223C       aPea_epinfirsts
 0001:00082250       aPea_suspicio_2
 0001:0008226C       aPea_epscn_fali
 0001:00082280       aPea_no_loadcon
 0001:00082294       aPea_32bitmachi
 0001:000822A8       aPea_x86_image
 0001:000822B8       aPea_no_securit
 0001:000822C8       aPea_no_comrunt
 0001:000822DC       aPea_no_excepti
 0001:000822F0       aPea_isdll
 0001:000822FC       aPea_has_checks
 0001:00082310       aPea_nx_bit_set
 0001:00082320       aPea_suspicio_1
 0001:00082340       aPea_aslr_bit_s
 0001:00082354       aPea_no_delayim
 0001:00082368       aPea_no_tls
 0001:00082374       aPea_no_uidata
 0001:00082384       aAutoit_guid_
 0001:00082394       aGhkSljislsJHPa
 0001:000823B0       aAutoitignoreno
 0001:000823C8       aWin32Autoitaut
 0001:000823E4       aAutoitignorema
 0001:000823FC       aPeemuThemida_p
 0001:00082414       aAutoit__
 0001:00082420       aAutoit_
 0001:0008242C       aWin32Autoit
 0001:0008243C       aAutoit_offset_
 0001:0008244C       aPea_no_boundim
 0001:00082460       aPea_lastscn_fa
 0001:00082474       aPea_executable
 0001:0008248C       aPea_no_decript
 0001:000824A0       aPea_no_mipsgp
 0001:000824B0       aVerifyisfriend
 0001:000824E0       aPfac
 0001:000824E8       aNtdll_dll_0
 0001:000824FC       aSeassignprimar
 0001:00082538       aNtsetinformati
 0001:00082550       aRootCimv2
 0001:00082568       aRootSubscripti
 0001:0008258C       aRootDefault
 0001:000825A8       aWmibmconsumerf
 0001:000825FC       aMpsmslevel
 0001:00082614       aMpmetastorelow
 0001:00082650       aMpmetastorel_0
 0001:00082688       aMpmetastorel_1
 0001:000826D0       aMpmetastorel_2
 0001:00082714       aMpdisableamsis
 0001:00082748       aMpamsisessionc
 0001:00082780       aMpamsisessio_0
 0001:000827C0       aMpamsisessio_1
 0001:00082808       aMpamsisessio_2
 0001:00082854       aMpdisablewmise
 0001:0008287C       aMpdisablefri_0
 0001:000828AC       aMpdisablefrien
 0001:000828E4       aMpfriendlycach
 0001:00082914       aMpfriendlyca_0
 0001:00082940       aMpvalidatecach
 0001:00082970       aMpdisablebootr
 0001:000829B0       aMpbootrecordcl
 0001:000829FC       aMpstartuptaskd
 0001:00082A24       aMpdisablesta_0
 0001:00082A50       aMpsmskillbitrs
 0001:00082A70       aMpsmsuseconfig
 0001:00082A98       aMpattributep_0
 0001:00082AE0       aMpattributeper
 0001:00082B24       aMpasynclatency
 0001:00082CFC       aJavaDo_deep_re
 0001:00082D10       aCode
 0001:00082D18       aS_4
 0001:00082D1C       aS_S_0
 0001:000834BC       aWrwrsrrrrl_Srr
 0001:00083590       a_irxrrrrrrrrrr
 0001:000835E8       aExitprocess
 0001:000835F4       aTerminateproce
 0001:000838FC       aAahrrrrRrrrrrr
 0001:00083970       aPecompact2VD_D
 0001:00083988       aAspackVSS
 0001:00083C00       aCabinet
 0001:00083C10       aPetite2_3
 0001:00083C4C       aMscf
 0001:00083C54       aPetite2_1
 0001:00083D08       aSqliteFormat3
 0001:00083D28       aSqlite_master
 0001:00083D38       aCreateTableXTy
 0001:00083D80       a1_0
 0001:00083D84       aSelectNameRoot
 0001:00083EC8       aSqlite_sequenc
 0001:00083ED8       aBinary
 0001:00083EE0       aIndex
 0001:00083EE8       aSqlite_
 0001:00083EF0       aCreate
 0001:00083EF8       aGetprocaddress
 0001:00083F18       aAsprotectSS
 0001:00083F2C       aSelf_com
 0001:00083F38       aDosexpkhandler
 0001:00083F80       aFree
 0001:00083F88       aMofpluginIsmof
 0001:00083F98       aMofpluginIsnot
 0001:00083FAC       aMpiswmimofsc_0
 0001:00083FFC       a??
 0001:00084008       a?_0
 0001:00084010       aIu
 0001:0008401C       a_split
 0001:00084024       aNotEnoughMemor
 0001:00084038       aNewproxy
 0001:00084044       aLua5_1
 0001:0008404C       a__mode
 0001:00084054       aKv
 0001:00084058       aSysio_regkey
 0001:00084068       a__gc
 0001:00084070       aDatadirectory
 0001:00084080       a_charat
 0001:00084088       a_concat
 0001:00084094       a_substr
 0001:000840C0       aMpisregkeyvalu
 0001:000840D8       a_charcodeat
 0001:000840E4       aArray_0
 0001:000840EC       aCaller
 0001:00084114       aSvcrt
 0001:0008411C       aPea_genpacked
 0001:0008412C       aOrdD
 0001:00084134       aAttribute_0
 0001:00084140       aProcess_
 0001:0008414C       aMpinternal_s_0
 0001:00084168       aMpinternal_imp
 0001:0008417C       aMpinternal_p_0
 0001:00084198       aNscriptType_S
 0001:000841A8       aApiMs_0
 0001:000841B0       aVs_version_inf
 0001:000841D0       aFdr
 0001:000841D8       aLfr
 0001:000841E0       aSdr
 0001:000841E8       aSystemprocess
 0001:00084208       aUnknowndll_dll
 0001:00084250       aMpenablevmmswa
 0001:00084264       aMsvcrt_dll
 0001:00084270       aPea_hasexports
 0001:00084280       aJavascript_0
 0001:0008428C       aVbscript
 0001:00084298       aEmuldet_a
 0001:000842A4       aPea_no_imports
 0001:000842B4       aJsnorm_0
 0001:000842CC       aEval_0
 0001:000842E0       aMsilSet_dll_ep
 0001:00084330       aIntelRCoreTm2C
 0001:00084370       aOrenumvalue
 0001:0008437C       aOrsetvalue
 0001:00084388       aOrgetvalue
 0001:00084394       aOrdeletevalue
 0001:000843A4       aOrsetvirtualfl
 0001:000843B8       aOrgetvirtualfl
 0001:000843CC       aOrsetkeysecuri
 0001:000843E0       aOrgetkeysecuri
 0001:000843F4       aOrenumkey
 0001:00084400       aOrqueryinfokey
 0001:00084410       aOrdeletekey
 0001:0008441C       aOrcreatekey
 0001:00084428       aOrclosekey
 0001:00084434       aOropenkey
 0001:00084440       aOrsavehive
 0001:0008444C       aOrclosehive
 0001:00084458       aOrcreatehive
 0001:00084468       aOropenhive
 0001:00084474       aOrgetversion
 0001:00084484       aOffreg_dll
 0001:0008449C       a4_8_10240
 0001:000844B0       aMpdisablelogsk
 0001:000844DC       aProcessstart
 0001:000844FC       aPid
 0001:00084678       aPea_disable_st
 0001:0008470C       aUnknown_5
 0001:00084714       aMpmoachint
 0001:00084720       aS04id
 0001:0008472C       aVbs
 0001:00084730       aPea_ismsil
 0001:0008473C       aPs
 0001:00084774       aMaybejs
 0001:0008477C       aDevice_0
 0001:00084790       aHarddiskvolume
 0001:000847B0       aWrite
 0001:000847BC       aEcmascript
 0001:000847C8       aNone
 0001:000847D0       aCpu
 0001:000847D4       aStr_valueof
 0001:000847EC       aEcho
 0001:000847F4       a_ocx
 0001:000847FC       a_sys_0
 0001:0008480C       aNscriptJs_hass
 0001:0008482C       a_ctor
 0001:00084834       aMpthreadlimitr
 0001:0008484C       aPea_has_msilre
 0001:00084864       aPea_dirty_wx_b
 0001:00084878       aStr_substring
 0001:00084888       aEventhandler
 0001:00084898       aS_1
 0001:0008489C       aSet
 0001:000848A0       a?_7
 0001:000848A4       aWindowsSystem3
 0001:000848B8       aNscriptJs_25_0
 0001:000848E0       aNscriptJs_50_0
 0001:00084908       aReturnPath
 0001:00084918       aFrom_2
 0001:00084920       aFrom_3
 0001:00084928       aReturnPath_0
 0001:00084938       aNscriptJs_75_0
 0001:00084960       aNscriptJs_ha_0
 0001:0008497C       aPea_uses_acces
 0001:00084998       aEmbeddedstring
 0001:000849AC       aInvoke
 0001:000849B4       aBegininvoke
 0001:000849C0       aEndinvoke
 0001:000849CC       aNtoskrnl_exe
 0001:000849DC       aMpkernelmodeem
 0001:000849EC       a@gotoBvone
 0001:000849F8       aPea_checks_pro
 0001:00084A34       aDeviceHarddi_0
 0001:00084A64       aJsemuenablepre
 0001:00084A7C       aJsemudisablebr
 0001:00084A90       aTriggerevent
 0001:00084AA0       aGetattribute
 0001:00084B30       aMpwritesglobal
 0001:00084B48       aWindows_2
 0001:00084B54       aKernel32_dll_2
 0001:00084B64       aMpinternalswit
 0001:00084B80       aCreatethread
 0001:00084B90       aPea_dt_error_f
 0001:00084BB4       a_cctor
 0001:00084BBC       aPea_dynmem_api
 0001:00084BD0       aStr_indexof
 0001:00084BE0       aMpmaintenanc_0
 0001:00084C44       aMpcleanurlte_0
 0001:00084C88       aMpcleanfilet_0
 0001:00084CC8       aMpmaintenancew
 0001:00084D30       aMpcleanurltele
 0001:00084D78       aMpcleanfiletel
 0001:00084DBC       aWs
 0001:00084DC8       aEchooff
 0001:00084DD0       aEncodeuricompo
 0001:00084DE4       aDecodeuricompo
 0001:00084DF8       aReferenceerr_0
 0001:00084E08       aCollectgarbage
 0001:00084E18       aCleartimeout_0
 0001:00084E28       aSyntaxerror_0
 0001:00084E34       aParsefloat
 0001:00084E40       aRangeerror
 0001:00084E4C       aSettimeout_0
 0001:00084E58       aEvalerror
 0001:00084E64       aEncodeuri
 0001:00084E70       aNavigator
 0001:00084E7C       aTypeerror
 0001:00084E88       aDecodeuri
 0001:00084E94       aIsfinite
 0001:00084EA0       aParseint_0
 0001:00084EAC       aUrierror_0
 0001:00084EB8       aInfinity
 0001:00084EC4       aDocument
 0001:00084ED0       aWindow
 0001:00084ED8       aIsnan_0
 0001:00084EE0       aNscriptJs_hasb
 0001:00084EF8       aPea_suspici_11
 0001:00084F18       aMpinternal_loo
 0001:00084F34       aPea_dynmem_use
 0001:00084F58       aPea_uses_break
 0001:00084F74       aPea_epscn_writ
 0001:00084F88       aEmbeddeddata
 0001:00084F98       aPea_epscn_vfal
 0001:00084FAC       aMp_standalone_
 0001:00084FD0       aErr_referencee
 0001:00084FE4       aReferenceerror
 0001:00084FF8       aErr_syntaxerro
 0001:00085008       aErr_rangeerror
 0001:00085018       aSyntaxerror
 0001:00085028       aErr_evalerror
 0001:00085038       aErr_typeerror
 0001:00085048       aErr_urierror
 0001:00085058       aErr_function
 0001:00085068       aRangeerror_0
 0001:00085078       aTypeerror_0
 0001:00085084       aEvalerror_0
 0001:00085090       aErr_boolean
 0001:0008509C       aErr_string
 0001:000850A8       aErr_object
 0001:000850B4       aUrierror
 0001:000850C0       aErr_regexp
 0001:000850CC       aFunction_2
 0001:000850D8       aErr_number
 0001:000850E4       aErr_array
 0001:000850F0       aBoolean_1
 0001:000850FC       aErr_error
 0001:00085108       aRegexp_0
 0001:00085114       aErr_date
 0001:00085120       aObject_2
 0001:0008512C       aNumber_1
 0001:00085138       aString_3
 0001:00085144       aError_8
 0001:0008514C       aArray_1
 0001:00085154       aDate_0
 0001:0008515C       a??UncS
 0001:00085178       aNscriptJs_atle
 0001:000851A0       aPea_epscn_vali
 0001:000851B8       aPea_patch_on_n
 0001:000851CC       aPea_patch_on_r
 0001:000851E4       aP
 0001:000851E8       aSIsUndefined
 0001:000851FC       aPea_msil_ngeni
 0001:00085210       aUsersPublicDes
 0001:00085240       aProgramdata
 0001:00085260       aUsers
 0001:00085274       aBat_preproc
 0001:0008528C       aPea_lastscn_ex
 0001:000852A4       aPea_hasboundim
 0001:000852B8       aPea_packed
 0001:000852C4       a_cab
 0001:000852CC       aPea_msil_nativ
 0001:000852E4       aNscriptJs_high
 0001:0008530C       aPea_epscn_eqsi
 0001:00085328       aNscriptJs_many
 0001:00085348       aMpreturnstoent
 0001:00085360       aPart04id
 0001:00085370       aPea_byte_rever
 0001:00085388       aPea_executes_f
 0001:000853A8       aPea_byte_rev_0
 0001:000853C0       aMsil_ngenimage
 0001:000853D0       aPea_epscn_isla
 0001:000853E4       aPea_epsec_not_
 0001:00085400       aEmbedded_objec
 0001:00085424       aBm
 0001:00085428       aPea_uses_privi
 0001:00085461       a_0123456789?_0
 0001:00085540       aStr_tolowercas
 0001:00085550       aFunction_0
 0001:0008555C       aBase64
 0001:00085564       aPea_kernel_sca
 0001:00085574       aPea_entrypoi_0
 0001:00085590       aPea_ia64_image
 0001:000855A0       aPea_checks_if_
 0001:000855C4       aPea_checks_i_0
 0001:000855E8       aPea_dt_error_v
 0001:00085604       aPea_suspici_13
 0001:00085624       aTryrawandvss
 0001:00085640       aPea_suspici_15
 0001:0008565C       aPea_entrybyte6
 0001:0008566C       aInvalidIndexIn
 0001:0008568C       aPea_epiniat
 0001:00085698       aPea_suspici_14
 0001:000856B4       aRemediatemulti
 0001:000856E0       aPea_requires9x
 0001:000856F0       aPea_has_many_r
 0001:00085708       aBinary_0
 0001:00085710       a7bit
 0001:00085718       aMpinthandlerre
 0001:00085734       aMpcallpostentr
 0001:00085750       aMpcallpreentry
 0001:00085768       aMpinthandlerpa
 0001:0008577C       aIa32_sysenter_
 0001:00085790       aMptimereventda
 0001:000857A4       aKifastcallentr
 0001:000857B4       aMpstartprocess
 0001:000857C4       aMpsehhandler
 0001:000857D4       aMptimerevent
 0001:000857E4       aMpinthandler
 0001:000857F4       aMpexitthread
 0001:00085804       aExitthread
 0001:00085810       aMpfinalize
 0001:0008581C       aPea_suspici_16
 0001:00085878       aPea_dt_error_h
 0001:00085898       aPea_dt_error_n
 0001:000858B8       aPea_epatstartl
 0001:00085970       aPea_suspici_17
 0001:00085998       aEchoon
 0001:000859A0       aPea_relocs_but
 0001:000859C0       aEval_1
 0001:000859C8       aUndefinedIsNot
 0001:000859E4       aPea_uses_inval
 0001:00085A00       aMz
 0001:00085A04       aMonitoreop
 0001:00085A1C       aMonitorproctre
 0001:00085A44       a_idata
 0001:00085A4C       aDocwrite
 0001:00085A58       aPea_dmg_images
 0001:00085A6C       aObject_0
 0001:00085A74       aPea_dmg_not_ex
 0001:00085A94       aPea_suspici_18
 0001:00085AB0       aPea_dmg_sectio
 0001:00085ACC       aPea_dmg_fileal
 0001:00085AE4       aPart04idS
 0001:00085B60       a_corexemain
 0001:00085B6C       aNtdll_dll_1
 0001:00085B78       aPea_othermachi
 0001:00085B90       aMpdisableautom
 0001:00085BC0       aMpdumpunpacked
 0001:00085BEC       aDeviceHarddi_2
 0001:00085C28       aSignaturevalid
 0001:00085C3C       aPea_dynmem_ker
 0001:00085C54       aHttp_1
 0001:00085C90       aPea_secmisalig
 0001:00085CA4       aVbaobj
 0001:00085CAC       aPea_dt_error_l
 0001:00085CCC       aBadhash
 0001:00085CE0       aBy
 0001:00085CE8       aKTmN9aqMpapili
 0001:00085D0C       aStr_match
 0001:00085D18       aPea_suspicious
 0001:00085D40       aSystemCurren_0
 0001:00085D94       aPea_dt_error_i
 0001:00085DB0       aCallExpression
 0001:00085DD0       aPea_entrybyte9
 0001:00085DE0       aInsertIntoQ_SV
 0001:00085E10       aNameQAndTypeIn
 0001:00085E2C       aCreateSIndex_S
 0001:00085E40       aPe_get_version
 0001:00085E70       aPea_dt_error_0
 0001:00085E8C       aNoSuchTable
 0001:00085E9C       aPragma_
 0001:00085EA4       aSS_2
 0001:00085EB8       aInvalidParamet
 0001:00085F18       aSqliteFormat_0
 0001:00085F28       aSystemrootSyst
 0001:00085F70       aPea_suspici_19
 0001:00085F90       aDriverscan
 0001:00085FA8       a_sect02d
 0001:00085FB8       aSelectFrom__in
 0001:00086248       aHttpWww_bing_c
 0001:000863A0       aSoftwareMicr_3
 0001:00086418       aMp_process_m_1
 0001:00086480       aMpprocessmem_1
 0001:000864E0       aMp_process_m_0
 0001:00086538       aMpdisableaut_5
 0001:00086588       aMp_scheduled_q
 0001:000865D8       aMp_disable_ski
 0001:00086628       aMpprocessmem_0
 0001:00086708       aMpbrowserrecov
 0001:00086750       aMp_process_mem
 0001:00086798       aMp_async_res_0
 0001:000867E0       aMpdisableaut_1
 0001:00086828       aMpdisableharde
 0001:00086870       aMpscheduledqui
 0001:000868B8       aMpdisableskips
 0001:000868F8       aMpdisablesendi
 0001:00086938       aMp_async_resou
 0001:00086978       aMpoplocksinspy
 0001:000869B8       aMp_extra_asep_
 0001:000869F4       aMpdisableaut_4
 0001:00086A30       aMpprocessmemor
 0001:00086A6C       aMpdisableaut_0
 0001:00086AA8       aMpdisablenewbr
 0001:00086AE0       aMpdisableaut_3
 0001:00086B18       aMptemporaryexc
 0001:00086B50       aMphardeningtel
 0001:00086B84       aMpdisableaut_2
 0001:00086BB8       aMpquarantinesp
 0001:00086BEC       aMpautomaticste
 0001:00086C20       aMpextraasepsca
 0001:00086C54       aMpdisablemulti
 0001:00086C84       aMpenablefastcu
 0001:00086CB4       aMpdisablelitze
 0001:00086CE4       aMpdisablebmvol
 0001:00086D14       aMpdisabletoken
 0001:00086D44       aMpasyncworkmax
 0001:00086D70       aMpdisabledalex
 0001:00086D9C       aMpbrowsersafeu
 0001:00086DC8       aMp_testconfi_1
 0001:00086DF4       aMp_testconfi_0
 0001:00086E20       aCommonprogramf
 0001:00086E4C       aMpdisablebmint
 0001:00086E74       aMpquickscanmax
 0001:00086E9C       aMp_fast_custom
 0001:00086EC4       aMptestconfignu
 0001:00086EEC       aOneclickwdodis
 0001:00086F14       aMp_testconfig_
 0001:00086F3C       aMpfilestashmax
 0001:00086F64       aMptestconfigbi
 0001:00086F8C       aMpplatformkill
 0001:00086FB4       aMptestconfigst
 0001:00086FDC       aMpautoremedtim
 0001:00087004       aMpautoremedwin
 0001:00087028       aMptestconfigbo
 0001:0008706C       aMpclientpoolid
 0001:0008708C       aBcryptclosealg
 0001:000870AC       aMpsetisudelay
 0001:000870C8       aWindirTemp
 0001:000870E4       Src
 0001:00087100       aBcryptopenalgo
 0001:0008711C       aMp_force_ksl
 0001:00087138       aSystemroot
 0001:00087184       aCommonprogra_0
 0001:0008719C       aProfilemgrinit
 0001:000871B4       aMpforceksl
 0001:000871CC       aCommonprogra_1
 0001:000871E0       aHipsruledefini
 0001:000871F4       aProgramfile_23
 0001:00087238       aDefault_0
 0001:00087248       aBcryptgenrando
 0001:00087258       aAllusersprof_1
 0001:00087268       aInfrastructure
 0001:00087278       aPath
 0001:00087288       aGenfinalizer
 0001:00087298       aProgramfile_24
 0001:000872A8       aComputername
 0001:000872B8       aLocalappdata_1
 0001:000872C8       aPsmodulepath
 0001:000872D8       aLogonserver
 0001:000872E4       aProgramdata_2
 0001:000872F0       aUserprofile_2
 0001:000872FC       aPefinalizer
 0001:00087308       aSystemdrive_1
 0001:00087314       aMacrosource
 0001:00087320       aUserdomain
 0001:0008732C       aUactrigger
 0001:00087338       aSystemroot_9
 0001:00087344       aHomedrive
 0001:00087350       aIetrigger
 0001:0008735C       aPepostemu
 0001:00087368       aPepreemu
 0001:00087374       aHomepath
 0001:00087380       aUsername_1
 0001:0008738C       aGenfirst
 0001:000873C0       aPathext
 0001:000873C8       aAppdata_2
 0001:000873D0       aGenlast
 0001:000873D8       aComspec
 0001:000873E0       aWindir_1
 0001:000873E8       aPublic_1
 0001:000873F0       aPelast
 0001:000873F8       aPrompt
 0001:00087400       a__0
 0001:00087408       aTemp_3
 0001:00087410       aPath_6
 0001:00087418       aTmp_1
 0001:0008741C       aLQ
 0001:00087424       a8bit
 0001:0008742C       aNscriptJs_ma_0
 0001:00087454       aSetprocesstain
 0001:00087478       aRar_cmt_setup
 0001:00087494       aInformcamp
 0001:000874AC       aBootscan
 0001:000874C0       aWmiscan
 0001:000874D0       aSoftwareMicr_8
 0001:00087514       aMpscan
 0001:00087524       aPea_suspici_12
 0001:00087540       aMpsehlimitreac
 0001:00087554       aAFile
 0001:00087564       aPea_suspici_20
 0001:00087584       aPea_secmissize
 0001:00087594       aMemory_0
 0001:000875A0       aPea_dropped
 0001:000875AC       aMpregfix02x
 0001:000875C8       aPea_dmg_notcon
 0001:000875E0       aQuotedPrintabl
 0001:00087608       aPe_get_versi_0
 0001:0008764C       aCabsfx
 0001:00087658       aPea_disable_io
 0001:00087674       aAstConversionF
 0001:0008768C       aPea_uses_div_b
 0001:000876A4       aEmbeddedenc_0
 0001:000876B4       aEnd
 0001:000876B8       aFunc
 0001:000876C0       aPea_entrypoint
 0001:000876E0       aPea_uses_singl
 0001:000876FC       aUnpackS
 0001:00087708       aPea_detects_vi
 0001:00087720       aPea_detects__0
 0001:00087730       aWsMppayloaddat
 0001:00087754       aHistoryResults
 0001:00087778       aHistoryStore
 0001:00087798       aSqlite_temp_ma
 0001:000877AC       aSqlite_stat1
 0001:000877BC       aCS
 0001:000877C8       aPdf04d
 0001:000877D4       aPea_invalid_il
 0001:000877EC       aAllocationLimi
 0001:00087804       aHllx_
 0001:0008780C       aPea_executes_0
 0001:00087828       aPea_dmg_virtua
 0001:00087928       a_vba_projectDi
 0001:0008796C       aVbaDir
 0001:00087994       aNscriptJs_25_1
 0001:000879B8       aZipsfx
 0001:000879C4       aVirtualstore
 0001:000879E4       aNscriptJs_hasl
 0001:000879FC       aPea_epcallnext
 0001:00087A0C       aCallExpressi_0
 0001:00087A84       aLowerengineonl
 0001:00087A94       aDefaultaction
 0001:00087AA4       aSamplereques_1
 0001:00087AB4       aEndstream_0
 0001:00087AC0       aExpectedsum
 0001:00087ACC       aSuspicious_4
 0001:00087AD8       aPdf04d_0
 0001:00087AE4       aSeverity_1
 0001:00087AF0       aCategory_0
 0001:00087AFC       aCpucost
 0001:00087B04       aRempol
 0001:00087B0C       aLowfi_0
 0001:00087B18       aSoftwareMicr_2
 0001:00087BA8       aUnableToLoadFu
 0001:00087BC9       aUnableToLoadOr
 0001:00087BF0       aMicrosoftWindo
 0001:00087C6C       aContext_data_f
 0001:00087C98       aContext_data_0
 0001:00087CC4       aDp
 0001:00087CC7       aXNerrrrhrr
 0001:00087D90       aLocalAppdata
 0001:00087DAC       aG
 0001:00087E20       aUsnCache
 0001:00087E34       aPea_isappconta
 0001:00087E48       aMagicthreat__0
 0001:00087E5C       aHrr
 0001:00087ED0       aSoftwareMicr_5
 0001:00087F34       aAbortExecution
 0001:00087F64       aRrr
 0001:00087F8C       aNscriptJs_trig
 0001:00087FB0       aProgram_files
 0001:00087FD0       aCommonfiles
 0001:00087FEC       aPea_aggressive
 0001:00088004       aFdrprocess
 0001:0008801C       aPea_dmg_sizeof
 0001:00088074       aExelimit
 0001:00088080       aJsnorm
 0001:0008808C       aTo
 0001:00088094       aJrhrrrr
 0001:000880EC       aHkcu@
 0001:000880F8       a_dam2
 0001:00088100       aThisFileHasBee
 0001:00088144       aContext_data_1
 0001:00088184       aContext_data_p
 0001:000881B8       aPea_suspici_21
 0001:00088200       aPea_suspicio_5
 0001:00088220       aPea_dmg_resour
 0001:0008823C       aPea_self_modif
 0001:00088254       aPea_inv_virtua
 0001:0008826C       aZRrrrafudAUniq
 0001:00088288       aTMsgboxT_N_RNT
 0001:00088870       aRundll32_exeJa
 0001:000888E0       aSoftwareMicr_9
 0001:00088940       aMppersisted_12
 0001:000889A0       aMppersisted_14
 0001:00088A00       aMppersisted_13
 0001:00088A60       aMppersisteds_5
 0001:00088AC0       aMppersisted_10
 0001:00088B18       aMppersisted_17
 0001:00088B70       aSoftwareMic_13
 0001:00088BC8       aMppersisted_15
 0001:00088C20       aMppersisted_18
 0001:00088C70       aMppersisted_16
 0001:00088CC0       aMppersisted_20
 0001:00088D10       aMppersisted_22
 0001:00088D60       aMppersisted_26
 0001:00088DB0       aMppersisted_19
 0001:00088E00       aMppersisted_23
 0001:00088E50       aMppersisted_21
 0001:00088E98       aMppersisteds_3
 0001:00088EE0       aMppersisted_11
 0001:00088F28       aMppersisteds_4
 0001:00088F70       aMpdisableremed
 0001:00088FB0       aMppersisteds_6
 0001:00088FF0       aMppersisteds_9
 0001:00089030       aMicrosoftSecur
 0001:0008906C       aMppersisteds_8
 0001:000890A8       aMppersisted_24
 0001:000890E4       aMppersisteds_7
 0001:00089120       aMppersisted_25
 0001:00089158       aMppersisteds_2
 0001:0008918C       aMppersisteds_1
 0001:000891E4       aHistoryRemchec
 0001:0008922C       aMpinternal_boo
 0001:0008924C       aPea_dynmem_u_0
 0001:00089268       aPea_inv_option
 0001:00089280       aLG
 0001:00089298       aRrrrRrrrRrrr
 0001:000892AC       aFdrfile
 0001:000892BC       aEncodedcommand
 0001:000892D8       a6_2_
 0001:000892F4       aNumber_0
 0001:000892FC       aFlags
 0001:00089308       aScavengertaskC
 0001:00089368       aInvalidParam_0
 0001:000893F0       aRrrrnRrrrbqrrr
 0001:00089440       aEmbeddedenc
 0001:00089460       aPea_dynmem_u_1
 0001:00089480       aBm_session_id
 0001:0008949C       aBug10726759
 0001:000894B8       aPea_inv_sizeof
 0001:000894D0       aNullIsNotAnObj
 0001:000894E8       aWindows
 0001:000894FC       aPea_dmg_virt_0
 0001:00089510       aPea_inv_rawoff
 0001:00089538       aPea_inv_rawsiz
 0001:00089548       aPea_is_process
 0001:00089558       aSS_3
 0001:00089564       aBoolean_0
 0001:0008956C       a_dam1
 0001:00089574       aU
 0001:0008957C       aString_prototy
 0001:000895AC       aS_5
 0001:00089604       aGethashesCusto
 0001:00089628       aPea_dynmem_che
 0001:0008964C       aMpregfixnnn_
 0001:00089668       aPea_dmg_reso_0
 0001:00089680       aPea_inv_virt_0
 0001:00089694       aEncodeuricom_0
 0001:000896A8       aBm_mpisinstall
 0001:000896E0       aEicar_test_fil
 0001:000896F0       aPea_no_section
 0001:00089700       aCleartimeout
 0001:0008971C       aVersioning
 0001:00089728       aDatabase_0
 0001:00089734       aDynamicsignatu
 0001:00089748       aHstr_weight
 0001:00089754       aSigattr_log_sz
 0001:00089764       aMpengine_globa
 0001:00089780       aBlob
 0001:00089788       aGuid_1
 0001:00089790       aUs_0
 0001:00089794       aStrings
 0001:000897A0       aPdf_trustlengt
 0001:000897B8       aPdf_disableobj
 0001:000897D4       aPdf_disablexre
 0001:000897EC       aPdf_disablexfa
 0001:000897FC       aPdf_decodeallf
 0001:00089814       aPdf_disablefil
 0001:00089828       aPdf_noonaccess
 0001:00089844       aPdf_scansepara
 0001:00089864       aPdf_scanallstr
 0001:00089878       aPdf_disabledee
 0001:0008988C       aPdf_ignoreleng
 0001:000898A4       aPdf_forcedeeps
 0001:000898B8       aMp_filtered_si
 0001:000898F0       aSamplefilereme
 0001:00089948       aUnregistered
 0001:00089964       a_get_heap_hand
 0001:00089978       ModuleName
 0001:00089980       aFailtelemetry
 0001:0008999C       aClnfile
 0001:000899A8       aFriendlyfile
 0001:000899B8       a_gen
 0001:000899C0       aPua
 0001:000899C8       aIrc
 0001:000899D0       aS_0
 0001:00089A08       aEventwriteex
 0001:00089A18       aVerqueryvaluew
 0001:00089A28       aGetfileversi_1
 0001:00089A40       aGetfileversi_2
 0001:00089A5C       aEventsetinform
 0001:00089A70       aApiMsWinEventi
 0001:00089AB8       aMpbase64scan
 0001:00089AC8       aMpbase64deco_0
 0001:00089AE4       aMpbase64decode
 0001:00089AFC       aMpinternal_
 0001:00089B08       a0x08lx0x016i64
 0001:00089B1C       aNamedattribute
 0001:00089B64       aStreamContaine
 0001:00089B7C       aMpenablepwdcrk
 0001:00089B8C       aMpdisableuserd
 0001:00089BC0       aGfind
 0001:00089BC8       aGmatch
 0001:00089BD0       aMpinternal_mpd
 0001:00089BF0       aCompanyname
 0001:00089C08       aS08lx08lx08lx0
 0001:00089C24       aKstd
 0001:00089C2C       aKfwd
 0001:00089C34       aKrev
 0001:00089C3C       aKfoo
 0001:00089C44       aKhea
 0001:00089C4C       aMpdisablesyn_0
 0001:00089C80       aMpdisableadvsa
 0001:00089CBC       aMpdisablebafs
 0001:00089CD8       aCoroutine
 0001:00089CE4       a_Vfz
 0001:00089CF8       aMpenginetestli
 0001:00089D48       aInstallshield
 0001:00089D60       aInsertIntoQ__0
 0001:00089DA0       aTypeTriggerAnd
 0001:00089DC0       aTrigger
 0001:00089DC8       a__3
 0001:00089DD0       aMatch
 0001:00089DD8       aMp_enable_fuzz
 0001:00089DFC       aSerestoreprivi
 0001:00089E24       aSebackupprivil
 0001:00089E48       aMpdisablescanr
 0001:00089E98       aMpdisableskipp
 0001:00089ED4       aMpdisablelasta
 0001:00089F10       aMp_disable_las
 0001:00089F58       aClosethreadpoo
 0001:00089F70       aWaitforthreadp
 0001:00089F90       aSetthreadpoolt
 0001:00089FA4       aCreatethreadpo
 0001:00089FBC       aClosethreadp_0
 0001:00089FD0       aWaitforthrea_2
 0001:00089FF0       aSetthreadpoolw
 0001:0008A004       aCreatethread_0
 0001:0008A01C       aWaitforthrea_1
 0001:0008A03C       aCancelthreadpo
 0001:0008A050       aStartthreadpoo
 0001:0008A064       aClosethreadp_3
 0001:0008A078       aCreatethread_3
 0001:0008A08C       aSetthreadpoo_1
 0001:0008A0A8       aSetthreadpoo_0
 0001:0008A0C4       aClosethreadp_2
 0001:0008A0D4       aCreatethread_2
 0001:0008A0E8       aClosethreadp_1
 0001:0008A0FC       aWaitforthrea_0
 0001:0008A11C       aSubmitthreadpo
 0001:0008A134       aCreatethread_1
 0001:0008A14C       aKernelbase_dll
 0001:0008A16C       aKernel32_dll_0
 0001:0008A188       aSleepconditi_0
 0001:0008A1A4       aReleasesrwlock
 0001:0008A1BC       aTryacquiresrwl
 0001:0008A1D8       aAcquiresrwlock
 0001:0008A1F0       aInitializesrwl
 0001:0008A204       aSleepcondition
 0001:0008A220       aWakeallconditi
 0001:0008A23C       aWakeconditionv
 0001:0008A254       aInitializecond
 0001:0008A270       aGetsystemtimep
 0001:0008A290       aSetfileinforma
 0001:0008A2AC       aGetfileinforma
 0001:0008A2CC       aGettickcount64
 0001:0008A2DC       aLcmapstringex
 0001:0008A2EC       aIsvalidlocalen
 0001:0008A300       aGetuserdefault
 0001:0008A31C       aGetlocaleinfoe
 0001:0008A32C       aComparestringe
 0001:0008A33C       aEnumsystemloca
 0001:0008A350       aSetdefaultdlld
 0001:0008A36C       aCreatesymbolic
 0001:0008A380       aGetcurrentproc
 0001:0008A39C       aFreelibrarywhe
 0001:0008A3BC       aFlushprocesswr
 0001:0008A3D8       aCreatesemaph_0
 0001:0008A3EC       aCreatesemaphor
 0001:0008A400       aCreateeventexw
 0001:0008A410       aInitonceexecut
 0001:0008A424       aInitializecrit
 0001:0008A440       aFlssetvalue
 0001:0008A44C       aFlsgetvalue
 0001:0008A458       aFlsfree
 0001:0008A460       aFlsalloc
 0001:0008A46C       a?_1
 0001:0008A4A0       aMpbafsextended
 0001:0008A4CC       aMpsyncdssquery
 0001:0008A4F8       aMpsdntimeout
 0001:0008A514       aMpdisablesyncs
 0001:0008A538       aMpdisablesyncd
 0001:0008A560       a6
 0001:0008A564       a@6
 0001:0008A568       aH6
 0001:0008A56C       aP6
 0001:0008A570       a6_1
 0001:0008A574       aS6
 0001:0008A578       a6_2
 0001:0008A5D4       aInteger
 0001:0008A5DC       aWsRtsigsData
 0001:0008A600       aUserprofile
 0001:0008A61C       aAllusersprofil
 0001:0008A640       aDefault_1
 0001:0008A654       aDefaultuserpro
 0001:0008A680       aResources
 0001:0008A698       aEntries
 0001:0008A6AC       aMpdisableshutd
 0001:0008A6E0       aMpdisablearsen
 0001:0008A708       aVarIx
 0001:0008A710       aCtlsmanager397
 0001:0008A744       aRng
 0001:0008A74C       aRowid_0
 0001:0008A754       a_rowid_
 0001:0008A75C       aMpsfcbuildco_0
 0001:0008A788       aMp_sfcbuild__0
 0001:0008A7B8       aMpsfcbuildconf
 0001:0008A7E4       aMp_sfcbuild_co
 0001:0008A818       aMpthreathash_0
 0001:0008A868       aMpthreathashev
 0001:0008A8B8       Name
 0001:0008A8DC       a04d02d02d
 0001:0008A8EC       aNow
 0001:0008A8F0       a40f21a21d
 0001:0008A8FC       a20c20e
 0001:0008A904       aD_D_D_D
 0001:0008A91C       aDeviceWindfs
 0001:0008A93C       aDeviceWebdavre
 0001:0008A970       aDeviceMup
 0001:0008A98C       aDeviceLanmanre
 0001:0008A9C0       aCWs
 0001:0008A9D0       aRtpskiprule
 0001:0008A9DC       aMppersisted_27
 0001:0008AA08       aPersistedstore
 0001:0008AAC4       aMpfastkcrcfilt
 0001:0008AAD8       aSoftwareMic_36
 0001:0008AB24       aPidUProcesssta
 0001:0008AB58       aBadRegularExpr
 0001:0008AB78       aMultiline
 0001:0008AB84       aIgnorecase
 0001:0008AB90       aGlobal
 0001:0008AB98       aSource
 0001:0008ABA0       aLastindex
 0001:0008ABAC       aRegexp
 0001:0008ABB4       aUncaughtExcept
 0001:0008ABCC       aExecutionTookU
 0001:0008ABE4       aFinalMemoryUse
 0001:0008ABFC       aTotalOfDGcsPer
 0001:0008AC18       aHttpWww_google
 0001:0008AC54       aReferrer
 0001:0008AC60       aCookie
 0001:0008AC68       aMozilla
 0001:0008AC70       aAppcodename
 0001:0008AC7C       aMicrosoftInter
 0001:0008AC98       aAppname
 0001:0008ACA0       aAppminorversio
 0001:0008ACB0       aX86
 0001:0008ACB4       aCpuclass
 0001:0008ACC0       aWin32
 0001:0008ACC8       aPlatform
 0001:0008ACD4       aMsdonottrack
 0001:0008ACE4       aOpsprofile
 0001:0008ACF0       aUserprofile_0
 0001:0008ACFC       aSystemlanguage
 0001:0008AD0C       aUserlanguage
 0001:0008AD1C       a5_0CompatibleM
 0001:0008AD48       aAppversion
 0001:0008AD54       aMozilla5_0Comp
 0001:0008AD88       aUseragent
 0001:0008AD94       aOnline
 0001:0008AD9C       aCookieenabled
 0001:0008ADAC       aMimetypes
 0001:0008ADB8       aPlugins
 0001:0008ADC0       aEnAu
 0001:0008ADC8       aHtmlheadbody
 0001:0008ADD8       aNa
 0001:0008ADE0       aHead
 0001:0008ADE8       aBody
 0001:0008ADF0       aHtml
 0001:0008AE38       aObject
 0001:0008AE40       aArguments
 0001:0008AE4C       aLength
 0001:0008AE54       aPrototype
 0001:0008AE60       aConstructor
 0001:0008AE6C       aFunction
 0001:0008AE78       aString_0
 0001:0008AE80       aError_0
 0001:0008AE88       aNumber
 0001:0008AE90       aNumber_tostrin
 0001:0008AEA0       aNscriptJs_hasn
 0001:0008AEB4       aNscriptJs_25pe
 0001:0008AED8       aNscriptJs_50pe
 0001:0008AEFC       aNscriptJs_75pe
 0001:0008AF20       aNscriptForcequ
 0001:0008AF40       aWindows_0
 0001:0008AF4C       aJsemuconfig
 0001:0008AF64       aIf
 0001:0008AF68       aV_0
 0001:0008AF6C       aVId
 0001:0008AF74       aNscriptJsenabl
 0001:0008AF90       aMpisexhausti_0
 0001:0008AFAC       aMpisexhaustive
 0001:0008AFC8       aThisFileMustBe
 0001:0008AFF8       aNscriptForce_4
 0001:0008B010       aScript_type
 0001:0008B028       aNscriptForce_2
 0001:0008B040       aEncscript
 0001:0008B05C       aNscriptForcety
 0001:0008B070       aNscriptForce_3
 0001:0008B084       aNscriptForce_1
 0001:0008B09C       aNscriptForce_0
 0001:0008B0B4       aNscriptNoparsi
 0001:0008B0CC       aNscriptNopar_0
 0001:0008B0E8       aNscriptJsdisab
 0001:0008B104       aMpispowershell
 0001:0008B11C       aPdf
 0001:0008B124       aMpisievscan
 0001:0008B130       aMpisievscan_0
 0001:0008B140       SourceString
 0001:0008B144       a__2
 0001:0008B14C       aHtml_dom
 0001:0008B23C       aMpenableunicod
 0001:0008B260       aKernel_purge_
 0001:0008B284       aCi_cataloghint
 0001:0008B294       aRe8pr
 0001:0008B29C       aS04iu
 0001:0008B2A8       aScript_0
 0001:0008B2B0       aUpxep
 0001:0008B2B8       aUpxw
 0001:0008B2E8       aPea_packersigm
 0001:0008B300       aSubtypeSSigseq
 0001:0008B388       aSupported
 0001:0008B394       aLowfi
 0001:0008B39C       aInternalSignat
 0001:0008B3D0       aFalse
 0001:0008B3E4       aPeexpkunpacked
 0001:0008B3F8       aCabsfx_0
 0001:0008B400       aUnsupported
 0001:0008B40C       aTrue
 0001:0008B414       aMpnoncachedlow
 0001:0008B428       aDamaged
 0001:0008B444       aPersist
 0001:0008B44C       aObj_tostring
 0001:0008B460       aObject_1
 0001:0008B46C       aObj_hasownprop
 0001:0008B480       aParseint
 0001:0008B48C       aUndefined
 0001:0008B498       aEval
 0001:0008B4A0       aParsefloat_0
 0001:0008B4AC       aUnescape
 0001:0008B4B8       aSettimeout
 0001:0008B4C4       aUnparseableArg
 0001:0008B4E4       aObj_valueof
 0001:0008B4F0       aEscape
 0001:0008B4F8       aSwfbinaryId
 0001:0008B508       aIsnan
 0001:0008B510       aStr_charat
 0001:0008B51C       aStr_charcodeat
 0001:0008B52C       aI64dD
 0001:0008B538       aStr_replace
 0001:0008B544       aStr_touppercas
 0001:0008B554       aArray_join
 0001:0008B560       aArray_shift
 0001:0008B56C       aArray_push
 0001:0008B578       aArray_slice
 0001:0008B584       aStr_lastindexo
 0001:0008B594       aStr_substr
 0001:0008B5A0       aFunc_call
 0001:0008B5AC       aFunc_apply
 0001:0008B5B8       aStr_split
 0001:0008B5C4       aArray
 0001:0008B5CC       aStr_slice
 0001:0008B5D8       aOut_of_range
 0001:0008B5E8       aArray_concat
 0001:0008B5F8       aArray_reverse
 0001:0008B608       aUnparseableA_0
 0001:0008B634       aArray_prototyp
 0001:0008B660       aStr_search
 0001:0008B66C       aMpinternalcrea
 0001:0008B68C       aMscoree_dll
 0001:0008B698       a_resources
 0001:0008B6A4       aSingle
 0001:0008B6AC       aUint64
 0001:0008B6B4       aInt64
 0001:0008B6BC       aDouble
 0001:0008B6C4       aUintptr
 0001:0008B6CC       aIntptr
 0001:0008B6D4       aInt32
 0001:0008B6DC       aUint32
 0001:0008B6E4       aChar
 0001:0008B6EC       aSbyte
 0001:0008B6F4       aUint16
 0001:0008B6FC       aInt16
 0001:0008B704       aMulticastdeleg
 0001:0008B718       aBoolean
 0001:0008B720       aByte
 0001:0008B728       aSystem
 0001:0008B730       a_dll_0
 0001:0008B738       aModule_1
 0001:0008B744       aValuetype
 0001:0008B750       aMphasvalidproj
 0001:0008C680       aCWindowsIexplo
 0001:0008C698       MultiByteStr
 0001:0008C6A8       a_boxload
 0001:0008C6B4       aAdvancedinstal
 0001:0008C6C8       aCabsfxw
 0001:0008C6D4       aInstallcreator
 0001:0008C6E4       aNsis
 0001:0008C6EC       aInno
 0001:0008C738       aMpsimulatepara
 0001:0008C750       aSj
 0001:0008C75C       aExeemb
 0001:0008C774       aAsprotectSimul
 0001:0008C7A4       aInnosetupdata
 0001:0008C7C8       aHstrexhaustive
 0001:0008C7E8       aPea_executes_1
 0001:0008C80C       aPea_hstr_exhau
 0001:0008C820       aPea_code_on_st
 0001:0008C834       aPea_disable_dr
 0001:0008C874       aSsfScanallstre
 0001:0008C8A8       a__substg1_0_
 0001:0008C8D0       aPackage
 0001:0008C8E0       aEncryptedpacka
 0001:0008C904       aWorddocument
 0001:0008C920       aDir
 0001:0008C928       aWorkbook
 0001:0008C93C       aBook
 0001:0008C948       a1table
 0001:0008C958       aPowerpointDocu
 0001:0008C980       aVisiodocument
 0001:0008C9D4       aSolutionconfig
 0001:0008CA38       aFullCompile
 0001:0008CA54       aOleStreamD
 0001:0008CA84       aAttribute
 0001:0008CA90       aShfstq
 0001:0008CA98       aAista
 0001:0008CAA0       aPayghamat
 0001:0008CAAC       aPptembedded
 0001:0008CABC       aMpinternal_r_0
 0001:0008CAEC       aMpinternal_res
 0001:0008CB18       a_vba_project
 0001:0008CB34       a(short,long double,*)
 0001:0008CB44       aVisioembedded
 0001:0008CB54       aVisioTmDrawing
 0001:0008CCE8       aInno06id
 0001:0008CD04       a_exe
 0001:0008CD14       aNull
 0001:0008CD1C       aWsWs_2
 0001:0008CD28       aWsWs_1
 0001:0008CD40       aD_D_D
 0001:0008CD4C       aInnosetupdat_0
 0001:0008CD6C       aOstaCompressed
 0001:0008CDAC       aNsisDSS
 0001:0008CDCC       aPluginsdir
 0001:0008CDDC       aNsisInstdata
 0001:0008CDFC       aEmbeddedFile
 0001:0008CE18       aEmbeddedStream
 0001:0008CE38       aFlateDecode
 0001:0008CE58       aPdfLogObjectDF
 0001:0008CE9C       aPdfLogObjectDT
 0001:0008CED4       aPdfScanalluris
 0001:0008CF2C       aType
 0001:0008CF34       aPrev
 0001:0008CF3C       aStdcf
 0001:0008CF44       aLength_0
 0001:0008CF4C       aFilter
 0001:0008CF54       aColors
 0001:0008CF5C       aSubtype_0
 0001:0008CF64       aEncrypt
 0001:0008CF6C       aColumns
 0001:0008CF74       aPredictor
 0001:0008CF80       aOpenaction
 0001:0008CF8C       aDecodeparms
 0001:0008CF98       aBitspercomp
 0001:0008CFA4       aNames
 0001:0008CFAC       aJavascript
 0001:0008CFB8       aAa
 0001:0008CFBC       aU_5
 0001:0008CFC0       aUe
 0001:0008CFC4       aOe
 0001:0008CFC8       aFirst
 0001:0008CFD0       aN
 0001:0008CFD4       aW
 0001:0008CFD8       aIndex_0
 0001:0008CFE0       aSize_1
 0001:0008CFE8       aRva_0
 0001:0008CFEC       aXrefstm
 0001:0008CFF4       aAcroform
 0001:0008D000       aA
 0001:0008D004       aUri_0
 0001:0008D008       aAnnots
 0001:0008D014       aDataspaceStora
 0001:0008D040       aDataspaceNamel
 0001:0008D058       aDataspaceSto_3
 0001:0008D0C4       aDataspaceSto_1
 0001:0008D0F0       aDataspaceSto_0
 0001:0008D120       aDataspaceSto_2
 0001:0008D6A0       aInvalidVectorT
 0001:0008D6BC       aUnknownExcepti
 0001:0008D6D0       aHr0x08x
 0001:0008D6DC       aNspack
 0001:0008D708       nullsub_22
 0001:0008D714       aDnaseed
 0001:0008D724       aJj
 0001:0008D73C       aFile_0
 0001:0008D744       aNtfs
 0001:0008D760       aMft
 0001:0008D76C       aI30
 0001:0008D778       aArea51VD_DS
 0001:0008D980       aPea_isvbnative
 0001:0008DBC8       aPea_isvbpcode
 0001:0008DBD8       aSS_4
 0001:0008DBE0       a_reloc
 0001:0008DBE8       a08x_0
 0001:0008DBF0       aStr_fromcharco
 0001:0008DC04       aRealloc
 0001:0008DC10       aMath_floorIsNo
 0001:0008DC34       aMath_floor
 0001:0008DC40       aMath_roundIsNo
 0001:0008DC64       aMath_round
 0001:0008DC70       aMath_random
 0001:0008DC7C       aMath_pow
 0001:0008DC88       aTrailer
 0001:0008DCA0       a07070
 0001:0008DCA8       aPrefixcount
 0001:0008DCB4       aPrefix
 0001:0008DCBC       aSize
 0001:0008DCC4       aAddress
 0001:0008DCCC       aValue
 0001:0008DCD4       aPea_detects_vm
 0001:0008DCE8       aMpgetattribute
 0001:0008DD08       aRegexp_test
 0001:0008DD14       aRegexp_exec
 0001:0008DD20       aInput
 0001:0008DD28       aIshldS
 0001:0008DDC4       aXrrrrbRrrraRrr
 0001:0008DE18       aMyapp_exe
 0001:0008DE2C       aDate_gettime
 0001:0008DE3C       aDate_prototy_4
 0001:0008DE74       aDate_valueof
 0001:0008DE84       aDate_protot_10
 0001:0008DEBC       aDate_tostring
 0001:0008DECC       aDate_protot_11
 0001:0008DF04       aSDSD02d02d02dU
 0001:0008DF24       aDate_settime
 0001:0008DF34       aDate_prototype
 0001:0008DF6C       aDate_gethours
 0001:0008DF7C       aDate_prototy_9
 0001:0008DFB4       aDate_gettimezo
 0001:0008DFCC       aDate_getfullye
 0001:0008DFE0       aDate_prototy_5
 0001:0008E01C       aDate_getdate
 0001:0008E02C       aDate_prototy_3
 0001:0008E064       aDate_getmonth
 0001:0008E074       aDate_prototy_2
 0001:0008E0AC       aDate_setdate
 0001:0008E0BC       aDate_prototy_1
 0001:0008E0F4       aDate_getmillis
 0001:0008E10C       aDate_prototy_0
 0001:0008E14C       aDate_getsecond
 0001:0008E15C       aDate_prototy_7
 0001:0008E198       aDate_getminute
 0001:0008E1A8       aDate_prototy_6
 0001:0008E1E4       aDate_getday
 0001:0008E1F0       aDate_prototy_8
 0001:0008E238       aCallee
 0001:0008E324       aPerformArithme
 0001:0008E33C       aAttemptToCompa
 0001:0008E35C       aAttemptToSASVa
 0001:0008E378       aSDS
 0001:0008E384       aNsv1FileId
 0001:0008E3A4       aPklite32
 0001:0008E3B0       aPklite32Damage
 0001:0008E3C4       aIs_iev
 0001:0008E3CC       aIs_footer
 0001:0008E3D8       aIs_header
 0001:0008E3E4       aMatch_offset
 0001:0008E3F4       aPedestroyversi
 0001:0008E414       aCd001
 0001:0008E41C       aBootable_disk_
 0001:0008E458       aLToritoSpecifi
 0001:0008E470       aInvalidHandle
 0001:0008E4A4       aMpsetisuinterv
 0001:0008E4C8       aPespinVD_DS
 0001:0008E4DC       aBeta
 0001:0008E510       aMpinternal_clu
 0001:0008E528       aErr_usererror
 0001:0008E538       aBytes_to_decry
 0001:0008E54C       aXray_type
 0001:0008E558       aSig
 0001:0008E55C       aOrdinal
 0001:0008E564       aFn
 0001:0008E568       aNamerva
 0001:0008E570       aRva
 0001:0008E574       aMmap_stringFai
 0001:0008E590       aPe_mmapFailedB
 0001:0008E5E8       aPe_mmapInvalid
 0001:0008E6C4       aRtfbody
 0001:0008E6D8       aRtf04id
 0001:0008E6F0       aBadArgumentDTo
 0001:0008E710       aMethod
 0001:0008E718       aN_0
 0001:0008E71C       aSl
 0001:0008E720       aMain
 0001:0008E728       aField
 0001:0008E730       aSExpectedGotS
 0001:0008E744       aC
 0001:0008E748       aC_0
 0001:0008E750       aNoValue
 0001:0008E75C       aCharacteristic
 0001:0008E76C       aNumberoflinenu
 0001:0008E780       aNumberofreloca
 0001:0008E794       aPointertolinen
 0001:0008E7AC       aPointertoreloc
 0001:0008E7C4       aPointertorawda
 0001:0008E7D8       aSizeofrawdata
 0001:0008E7E8       aVirtualaddress
 0001:0008E7F8       aVirtualsize
 0001:0008E804       aNamedw
 0001:0008E80C       aName
 0001:0008E814       aInvalidIndex_0
 0001:0008E830       aEpsec
 0001:0008E840       aPea_enable_vmm
 0001:0008E854       aCfg
 0001:0008E878       aPea_hasstandar
 0001:0008E8A0       aMicrosoftPifex
 0001:0008E960       aMpdisablevhdsc
 0001:0008E98C       aConectix
 0001:0008E998       aVhdxfile
 0001:0008E9A4       aPea_memory_pat
 0001:0008E9B8       aUstar
 0001:0008EBB1       aCript
 0001:0008EBCC       aPea_isdamaged
 0001:0008EBDC       aStandardJetDb
 0001:0008EBEC       aSystem_0
 0001:0008EE40       aMswim
 0001:0008EE64       aZlibstream
 0001:0008EE74       aOle10native
 0001:0008EE80       aAce
 0001:0008EE88       aThisFileMust_0
 0001:0008EEB8       aPart0001S
 0001:0008EEC8       aPart0000S
 0001:0008F020       a_?
 0001:0008F064       aFrMZmoSxCPe_vi
 0001:0008F084       aPeunmappereade
 0001:0008F094       aPedestroyresou
 0001:0008F0B0       aSqrt2
 0001:0008F0B8       aSqrt1_2
 0001:0008F0C0       aPi
 0001:0008F0C4       aLog10e
 0001:0008F0CC       aLog2e
 0001:0008F0D4       aLn2
 0001:0008F0D8       aLn10
 0001:0008F0E0       aE_0
 0001:0008F0E4       aMath
 0001:0008F0EC       aNegative_infin
 0001:0008F100       aPositive_infin
 0001:0008F114       aNan
 0001:0008F118       aMin_value
 0001:0008F124       aMax_value
 0001:0008F130       aMpreemulate
 0001:0008F13C       aPea_disable_se
 0001:0008F154       aPea_disable_ap
 0001:0008F170       aPea_deep_analy
 0001:0008F184       aP1
 0001:0008F188       aNp1
 0001:0008F18C       aWp1
 0001:0008F190       aWp2
 0001:0008F194       aP2
 0001:0008F198       aNp2
 0001:0008F19C       aPea_checks_ntg
 0001:0008F1B4       aPea_dynmem_c_2
 0001:0008F1D4       aDate
 0001:0008F1DC       aDate_setfullye
 0001:0008F1F0       aDate_protot_12
 0001:0008F22C       aPedestroyvirtu
 0001:0008F244       aPea_calls_unim
 0001:0008F260       aWsWstmp
 0001:0008F274       aMatch_offsets_
 0001:0008F288       aHitcount
 0001:0008F294       aVa
 0001:0008F298       aMatched
 0001:0008F2A4       aVfs
 0001:0008F2BC       a__5
 0001:0008F2C0       aDigit
 0001:0008F2C8       aAlpha
 0001:0008F2D0       aError_tostring
 0001:0008F2E0       aMessage
 0001:0008F2E8       aMpenableextend
 0001:0008F31C       aMpinternal_peh
 0001:0008F338       aPrint
 0001:0008F340       aIssignedfile
 0001:0008F35C       aMpmoacfriendly
 0001:0008F370       aMpdisableadvss
 0001:0008F3B4       aFsgVS
 0001:0008F440       a23456789abcdef
 0001:0008F460       aPea_isreported
 0001:0008F470       aPea_issuspicio
 0001:0008F484       aPea_isgeneric
 0001:0008F524       aMpdisableunkno
 0001:0008F548       aWebfile
 0001:0008F558       aSystemroot_1
 0001:0008F570       aSUI64u
 0001:0008F588       aProcess_1
 0001:0008F5A0       aProcess
 0001:0008F5B4       a_Proc
 0001:0008F5C8       aProcess_0
 0001:0008F5D8       a_gen_0
 0001:0008F5E4       aThreatcontext
 0001:0008F5F4       aResourcePath
 0001:0008F610       aResourceSchema
 0001:0008F630       aExplicitResour
 0001:0008F664       aMagicthreat_08
 0001:0008F688       a_pif
 0001:0008F694       a_lnk
 0001:0008F6A0       aContext_data_a
 0001:0008F6EC       aHstrVirtoolWin
 0001:0008F710       aPackage_0
 0001:0008F718       a02x02x02x02x02
 0001:0008F7A8       aLoadcache
 0001:0008F7B4       aMpcache_bin_0
 0001:0008F7C8       aLink
 0001:0008F7D0       aData_0
 0001:0008F7D8       aWs_02x
 0001:0008F7EC       aUserprofile_1
 0001:0008F808       aCommon_appdata
 0001:0008F82C       aAppdata
 0001:0008F840       aCommon_desktop
 0001:0008F864       aU_4
 0001:0008F86C       aAttributepersi
 0001:0008F888       aFile_2
 0001:0008F890       aSamplereq
 0001:0008F89C       aUpper
 0001:0008F8A4       aLower
 0001:0008F8AC       aFormat
 0001:0008F8B4       aTrue_1
 0001:0008F8BC       aFalse_1
 0001:0008F8C8       aSoftwareMic_23
 0001:0008F910       aSoftwarePoli_3
 0001:0008F970       aSoftwareMic_22
 0001:0008F9C8       aSoftwareMicr_0
 0001:0008FA24       a?Volume
 0001:0008FA3C       aReads_vdll_cod
 0001:0008FA4C       aCrypt32_dll
 0001:0008FA64       aCfgmgr32_dll
 0001:0008FA80       aDnsapi_dll
 0001:0008FA98       aFltlib_dll
 0001:0008FAB0       aKtmw32_dll
 0001:0008FAC8       aOle32_dll_0
 0001:0008FADC       aOleaut32_dll_0
 0001:0008FAF8       aNetapi32_dll
 0001:0008FB14       aPsapi_dll
 0001:0008FB28       aSetupapi_dll
 0001:0008FB44       aUser32_dll
 0001:0008FB5C       aVersion_dll
 0001:0008FB74       aWintrust_dll
 0001:0008FB90       aWs2_32_dll
 0001:0008FBA8       aShlwapi_dll
 0001:0008FBC0       aCombase_dll
 0001:0008FBD8       aWsclient_dll
 0001:0008FBF4       aNcrypt_dll
 0001:0008FC0C       aTbs_dll
 0001:0008FC1C       aIphlpapi_dll
 0001:0008FC38       aWtsapi32_dll
 0001:0008FC54       aUserenv_dll
 0001:0008FC6C       aRpcrt4_dll_0
 0001:0008FC84       aWofutil_dll
 0001:0008FC9C       aMsdelta_dll
 0001:0008FCB4       aCabinet_dll
 0001:0008FCCC       aPowrprof_dll
 0001:0008FCE8       aDxgi_dll
 0001:0008FCFC       aGdi32_dll
 0001:0008FD10       aGdiplus_dll
 0001:0008FD28       aD3d11_dll
 0001:0008FD3C       aNotifyservices
 0001:0008FD58       aRegdisablerefl
 0001:0008FD70       aRegenablerefle
 0001:0008FD88       aRegqueryreflec
 0001:0008FDA0       aBcryptdestroyk
 0001:0008FDB4       aBcryptencrypt
 0001:0008FDC4       aBcryptexportke
 0001:0008FDD4       aBcryptgenerate
 0001:0008FDF0       aBcryptimportke
 0001:0008FE04       aBcryptsetprope
 0001:0008FE18       aBcryptverifysi
 0001:0008FE30       aClosedecompres
 0001:0008FE44       aCreatedecompre
 0001:0008FE58       aDecompress
 0001:0008FE64       aRoactivateinst
 0001:0008FE78       aRogetactivatio
 0001:0008FE90       aRoinitialize
 0001:0008FEA0       aRooriginateerr
 0001:0008FEB4       aRouninitialize
 0001:0008FEC4       aWindowscreates
 0001:0008FED8       aWindowscreat_0
 0001:0008FEF8       aWindowsdeletes
 0001:0008FF0C       aWindowsgetstri
 0001:0008FF28       aWindowsstringh
 0001:0008FF48       aCertaddencoded
 0001:0008FF6C       aCertclosestore
 0001:0008FF7C       aCertdeletecert
 0001:0008FF9C       aCertenumcertif
 0001:0008FFB8       aCertfindcertif
 0001:0008FFD4       aCertfreecertif
 0001:0008FFF0       aCertgetcertifi
 0001:00090014       aCertgetnamestr
 0001:00090028       aCertnametostrw
 0001:00090038       aCertopenstore
 0001:00090048       aCertstrtonamew
 0001:00090058       aCertverifycert
 0001:0009007C       aCryptdecodeobj
 0001:00090090       aCryptimportpub
 0001:000900AC       aCryptmsgclose
 0001:000900BC       aCryptmsggetpar
 0001:000900D0       aCryptqueryobje
 0001:000900E4       aCryptstringtob
 0001:000900FC       aD3d11createdev
 0001:00090110       aDnsfree
 0001:00090118       aDnsgetcachedat
 0001:00090130       aDnsquery_w
 0001:0009013C       aCreatedxgifact
 0001:00090150       aCreatedxgifa_0
 0001:00090164       aFilterfindclos
 0001:00090174       aFilterfindfirs
 0001:00090184       aFilterfindnext
 0001:00090194       aDeletedc
 0001:000901A0       aGdiplusshutdow
 0001:000901B0       aGetadaptersadd
 0001:000901C8       aGetbestinterfa
 0001:000901DC       aGetextendedtcp
 0001:000901F0       aGetextendedudp
 0001:00090204       aAcquiresrwlo_0
 0001:0009021C       aComparestringo
 0001:00090234       aFindfirstfilen
 0001:00090248       aFindnextfilena
 0001:0009025C       aGetfinalpathna
 0001:00090278       aGetfirmwaree_0
 0001:00090298       aGetfirmwaree_1
 0001:000902BC       aGetproductinfo
 0001:000902CC       aGetthreadid
 0001:000902D8       aGetthreadinfor
 0001:000902F0       aInitializeproc
 0001:00090314       aK32enumpagefil
 0001:00090328       aK32enumprocess
 0001:00090340       aK32enumproce_0
 0001:00090354       aK32getmappedfi
 0001:0009036C       aK32getmoduleba
 0001:00090384       aK32getmodulefi
 0001:0009039C       aK32getmodulein
 0001:000903B4       aK32getprocessi
 0001:000903D0       aK32getprocessm
 0001:000903E8       aK32queryworkin
 0001:00090400       aPrefetchvirtua
 0001:00090418       aReleasesrwlo_0
 0001:00090430       aSetprocessinfo
 0001:00090448       aSetthreadinfor
 0001:00090460       aUpdateprocthre
 0001:0009047C       aApplydeltaw
 0001:00090488       aNcryptcreatepe
 0001:000904A4       aNcryptexportke
 0001:000904B4       aNcryptfinalize
 0001:000904C8       aNcryptfreeobje
 0001:000904DC       aNcryptgetprope
 0001:000904F0       aNcryptimportke
 0001:00090500       aNcryptopenstor
 0001:0009051C       aNcryptsetprope
 0001:00090530       aNcryptsignhash
 0001:00090540       aNetapibufferfr
 0001:00090554       aNetgetjoininfo
 0001:0009056C       aPowersettingre
 0001:00090590       aPowersettingun
 0001:000905B4       aEnumpagefilesw
 0001:000905C4       aEnumprocessmod
 0001:000905D8       aGetmappedfilen
 0001:000905EC       aGetmodulebasen
 0001:00090600       aGetmoduleinfor
 0001:00090618       aGetprocessimag
 0001:00090634       aQueryworkingse
 0001:00090648       aNdrservercall2
 0001:00090658       aRpcbindingbind
 0001:00090668       aRpcbindingcrea
 0001:0009067C       aRpcbindingvect
 0001:00090694       aRpcepregisterw
 0001:000906A4       aRpcserverinqbi
 0001:000906BC       aRpcserverliste
 0001:000906CC       aRpcserverregis
 0001:000906E4       aRpcserverusepr
 0001:000906FC       aCm_free_log_co
 0001:00090714       aCm_free_res_de
 0001:0009072C       aCm_get_first_l
 0001:00090744       aCm_get_next_re
 0001:00090758       aCm_get_res_des
 0001:0009076C       aCm_get_res_d_0
 0001:00090788       aSetupdidestroy
 0001:000907A8       aSetupdienumdev
 0001:000907C0       aSetupdigetclas
 0001:000907D8       aSetupdigetdevi
 0001:000907F4       aShloadindirect
 0001:0009080C       aUrlgetpartw
 0001:00090818       aUrlunescapew
 0001:00090828       aGetsystemmetri
 0001:0009083C       aCreateappconta
 0001:00090858       aDeleteappconta
 0001:00090874       aDeriveappconta
 0001:000908A0       aExpandenvironm
 0001:000908C4       aCryptcatadmina
 0001:000908E0       aCryptcatadminc
 0001:00090904       aCryptcatadmine
 0001:00090928       aCryptcatadminr
 0001:0009094C       aCryptcatadmi_0
 0001:00090968       aCryptcatcatalo
 0001:00090988       aWthelpergetpro
 0001:000909A8       aWthelpergetp_0
 0001:000909C8       aWthelperprovda
 0001:000909E8       aWinverifytrust
 0001:000909F8       aWofshouldcompr
 0001:00090A14       aFreeaddrinfow
 0001:00090A24       aGetaddrinfow
 0001:00090A34       aInetntopw
 0001:00090A40       aWsaaddresstost
 0001:00090A54       aNtohs
 0001:00090A5C       aCheckdeveloper
 0001:00090A74       aWtsenumeratese
 0001:00090A8C       aWtsfreememory
 0001:00090A9C       aWtsquerysessio
 0001:00090AB8       aWtsqueryuserto
 0001:00090ACC       aEnumprocesses
 0001:00090ADC       aGetmodulefilen
 0001:00090AF4       aGetprocessmemo
 0001:00090B0C       aForwarders
 0001:00090B28       aKernel32_dll_1
 0001:00090D44       aMscoree_dll_0
 0001:00090D5C       aCorexitprocess
 0001:00090D70       aApiMsWinCoreDa
 0001:00090DB0       aApiMsWinCoreFi
 0001:00090DEC       aApiMsWinCore_0
 0001:00090E28       aApiMsWinCoreLo
 0001:00090E70       aApiMsWinCore_1
 0001:00090ED0       aApiMsWinCorePr
 0001:00090F1C       aApiMsWinCoreSt
 0001:00090F58       aApiMsWinCore_2
 0001:00090F94       aApiMsWinCore_3
 0001:00090FD4       aApiMsWinCoreWi
 0001:00091010       aApiMsWinCoreXs
 0001:00091050       aApiMsWinRtcore
 0001:000910A0       aApiMsWinSecuri
 0001:000910F8       aExtMsWinNtuser
 0001:00091140       aExtMsWinNtus_0
 0001:00091190       aKernel32_0
 0001:000911A4       aNtdll_0
 0001:000911B0       aApiMsWinAppmod
 0001:000911F8       aUser32
 0001:00091208       aApiMs
 0001:00091218       aExtMs
 0001:00091264       aGetdateformate
 0001:00091288       aGettimeformate
 0001:000912C0       aLcidtolocalena
 0001:000912DC       aLocalenametolc
 0001:000912FC       aApppolicygetpr
 0001:00091328       aApppolicygetth
 0001:00091350       aSunday
 0001:00091358       aMonday
 0001:00091360       aTuesday
 0001:00091368       aWednesday
 0001:00091374       aThursday
 0001:00091380       aFriday
 0001:00091388       aSaturday
 0001:00091394       aJanuary
 0001:0009139C       aFebruary
 0001:000913A8       aMarch
 0001:000913B0       aApril
 0001:000913B8       aJune
 0001:000913C0       aJuly
 0001:000913C8       aAugust
 0001:000913D0       aSeptember
 0001:000913DC       aOctober
 0001:000913E4       aNovember
 0001:000913F0       aDecember
 0001:000913FC       aAm
 0001:00091400       aPm
 0001:00091404       aMmDdYy
 0001:00091410       aDdddMmmmDdYyyy
 0001:00091424       aHhMmSs
 0001:00091430       aSun
 0001:00091438       aMon
 0001:00091440       aTue
 0001:00091448       aWed
 0001:00091450       aThu
 0001:00091458       aFri
 0001:00091460       aSat
 0001:00091468       aSunday_0
 0001:00091478       aMonday_0
 0001:00091488       aTuesday_0
 0001:00091498       aWednesday_0
 0001:000914AC       aThursday_0
 0001:000914C0       aFriday_0
 0001:000914D0       aSaturday_0
 0001:000914E4       aJan
 0001:000914EC       aFeb
 0001:000914F4       aMar
 0001:000914FC       aApr
 0001:00091504       aMay
 0001:0009150C       aJun
 0001:00091514       aJul
 0001:0009151C       aAug
 0001:00091524       aSep
 0001:0009152C       aOct
 0001:00091534       aNov
 0001:0009153C       aDec
 0001:00091544       aJanuary_0
 0001:00091554       aFebruary_0
 0001:00091568       aMarch_0
 0001:00091574       aApril_0
 0001:00091580       aJune_0
 0001:0009158C       aJuly_0
 0001:00091598       aAugust_0
 0001:000915A8       aSeptember_0
 0001:000915BC       aOctober_0
 0001:000915CC       aNovember_0
 0001:000915E0       aDecember_0
 0001:000915F4       aAm_0
 0001:000915FC       aPm_0
 0001:00091604       aMmDdYy_0
 0001:00091618       aDdddMmmmDdYy_0
 0001:00091640       aHhMmSs_0
 0001:000916D8       aLc_all
 0001:000916E8       aLc_collate
 0001:00091700       aLc_ctype
 0001:00091714       aLc_monetary
 0001:0009172C       aLc_numeric
 0001:00091744       aLc_time
 0001:0009175C       a___1
 0001:00091F70       aAmerican
 0001:00091F84       aAmericanEnglis
 0001:00091FA8       aAmericanEngl_0
 0001:00091FCC       aAustralian
 0001:00091FE4       aBelgian
 0001:00091FF4       aCanadian
 0001:00092008       aChh
 0001:00092010       aChi
 0001:00092018       aChinese
 0001:00092028       aChineseHongkon
 0001:0009204C       aChineseSimplif
 0001:00092074       aChineseSingapo
 0001:00092098       aChineseTraditi
 0001:000920C0       aDutchBelgian
 0001:000920DC       aEnglishAmerica
 0001:00092100       aEnglishAus
 0001:00092118       aEnglishBelize
 0001:00092138       aEnglishCan
 0001:00092150       aEnglishCaribbe
 0001:00092174       aEnglishIre
 0001:0009218C       aEnglishJamaica
 0001:000921AC       aEnglishNz
 0001:000921C4       aEnglishSouthAf
 0001:000921F0       aEnglishTrinida
 0001:00092224       aEnglishUk
 0001:0009223C       aEnglishUs
 0001:00092254       aEnglishUsa
 0001:0009226C       aFrenchBelgian
 0001:0009228C       aFrenchCanadian
 0001:000922AC       aFrenchLuxembou
 0001:000922D0       aFrenchSwiss
 0001:000922EC       aGermanAustrian
 0001:0009230C       aGermanLichtens
 0001:00092334       aGermanLuxembou
 0001:00092358       aGermanSwiss
 0001:00092374       aIrishEnglish
 0001:00092390       aItalianSwiss
 0001:000923AC       aNorwegian
 0001:000923C0       aNorwegianBokma
 0001:000923E4       aNorwegianNynor
 0001:00092408       aPortugueseBraz
 0001:00092434       aSpanishArgenti
 0001:00092458       aSpanishBolivia
 0001:00092478       aSpanishChile
 0001:00092494       aSpanishColombi
 0001:000924B8       aSpanishCostaRi
 0001:000924E0       aSpanishDominic
 0001:00092518       aSpanishEcuador
 0001:00092538       aSpanishElSalva
 0001:00092560       aSpanishGuatema
 0001:00092584       aSpanishHondura
 0001:000925A8       aSpanishMexican
 0001:000925C8       aSpanishModern
 0001:000925E8       aSpanishNicarag
 0001:0009260C       aSpanishPanama
 0001:0009262C       aSpanishParagua
 0001:00092650       aSpanishPeru
 0001:0009266C       aSpanishPuertoR
 0001:00092694       aSpanishUruguay
 0001:000926B4       aSpanishVenezue
 0001:000926D8       aSwedishFinland
 0001:000926F8       aSwiss
 0001:00092704       aUs
 0001:0009270C       aUsa
 0001:00092714       aAmerica
 0001:00092724       aBritain
 0001:00092734       aChina
 0001:00092740       aCzech
 0001:0009274C       aEngland
 0001:0009275C       aGreatBritain
 0001:00092778       aHolland
 0001:00092788       aHongKong
 0001:0009279C       aNewZealand
 0001:000927B4       aNz
 0001:000927BC       aPrChina_0
 0001:000927D0       aPrChina
 0001:000927E4       aPuertoRico
 0001:000927FC       aSlovak
 0001:0009280C       aSouthAfrica
 0001:00092828       aSouthKorea
 0001:00092840       aSouthAfrica_0
 0001:0009285C       aSouthKorea_0
 0001:00092874       aTrinidadTobago
 0001:00092898       aUnitedKingdom
 0001:000928B8       aUnitedStates
 0001:000928DC       aAcp
 0001:000928E4       aOcp
 0001:00092900       aConout
 0001:00092910       aBadException
 0001:00092920       a__based
 0001:0009292C       a__cdecl
 0001:00092934       a__pascal
 0001:00092940       a__stdcall
 0001:0009294C       a__thiscall
 0001:00092958       a__fastcall
 0001:00092964       a__vectorcall
 0001:00092974       a__clrcall
 0001:00092980       a__eabi
 0001:00092988       a__ptr64
 0001:00092990       a__restrict
 0001:0009299C       a__unaligned
 0001:000929A8       aNew
 0001:000929B0       aDelete_1
 0001:00092A1C       aVftable
 0001:00092A28       aVbtable
 0001:00092A34       aVcall
 0001:00092A3C       aTypeof
 0001:00092A48       aLocalStaticGua
 0001:00092A60       aString_4
 0001:00092A6C       aVbaseDestructo
 0001:00092A80       aVectorDeleting
 0001:00092AA0       aDefaultConstru
 0001:00092AC0       aScalarDeleting
 0001:00092AE0       aVectorConstruc
 0001:00092B00       aVectorDestruct
 0001:00092B20       aVectorVbaseCon
 0001:00092B44       aVirtualDisplac
 0001:00092B60       aEhVectorConstr
 0001:00092B84       aEhVectorDestru
 0001:00092BA4       aEhVectorVbaseC
 0001:00092BCC       aCopyConstructo
 0001:00092BE8       aUdtReturning
 0001:00092BF8       aEh
 0001:00092BFC       aRtti
 0001:00092C04       aLocalVftable
 0001:00092C14       aLocalVftableCo
 0001:00092C38       aNew_0
 0001:00092C40       aDelete_4
 0001:00092C4C       aOmniCallsig
 0001:00092C5C       aPlacementDelet
 0001:00092C78       aPlacementDel_0
 0001:00092C98       aManagedVectorC
 0001:00092CC0       aManagedVectorD
 0001:00092CE8       aEhVectorCopyCo
 0001:00092D10       aEhVectorVbas_0
 0001:00092D3C       aDynamicInitial
 0001:00092D58       aDynamicAtexitD
 0001:00092D7C       aVectorCopyCons
 0001:00092DA0       aVectorVbaseCop
 0001:00092DCC       aManagedVecto_0
 0001:00092DF8       aLocalStaticThr
 0001:00092E14       aOperator_0
 0001:00092E24       aOperatorCo_awa
 0001:00092E38       aTypeDescriptor
 0001:00092E4C       aBaseClassDescr
 0001:00092E68       aBaseClassArray
 0001:00092E7C       aClassHierarchy
 0001:00092E9C       aCompleteObject
 0001:00092EB8       aCv
 0001:00092EC0       aTemplateParame
 0001:00092ED4       aGenericType
 0001:00092EE8       aAnonymousNames
 0001:00092F04       aNonTypeTemplat
 0001:00092F24       aVoid
 0001:00092F2C       aTemplatePara_0
 0001:00092F40       aTemplateTypePa
 0001:00092F5C       aGenericClassPa
 0001:00092F78       aGenericMethodP
 0001:00092F9C       aVtordispex
 0001:00092FAC       aVtordisp
 0001:00092FB8       aAdjustor
 0001:00092FC4       aLocalStaticDes
 0001:00092FE8       aTemplateStatic
 0001:0009301C       aTemplateStat_0
 0001:0009304C       aStatic
 0001:00093054       aVirtual
 0001:00093060       aPrivate
 0001:0009306C       aProtected
 0001:00093078       aPublic
 0001:00093084       aThunk
 0001:00093090       aExternC
 0001:000930A0       aChar_1
 0001:000930A8       aShort_0
 0001:000930B0       aInt_0
 0001:000930B8       aLong_0
 0001:000930C0       aUnsigned
 0001:000930CC       aVoid_1
 0001:000930D4       aVolatile
 0001:000930E0       aStdNullptr_t
 0001:000930F0       aStdNullptr_t_0
 0001:00093100       aEllipsis
 0001:0009310C       a___
 0001:00093114       aEllipsis_0
 0001:00093120       aThrow_1
 0001:00093128       aShort
 0001:00093130       aInt
 0001:00093134       aLong
 0001:0009313C       aFloat
 0001:00093144       aDouble_0
 0001:0009314C       aBool
 0001:00093154       a__int8
 0001:0009315C       a__int16
 0001:00093164       a__int32
 0001:0009316C       a__int64
 0001:00093174       a__int128
 0001:00093180       aChar16_t
 0001:0009318C       aChar32_t
 0001:00093198       aWchar_t
 0001:000931A0       a__w64
 0001:000931A8       aSigned
 0001:000931B0       aVolatile_0
 0001:000931BC       aUnknownEcsu
 0001:000931CC       aUnion_0
 0001:000931D4       aStruct
 0001:000931DC       aClass_0
 0001:000931E4       aCoclass
 0001:000931F0       aCointerface
 0001:00093200       aEnum
 0001:00093208       aVolatile_1
 0001:00093214       aConst
 0001:00093224       aCliArray
 0001:00093230       aCliPin_ptr
 0001:00093244       aFlat
 0001:0009324C       aFor
 0001:00093254       aS_16
 0001:00093258       a??_2
 0001:000932A8       aApiMsWinCoreSy
 0001:00093390       aHHhhXwpwpp
 0001:00093D78       aMinkernelCrtsU
 0001:00093DE0       a__crt_strtoxFl
 0001:00093E3C       a_is_double
 0001:00093E58       a__crt_strtox_0
 0001:00093EB4       a_is_double_0
 0001:00093F5C       aIty
 0001:00093F68       aIty_0
 0001:00093F88       aInity
 0001:00093F91       aNity
 0001:00093FA4       aAn
 0001:00093FB0       aAn_0
 0001:00093FBC       aDInd
 0001:00093FE8       aInity_0
 0001:00093FF1       aNity_0
 0001:00094018       aAmPm
 0001:00094024       aAP
 0001:00094030       aNan_0
 0001:00094034       aNan_1
 0001:00094038       aNanSnan
 0001:00094044       aNanSnan_0
 0001:00094050       aNanInd
 0001:0009405C       aNanInd_0
 0001:00094068       aE000
 0001:00094070       aCcs
 0001:00094078       aUtf8
 0001:00094084       aUtf16leunicode
 0001:000940C0       aLog10_0
 0001:000940C8       aSinh
 0001:000940D0       aCosh
 0001:000940D8       aTanh
 0001:000940E0       aFabs
 0001:000940E8       aModf
 0001:000940F0       aLdexp
 0001:000940F8       a_cabs
 0001:00094100       a_hypot
 0001:00094108       aFmod
 0001:00094110       aFrexp
 0001:00094118       a_y0
 0001:0009411C       a_y1
 0001:00094120       a_yn
 0001:00094124       a_logb
 0001:0009412C       a_nextafter
 0001:000941E0       aLog10
 0001:00094C98       aNull_1
 0001:00094CB8       aEventwrite
 0001:00094CC4       aMpengine_dll_0
 0001:00094CE0       aE
 0001:00094FC0       aAdvapi32
 0001:00094FD4       aSenseenabled
 0001:00094FF0       aFilelowfiasync
 0001:00095000       aBmfileinfo
 0001:0009500C       aBmprocessinfo
 0001:0009501C       aFolderguardpat
 0001:00095030       aBackupprocessi
 0001:00095044       aRansomwaredete
 0001:0009505C       aSystemfileca_1
 0001:0009506C       aDynsigrevision
 0001:0009507C       aSystemregistry
 0001:00095090       aBmfilestartupa
 0001:000950A8       aProcessblockhi
 0001:000950BC       aSdnex
 0001:000950C4       aTrustedinstall
 0001:000950DC       aVectorTTooLong
 0001:000950F0       aListTTooLong
 0001:00095104       aStringTooLong
 0001:00095134       aDescription
 0001:00095140       aUtilwidecharfr
 0001:00095160       aStdMapEmplaceF
 0001:0009517C       aHipsLuaFunctio
 0001:000951B0       aGetruleinfo
 0001:000951BC       aGetmonitoredlo
 0001:000951D4       aGetpathexclusi
 0001:000951E8       aGetpathinclusi
 0001:000951FC       aTrue_0
 0001:00095208       aFalse_0
 0001:00095214       aDisabled
 0001:00095228       aEnabled
 0001:0009523C       aAudit
 0001:0009524C       aUnknown_4
 0001:00095260       aMapSetTTooLong
 0001:000953A4       aInvalidStringP
 0001:000953BC       aUnknown_1
 0001:000953C8       aGetquery
 0001:000953D4       aGetremove
 0001:000953E0       aSetremove
 0001:000953EC       aSetinsert
 0001:000953F8       aPropagatequery
 0001:00095408       aPropagateinser
 0001:00095428       a_VfzP
 0001:00095440       aError_1
 0001:00095464       aThreattracki_6
 0001:000954A0       aThreattracki_7
 0001:000954DC       aLowfiDetection
 0001:000954F8       aMpisstreamscan
 0001:00095508       aMpiscreateproc
 0001:00095520       aMpdisablecac_0
 0001:00095534       aPacked_withWs
 0001:00095544       aOriginalsigseq
 0001:0009555C       aFile
 0001:00095568       a1
 0001:0009556C       aSigshaWs
 0001:00095578       aOriginalsha1S
 0001:00095588       aOriginalsizeI6
 0001:0009559C       aOriginalsha256
 0001:000955B0       aPartialcrc10x0
 0001:000955C4       aPartialcrc20x0
 0001:000955D8       aPartialcrc30x0
 0001:000955EC       aFilesizeI64d
 0001:000955FC       aScanmodeS
 0001:00095608       a0x016i64x
 0001:00095614       aWs_2
 0001:00095618       aAllsigseqsS
 0001:00095628       aAllsigshasS
 0001:00095638       aExtendedkcrcsS
 0001:0009564C       aSha2S
 0001:00095654       aNufs_
 0001:0009565C       aContainertypeS
 0001:00095670       aMprescannodete
 0001:00095684       aMpnonpiifilety
 0001:00095698       aResfiletypeD
 0001:000956A8       aMpautolowfityp
 0001:000956B8       aMprequerycloud
 0001:000956C8       aMpdisablelowfi
 0001:000956E0       aSupressedLowfi
 0001:00095704       aFailedToComput
 0001:00095720       aT0x08lx
 0001:0009572C       aSD
 0001:00095734       aCD
 0001:0009573C       aInvalid
 0001:00095750       a0x08lx08lx
 0001:00095760       aMpmaxrtsdbatch
 0001:00095788       aMpmaxrtsdcount
 0001:000957A8       aMpisfastpathre
 0001:000957BC       aUrlWs
 0001:000957C4       aClassifierscor
 0001:000957DC       aClassifiersc_0
 0001:000957F4       aCrc160x08lx
 0001:00095804       aHitcountI64d
 0001:00095814       aFilechanged02x
 0001:00095828       aTelemetryonlyD
 0001:0009583C       aCtphS
 0001:00095844       aLshashS
 0001:00095850       aLshashsS
 0001:0009585C       aSignerWs
 0001:00095868       aIssuerWs
 0001:00095874       aSignerhashWs
 0001:00095884       aIssuerhashWs
 0001:00095894       aPublisherWs
 0001:000958A4       aAuthenticodeha
 0001:000958BC       aFilequeryonlyD
 0001:000958D0       aRtpprocessname
 0001:000958E4       aEnghipscpyBloc
 0001:00095914       aEnghipscpyBl_0
 0001:0009594C       aThreatcontextW
 0001:00095960       aDetectedS
 0001:00095978       aMpmoacfriend_0
 0001:00095990       aRpfcleaningsta
 0001:000959A8       aRpffunctionret
 0001:000959EC       aUnpack_dir
 0001:00095A04       a_02idS_runp
 0001:00095A24       a?_4
 0001:00095A48       aPea_aggressi_0
 0001:00095A60       aPea_skip_unimp
 0001:00095A7C       aPea_disable_mi
 0001:00095A94       aPea_disable_th
 0001:00095AB8       aPea_deep_apica
 0001:00095AD0       aPea_dynmem_sel
 0001:00095AF0       aPea_reads_vdll
 0001:00095B14       aExclusion
 0001:00095B20       aPerfHint
 0001:00095B2C       aLogSkip
 0001:00095B38       aTrustedContent
 0001:00095B48       aTrustedSource
 0001:00095B58       aProtectionDisa
 0001:00095B6C       aQuickFilter
 0001:00095B7C       aNoTriggerMatch
 0001:00095B90       aDeferredScanni
 0001:00095BAC       aVir
 0001:00095BB4       aUfsException
 0001:00095BC4       aUnsupported_un
 0001:00095C18       aExpensiveConta
 0001:00095C90       aMpmoaccontaine
 0001:00095CAC       aMpdisabletru_0
 0001:00095CE8       aBm_mz_file
 0001:00095CF4       aMpamsiattribut
 0001:00095D10       aJscript
 0001:00095D20       aVbscript_0
 0001:00095D34       aPowershell_
 0001:00095D4C       aStream_attribu
 0001:00095D78       aStream_attri_0
 0001:00095DA4       aRequestieblock
 0001:00095DBC       aRequestieblo_0
 0001:00095DD0       aFramehtml
 0001:00095DDC       aEmbedhtml
 0001:00095DE8       aMpdisableconta
 0001:00095E10       aMpdisabletrust
 0001:00095E54       aWall
 0001:00095E5C       aContext_data_
 0001:00095F00       aBrutePdfFeatur
 0001:00095F14       aBruteJsFeature
 0001:00095F28       aBruteVbsFeatur
 0001:00095F3C       aAttrPath
 0001:00095F48       aMl
 0001:00095F4C       aPea_
 0001:00095F8C       aMparchivepas_0
 0001:00095FA0       aDequeTTooLong
 0001:00095FB4       aPartition_0
 0001:00095FFC       aNufs_native
 0001:00096008       a??Unc
 0001:0009602C       aNufs_strm
 0001:00096048       aNufs_svfohigh
 0001:00096058       aNufs_svfolow
 0001:00096068       aNull_3
 0001:00096080       aSighipscpy
 0001:00096098       aEnghipscpy
 0001:000960B0       aNufs_vfz
 0001:000960CC       aMpdisableoploc
 0001:00096100       aM_pcontextGeti
 0001:00096140       aAmcoreMpeng_31
 0001:00096180       aByteposFilterd
 0001:0009619C       aAmcoreMpengi_5
 0001:000961D4       aM_offsetM_size
 0001:000961E8       aAmcoreMpengi_6
 0001:0009621C       aM_buffer
 0001:00096228       aAmcoreMpeng_18
 0001:00096264       aAggrecidDword1
 0001:0009627C       aSignature_type
 0001:0009629C       aSignature_ty_0
 0001:00096304       aSignature_ty_1
 0001:00096328       aSignature_ty_3
 0001:00096344       aSignature_ty_2
 0001:0009636C       aSignature_ty_5
 0001:00096388       aSignature_ty_4
 0001:000963A0       aSignature_ty_7
 0001:000963C0       aSignature_ty_6
 0001:000963F0       aSignature_ty_8
 0001:00096410       aSignature_t_10
 0001:0009642C       aSignature_ty_9
 0001:00096444       aSignature_t_12
 0001:00096460       aSignature_t_11
 0001:00096478       aSignature_t_14
 0001:00096494       aSignature_t_13
 0001:000964AC       aSignature_t_16
 0001:000964C8       aSignature_t_15
 0001:00096500       aSignature_t_17
 0001:00096520       aSignature_t_19
 0001:0009653C       aSignature_t_18
 0001:0009655C       aSignature_t_21
 0001:0009657C       aSignature_t_20
 0001:000965B4       aSignature_t_22
 0001:000965EC       aSignature_t_23
 0001:00096608       aSignature_t_24
 0001:00096634       aSignature_t_26
 0001:00096650       aSignature_t_25
 0001:000966A4       aSignature_t_28
 0001:000966BC       aSignature_t_27
 0001:000966D4       aSignature_t_30
 0001:000966EC       aSignature_t_29
 0001:00096700       aSignature_t_32
 0001:0009671C       aSignature_t_31
 0001:0009677C       aSignature_t_33
 0001:00096794       aSignature_t_35
 0001:000967B4       aSignature_t_34
 0001:000967D0       aSignature_t_37
 0001:000967EC       aSignature_t_36
 0001:00096824       aSignature_t_38
 0001:0009683C       aSignature_t_39
 0001:00096870       aSignature_t_41
 0001:00096890       aSignature_t_40
 0001:000968C4       aSignature_t_42
 0001:000968E8       aSignature_t_43
 0001:00096920       aSignature_t_45
 0001:00096938       aSignature_t_44
 0001:00096954       aSignature_t_47
 0001:00096970       aSignature_t_46
 0001:00096988       aSignature_t_49
 0001:000969A0       aSignature_t_48
 0001:000969BC       aSignature_t_51
 0001:000969D8       aSignature_t_50
 0001:00096A40       aSignature_t_52
 0001:00096A5C       aSignature_t_54
 0001:00096A78       aSignature_t_53
 0001:00096A90       aSignature_t_56
 0001:00096AB0       aSignature_t_55
 0001:00096AC8       aSignature_t_58
 0001:00096AEC       aSignature_t_57
 0001:00096B10       aSignature_t_60
 0001:00096B2C       aSignature_t_59
 0001:00096B4C       aSignature_t_62
 0001:00096B6C       aSignature_t_61
 0001:00096B90       aSignature_t_64
 0001:00096BA8       aSignature_t_63
 0001:00096BF4       aSignature_t_66
 0001:00096C0C       aSignature_t_65
 0001:00096C28       aSignature_t_67
 0001:00096C58       aSignature_t_69
 0001:00096C78       aSignature_t_68
 0001:00096C98       aSignature_t_71
 0001:00096CB4       aSignature_t_70
 0001:00096CE8       aSignature_t_72
 0001:00096D3C       aSignature_t_73
 0001:00096D74       aSignature_t_75
 0001:00096D90       aSignature_t_74
 0001:00096DA8       aSignature_t_77
 0001:00096DC0       aSignature_t_76
 0001:00096DDC       aSignature_t_79
 0001:00096DFC       aSignature_t_78
 0001:00096E68       aSignature_t_80
 0001:00096E88       aSignature_t_82
 0001:00096EA4       aSignature_t_81
 0001:00096EC0       aSignature_t_84
 0001:00096EDC       aSignature_t_83
 0001:00096F0C       aSignature_t_85
 0001:00096F38       aSignature_t_86
 0001:00096F54       aSignature_t_88
 0001:00096F74       aSignature_t_87
 0001:00096F90       aSignature_t_90
 0001:00096FB0       aSignature_t_89
 0001:00096FC8       aSignature_t_92
 0001:00096FE8       aSignature_t_91
 0001:00097004       aSignature_t_93
 0001:00097048       aSignature_t_95
 0001:00097064       aSignature_t_94
 0001:000970A0       aSignature_t_96
 0001:000970B8       aSignature_t_98
 0001:000970D0       aSignature_t_97
 0001:000971FC       aAmcoreMpengi_3
 0001:0009723C       aPc
 0001:00097240       aPresmgrctx
 0001:00097250       aExpand_user_pr
 0001:00097298       aNullRes
 0001:000972A4       aNullPc
 0001:000972B0       aLenSizeofWchar
 0001:0009731C       aSrc
 0001:00097320       aCchsrc0
 0001:0009732C       aType_0
 0001:00097348       aErrorCode
 0001:00097360       aRtpscanreason
 0001:0009737C       aI64u
 0001:00097388       aRtpprocessna_0
 0001:000973A8       aVectorBoolTooL
 0001:000973C0       aAlnum
 0001:000973C8       aCntrl
 0001:000973D0       aGraph
 0001:000973D8       aPunct
 0001:000973E0       aSpace
 0001:000973E8       aXdigit
 0001:000973F0       aBadLocaleName
 0001:00097400       aBadCast
 0001:0009740C       aBug10146551
 0001:00097428       aQueuecontrol_1
 0001:00097470       aQueuenotificat
 0001:000974A4       aNrionforproces
 0001:000974C4       aPcYQr9psTbxegp
 0001:000974D6       aA_11
 0001:000974D8       aRtition
 0001:000974E8       aILQwCrrDIQ
 0001:000974FA       aU_6
 0001:000974FC       aEuecontrollerS
 0001:00097578       aQueuecontrol_0
 0001:000975C8       aQueuecontrolle
 0001:00097610       aProcessconte_1
 0001:00097678       aMpdisablebmrem
 0001:000976A8       aMpnritelemetry
 0001:000976D0       aMpdisablewow64
 0001:000976F0       aMpdisablebmetw
 0001:00097710       aMpdisablenriex
 0001:00097748       aMpbmetweventli
 0001:0009776C       aMpdisablebme_0
 0001:000977A0       aMpbmqueuesize
 0001:000977BC       aMpdisablebmlog
 0001:000977E4       aMpdisablestart
 0001:00097818       aMpdisableadvre
 0001:00097864       aMpdisablewmico
 0001:00097898       aMpdisablebmdes
 0001:000978C0       aMpbmscavengerd
 0001:000978E8       aMponlycfadllfr
 0001:00097934       aMpbmterminated
 0001:0009796C       aMpbmidlescaven
 0001:00097998       aMpmaxsyncproce
 0001:000979C0       aMpbmdisabletai
 0001:000979FC       aMpmaxfdrduplic
 0001:00097A34       aMpmaxprocessed
 0001:00097A6C       aMpmaxbmspynetb
 0001:00097AA0       aMpmaxlargefdrd
 0001:00097AE0       aMpbmmaxrelated
 0001:00097B08       aMpdisablebmpro
 0001:00097B2C       aMpbmmaxlargefd
 0001:00097B68       aMpbmmaxfdrnoti
 0001:00097B98       aMpdisableopenp
 0001:00097BD4       aMpdisablebmope
 0001:00097C08       aMpdisabledll_0
 0001:00097C58       aMpdisabledllfr
 0001:00097CA0       aMpdisablecfaon
 0001:00097CD8       aMpdisabledll_1
 0001:00097D24       aMpdisablesedeb
 0001:00097D58       aMpdisableproce
 0001:00097D98       aLocal
 0001:00097DA4       aRemote
 0001:00097DB4       aLu
 0001:00097DBC       a0
 0001:00097DC0       aAccessrights
 0001:00097DDC       aSyslogclr
 0001:00097DF0       aSeclogclr
 0001:00097E04       aOperationmetho
 0001:00097E2C       aApplogclr
 0001:00097E40       aWin32_0
 0001:00097E4C       aKernelaudit
 0001:00097E64       aThreatintel
 0001:00097E7C       aBlock
 0001:00097E88       aKernelfileio
 0001:00097EA4       aWmievent
 0001:00097F38       aProcesscreate
 0001:00097F68       aFlightDataReco
 0001:00097FB0       aProcesscontext
 0001:0009800C       aBug10258948
 0001:00098028       aProcessqueuePu
 0001:00098050       aProcessconte_0
 0001:000980BC       aEop
 0001:000980C8       aNotificationit
 0001:0009810C       aHollow2
 0001:0009811C       aHollow1
 0001:0009812C       aSedebugeop1
 0001:00098144       aSedebugeop
 0001:0009815C       aEopint
 0001:0009816C       aInitialint
 0001:00098184       aCmd
 0001:0009818C       aIntegrityenum
 0001:000981A8       aNrionforremote
 0001:000981D4       aNA_1
 0001:000981DC       aRegistry
 0001:000981F0       aNriontriggered
 0001:00098210       aInjection
 0001:00098224       aStart
 0001:00098230       aCreate_0
 0001:00098240       aTerminate
 0001:00098254       aDelete
 0001:00098264       aChange
 0001:00098274       aBlockset
 0001:00098288       aSet_0
 0001:00098290       aBlockrename
 0001:000982A8       aBlockdelete
 0001:000982C0       aBlockrestore
 0001:000982DC       aBlockreplace
 0001:000982F8       aRename
 0001:00098308       aBlockcreate
 0001:00098320       aReplace
 0001:00098330       aAntirootkitdet
 0001:0009835C       aOpen_0
 0001:00098368       aRestore
 0001:00098378       aProcess_2
 0001:00098388       aUnknown_0
 0001:00098398       aNetwork
 0001:000983A8       aFile_3
 0001:000983B4       aAntirootkit
 0001:000983CC       aSystem_1
 0001:000983DC       aEtw
 0001:000983E4       aDesktopmount
 0001:00098400       aNetworkdetecti
 0001:00098424       aVolumemount
 0001:0009843C       aRemotethreadcr
 0001:00098464       aFileopen
 0001:00098478       aModuleload
 0001:00098490       aBootrecordchan
 0001:000984B4       aDriverload
 0001:000984EC       aOperatorCalled
 0001:00098518       aSrcipSSrcportU
 0001:00098590       aFolderguardtar
 0001:000985BC       aRootkit
 0001:000985FC       aFolderguardt_0
 0001:00098628       aAudit_0
 0001:00098634       aBlock_0
 0001:00098640       aUnknown_7
 0001:00098650       aCfaNotificatio
 0001:00098678       aProcessWsActio
 0001:000986E0       aFdrTriggeredfd
 0001:000986F8       aImagepath
 0001:0009870C       aUnknown_6
 0001:0009873C       aBmeventlogpath
 0001:0009875C       aNotificationli
 0001:00098780       aSEvents_S_U_Ws
 0001:000987B0       a08x04x04x02x_2
 0001:00098814       aSNotifications
 0001:00098854       aEventlist
 0001:00098864       aMissingData
 0001:00098884       aSEvent_S_U_Ws_
 0001:000988B4       aNotification
 0001:000988D0       aShortname
 0001:000988E8       aEventDomainWsT
 0001:00098948       aEventDomainW_0
 0001:0009898C       aFilename
 0001:000989A0       aFoldername
 0001:000989B8       aFileNameS
 0001:000989CC       aFileNameSSho_0
 0001:000989F0       aFileNameSOld_0
 0001:00098A20       aFileNameSOldna
 0001:00098A64       aFileNameSOld_1
 0001:00098A98       aEventDomainW_1
 0001:00098ADC       aOldname
 0001:00098AEC       aFileNameSOld_2
 0001:00098B0C       aFileNameSShort
 0001:00098B44       aShortoldname
 0001:00098B60       aOpenapplicatio
 0001:00098B80       aFileNameSOpena
 0001:00098BA8       aPssetloadimage
 0001:00098BE0       aImagename_0
 0001:00098BF4       aTerminatepro_0
 0001:00098C18       aRegisterinputd
 0001:00098C44       aSeteventhook
 0001:00098C60       aSetthreadcon_0
 0001:00098C84       aNtadjustprivil
 0001:00098CAC       aAccessrights_1
 0001:00098CC8       aWritememory
 0001:00098CE0       aRegisterlastsh
 0001:00098D0C       aOpenthread
 0001:00098D24       aCreatelink
 0001:00098D3C       aRegistershutdo
 0001:00098D60       aTargetname
 0001:00098D78       aSourcename
 0001:00098D90       aCveid
 0001:00098D9C       aBlockexploit
 0001:00098DB8       aCodeinjection
 0001:00098DD4       aExploitmode
 0001:00098DEC       aSetwindowshook
 0001:00098E0C       aInjectiontyp_0
 0001:00098E28       aHooktype_0
 0001:00098E3C       aModulepath
 0001:00098E54       aProcessname
 0001:00098E6C       aGetasynckeysta
 0001:00098E90       aDirenum
 0001:00098EA0       aAllocvmlocal
 0001:00098EBC       aLogtype_0
 0001:00098ECC       aClearlog
 0001:00098EE0       aWmicaller_0
 0001:00098EF4       aWmiactivitynew
 0001:00098F14       aWmiexecmethod
 0001:00098F30       aDetectionlist
 0001:00098F44       aBm_createfile
 0001:00098F60       aDetectionProce
 0001:00098FEC       aBm_renamefile
 0001:00099008       aBm_changefile
 0001:00099024       aBm_openfile
 0001:0009903C       aBm_deletefile
 0001:00099058       aBm_registrykey
 0001:00099084       aBm_filemetadat
 0001:000990A4       aBm_registryk_1
 0001:000990D0       aBm_registryk_0
 0001:000990FC       aBm_registrydel
 0001:0009912C       aBm_registryset
 0001:00099154       aBm_registryb_0
 0001:00099184       aBm_registryblo
 0001:000991AC       aBm_registryrep
 0001:000991D4       aBm_registryres
 0001:000991FC       aBm_registryb_2
 0001:0009922C       aBm_registryb_1
 0001:0009925C       aBm_registryb_4
 0001:0009928C       aBm_registryb_3
 0001:000992BC       aBm_remotethrea
 0001:000992E8       aBm_bootsectorc
 0001:00099310       aBm_processcrea
 0001:00099334       aBm_rawwrite
 0001:0009934C       aBm_networkdete
 0001:00099374       aBm_processstar
 0001:00099394       aBm_moduleload
 0001:000993B0       aBm_ardetection
 0001:000993D0       aBm_blockopenpr
 0001:000993F8       aBm_openprocess
 0001:00099418       aBm_etw_pssetlo
 0001:00099460       aBm_engineinter
 0001:00099484       aBm_etw_seteven
 0001:000994AC       aBm_etw_termina
 0001:000994DC       aBm_etw_ntadjus
 0001:00099510       aBm_etw_registe
 0001:00099548       aBm_etw_writeme
 0001:00099570       aBm_etw_setthre
 0001:000995A0       aBm_etw_openthr
 0001:000995C4       aBm_etw_openpro
 0001:000995EC       aBm_etw_regis_1
 0001:0009961C       aBm_etw_regis_0
 0001:00099654       aBm_volumemount
 0001:00099674       aBm_etw_createl
 0001:00099698       aBm_etw_codeinj
 0001:000996C4       aBm_desktop
 0001:000996DC       aBm_etw_direnum
 0001:000996FC       aBm_etw_allocvm
 0001:00099724       aBm_etw_getasyn
 0001:00099754       aBm_etw_setwind
 0001:00099780       aBm_etw_clearlo
 0001:000997A0       aBm_etw_blockex
 0001:000997C8       aBm_etw_wmiexec
 0001:000997F4       aBm_etw_wmiacti
 0001:00099820       aHs_0
 0001:0009982C       aA_0
 0001:00099830       a0xX
 0001:0009983C       aLWs
 0001:00099850       aErrorWhileProc
 0001:000998B8       a0Ws__attr_none
 0001:00099900       aErrorWhilePr_0
 0001:00099978       a016i64x_1
 0001:00099984       aEtwevent
 0001:00099998       aOpenprocess
 0001:000999C8       aInformationalB
 0001:00099A38       aId
 0001:00099A40       aPidUI64u
 0001:00099A5C       aThreats
 0001:00099A6C       aBmbasefile
 0001:00099A84       aBmresource
 0001:00099A9C       aBmremediationb
 0001:00099AD4       aBmflags
 0001:00099AE4       aBmremediatio_1
 0001:00099B20       aBmremediatio_0
 0001:00099B5C       aBmremediations
 0001:00099B9C       aBmremediationc
 0001:00099BDC       aBehavior
 0001:00099BF0       aInternalbehavi
 0001:00099C14       aCollectedData
 0001:00099C64       aAppdataRoaming
 0001:00099C88       aMicrosoftWin_0
 0001:00099CB0       aDocumentsAnd_0
 0001:00099CE8       aDocumentsAndSe
 0001:00099D30       aProcesspeattri
 0001:00099D60       aProcess_deep_a
 0001:00099D8C       aWs_3
 0001:00099D94       aProcess_hstr_e
 0001:00099DC4       aProcess_enable
 0001:00099DF4       aThread
 0001:00099E04       aTidUPidU
 0001:00099E20       aDriver
 0001:00099E30       aBoot
 0001:00099E3C       aWmi
 0001:00099E44       aWmiinstancepat
 0001:00099E6C       aEms
 0001:00099E74       aPpids
 0001:00099E84       aRegkeyvalue
 0001:00099E9C       aWsWs_3
 0001:00099EC0       a?xmlVersion1_0
 0001:00099F20       a0x016i64x_0
 0001:00099F3C       aBug16178142
 0001:00099F58       aMergingFdrFrom
 0001:00099FCC       aSmsscan
 0001:00099FDC       aXbacevent
 0001:0009A000       aElfile
 0001:0009A010       aFolder_0
 0001:0009A020       aHiddenfile
 0001:0009A038       aSha1
 0001:0009A044       aIsNot
 0001:0009A054       aIs
 0001:0009A05C       aClean
 0001:0009A068       aRemove
 0001:0009A078       aWebfileurl
 0001:0009A090       aWebfilebrowser
 0001:0009A0B0       aWebfileip
 0001:0009A0C4       aThreattracking
 0001:0009A0E8       aAgent
 0001:0009A0F4       aCheckpoint
 0001:0009A110       aMpdisablednsca
 0001:0009A160       a016i64x
 0001:0009A174       aThreatid
 0001:0009A188       aSigseq
 0001:0009A198       aSuspicious_0
 0001:0009A1A4       aInfected
 0001:0009A1B0       aRmstartsession
 0001:0009A1C0       aRmregisterreso
 0001:0009A1D4       aRmendsession
 0001:0009A1E4       aRmgetlist
 0001:0009A1F0       aStartup_2
 0001:0009A200       aResmgr_file
 0001:0009A20C       aTaskschedule_2
 0001:0009A228       aResmgr_startup
 0001:0009A238       aFilelocalcop_0
 0001:0009A254       aResmgr_tasksch
 0001:0009A26C       aResmgr_fileloc
 0001:0009A284       aResmgr_elamfil
 0001:0009A294       aResmgr_webfile
 0001:0009A2A4       aResmgr_contain
 0001:0009A2BC       aContainerfile
 0001:0009A2D8       aResmgr_queryfi
 0001:0009A2F0       aQueryfilertsig
 0001:0009A310       aResmgr_query_0
 0001:0009A328       aQueryfilehoo_0
 0001:0009A34C       aResmgr_sampl_0
 0001:0009A368       aSamplefilereca
 0001:0009A390       aSamplefilehidd
 0001:0009A3B4       aResmgr_hiddenf
 0001:0009A3C8       aSamplefilesubm
 0001:0009A3FC       aResmgr_sampl_1
 0001:0009A414       aSamplefileelam
 0001:0009A43C       aResmgr_sampl_2
 0001:0009A45C       aNcfile_0
 0001:0009A46C       aResmgr_sampl_3
 0001:0009A488       aTransactionf_0
 0001:0009A4A8       aResmgr_ncfile
 0001:0009A4B8       aResmgr_transac
 0001:0009A4D0       a_Native
 0001:0009A4F8       aFile_1
 0001:0009A500       aFolder
 0001:0009A508       aResmgr_folder
 0001:0009A528       aResmgr_rootk_0
 0001:0009A538       aFilename_0
 0001:0009A54C       aSamplefileroot
 0001:0009A570       aResmgr_samplef
 0001:0009A58C       aRootkittelemet
 0001:0009A5B0       aResmgr_rootkit
 0001:0009A5C8       aResmgr_ems
 0001:0009A5D4       aM_obj
 0001:0009A5DC       aAmcoreMpeng_33
 0001:0009A614       aAmcoreMpengi_2
 0001:0009A648       aVname
 0001:0009A650       aNposG_debugi_0
 0001:0009A674       aNullptrAretAre
 0001:0009A69C       aMp_enable_rklo
 0001:0009A6BC       aKtabHcachedwri
 0001:0009A6D8       aKtabHcacheInva
 0001:0009A700       aMpavdlta_vdm_0
 0001:0009A710       aMpasdlta_vdm_0
 0001:0009A720       aMpasbase_vdm_0
 0001:0009A730       aMpavbase_vdm_0
 0001:0009A740       aMpinternal_vdm
 0001:0009A750       a_bin
 0001:0009A75C       aUsingOfflineCa
 0001:0009A790       aMp_offline_sto
 0001:0009A7C4       aMpcache
 0001:0009A7D8       aMpcache_bin
 0001:0009A7F8       aCreatingOfflin
 0001:0009A834       aDatabase
 0001:0009A848       aReadofflinecac
 0001:0009A860       aIsautosubmitDI
 0001:0009A998       aKlcidDKosversi
 0001:0009AA58       aProductDProduc
 0001:0009AB58       aIsembeddedDIsi
 0001:0009ACA8       aKtabCreatingof
 0001:0009ACC4       aHfileInvalid_h
 0001:0009ACE4       aKtabexists
 0001:0009ACF0       aDynamicconfigf
 0001:0009AD08       aPreCfg
 0001:0009AD18       aComplete
 0001:0009AD24       aInitializeclea
 0001:0009AD3C       aHipscompletein
 0001:0009AD58       aEngineShouldBe
 0001:0009ADA4       aWldpquerywindo
 0001:0009ADC4       aPreE
 0001:0009ADD0       aAuto_sample_op
 0001:0009AE10       aMpsevilleenabl
 0001:0009AE30       aEReserved1Engi
 0001:0009AE78       aError
 0001:0009AE80       aMpenablepusrem
 0001:0009AEA8       aMpcontinueonde
 0001:0009AED4       aNullptrKtabWsz
 0001:0009AEF0       aMpenablepus
 0001:0009AF08       aMpcloudblockle
 0001:0009AF2C       aMpenabletest
 0001:0009AF48       aMpenablemba
 0001:0009AF60       a0Globalcfg_get
 0001:0009AF78       aAuto_sample__0
 0001:0009AFC0       aDataszSizeof_1
 0001:0009AFDC       aDataszSizeofMp
 0001:0009B000       aDataszSizeofSc
 0001:0009B024       aDataszSizeof_0
 0001:0009B048       aPexclusionda_0
 0001:0009B070       aDataNullptr
 0001:0009B080       aDataNull
 0001:0009B090       aPexclusiondata
 0001:0009B0BC       aDataszSizeof_2
 0001:0009B0EC       aDataszSizeof_3
 0001:0009B11C       aDataszSizeofSm
 0001:0009B150       aDataszSizeofTp
 0001:0009B174       aElam
 0001:0009B180       aContent
 0001:0009B190       aDataszSizeofEn
 0001:0009B1B8       aData
 0001:0009B1C0       aG_xbaclockNull
 0001:0009B1D8       aTcg
 0001:0009B1E0       aSuspicious_log
 0001:0009B200       aPsyncinfoDwver
 0001:0009B21C       aMachineWs
 0001:0009B238       aEngine
 0001:0009B248       aUnexpectedSync
 0001:0009B27C       aThreattracki_8
 0001:0009B2AC       aPersist_0
 0001:0009B2B4       aS0x016i64xSSSS
 0001:0009B2D4       aSamplereq_0
 0001:0009B2E0       a8f8336b805154c
 0001:0009B330       aWsS0x016i64xSS
 0001:0009B34C       aInitializeEngi
 0001:0009B36C       aUnknown_signat
 0001:0009B3A0       aWritesize
 0001:0009B3AC       aPreScanstreami
 0001:0009B3C8       aV
 0001:0009B3CC       aReadsize
 0001:0009B3D8       aPidU
 0001:0009B3E8       aExtendedstream
 0001:0009B410       aPidNa
 0001:0009B420       aSigversion
 0001:0009B438       aType_1
 0001:0009B444       aSucceededHr
 0001:0009B770       a5@i@cloxmqy
 0001:0009B8A4       aAmcoreMpengi_4
 0001:0009B8D8       aMp_force_use_s
 0001:0009B904       aMp_force_use_a
 0001:0009B928       aGktabOrecsMark
 0001:0009B944       aB
 0001:0009B948       aKtabHcachedw_0
 0001:0009B95C       aG_recidranges
 0001:0009B96C       aTmp
 0001:0009B970       aAmcoreMpengi_7
 0001:0009B9B4       aRevision
 0001:0009B9C8       aSamplerate
 0001:0009B9E0       aIndex_1
 0001:0009B9EC       aAmcoreMpeng_12
 0001:0009BA1C       aPspynetinputPs
 0001:0009BA44       aU_U_U_U
 0001:0009BA5C       a0_0_0_0
 0001:0009BA6C       aDownload
 0001:0009BA80       aInstall
 0001:0009BA90       aDetect
 0001:0009BAA0       aUUUUUU
 0001:0009BAC8       aHklmSoftware_1
 0001:0009BB6C       aLastsuccesstim
 0001:0009BB8C       aLasterror
 0001:0009BBA0       aUtctime
 0001:0009BBB0       aErr
 0001:0009BBB8       aPelement
 0001:0009BBC4       aWut_m_strkeyna
 0001:0009BC04       aWindowsupdates
 0001:0009BC30       aProgram_filesI
 0001:0009BC90       aPreport
 0001:0009BC98       aEnablelua
 0001:0009BCAC       aConsentpromptb
 0001:0009BCE4       aIever
 0001:0009BCF0       aSoftwareMic_30
 0001:0009BD64       aI64d
 0001:0009BD70       aUacluaenable
 0001:0009BD8C       aConsentpromp_0
 0001:0009BDC0       aPromptonsecure
 0001:0009BDEC       aUacdesktopprom
 0001:0009BE10       aIsmsftinternal
 0001:0009BE30       aUacconsentadmi
 0001:0009BE50       aUacconsentuser
 0001:0009BE70       aMachineid
 0001:0009BE84       aMachinesqmid
 0001:0009BEA0       aIssqmtest
 0001:0009BEB4       aSoftwareMic_24
 0001:0009BEF0       aUefisecurebo_0
 0001:0009BF1C       aPolicypublishe
 0001:0009BF3C       aIstest
 0001:0009BF50       aSystemCurren_1
 0001:0009BFB8       aSoftwareMic_26
 0001:0009C020       aVersiontorepor
 0001:0009C040       a0cdad82eD83947
 0001:0009C090       aUefisecureboot
 0001:0009C0BC       aOfficeversion
 0001:0009C0D8       aBuildlabex
 0001:0009C0F0       aSoftwareMic_27
 0001:0009C160       aSoftwareMic_28
 0001:0009C194       aInvalidValue
 0001:0009C1B0       aOsbuildlab
 0001:0009C1C8       aValidation
 0001:0009C1E0       aOn
 0001:0009C1E8       aSnoozing
 0001:0009C1FC       aLocalipaddress
 0001:0009C21C       aBmisonBmissnoo
 0001:0009C238       aRtpstatebitfie
 0001:0009C25C       aRtpisonRtpissn
 0001:0009C278       aOaisonOaissnoo
 0001:0009C294       aBmhresult
 0001:0009C2A8       aIsbeta
 0001:0009C2B8       aRtphresult
 0001:0009C2D0       aOahresult
 0001:0009C2E4       aPvpring
 0001:0009C2F4       a08lx
 0001:0009C300       aGradualrelease
 0001:0009C320       aCampgradualrel
 0001:0009C348       aNriengineversi
 0001:0009C36C       aNrisigversion
 0001:0009C388       aComputerdnsnam
 0001:0009C3B0       aMembership
 0001:0009C3C8       aMapsreportguid
 0001:0009C3E8       aMapsclientlate
 0001:0009C40C       aMapshresult
 0001:0009C424       aMapshttpstatus
 0001:0009C444       aMapsparselaten
 0001:0009C468       aMapscreateconn
 0001:0009C49C       aMapsgeneratela
 0001:0009C4C4       aMapssendlatenc
 0001:0009C4E4       aMapssendurlatt
 0001:0009C50C       aMapsreceiveres
 0001:0009C53C       aMapssendreques
 0001:0009C564       aMapssendoverhe
 0001:0009C590       aMapsonresolved
 0001:0009C5C0       aMapsonconnecti
 0001:0009C5EC       aMapsonsendstar
 0001:0009C614       aMapsonresolvin
 0001:0009C644       aMapsonfirstrec
 0001:0009C678       aMapsonsendendt
 0001:0009C69C       aMapsonconnecte
 0001:0009C6C4       aMapsonfirstsen
 0001:0009C6F4       aMapsreadrespon
 0001:0009C720       aMapslatency
 0001:0009C738       aSoftwarePoli_5
 0001:0009C790       aSmartscreenena
 0001:0009C7B8       aExistsnotset
 0001:0009C7D4       aEnablesmartscr
 0001:0009C7F8       aSoftwareMic_29
 0001:0009C860       aEnabledv9
 0001:0009C878       aSoftwareMic_25
 0001:0009C8E0       aSmartscreen
 0001:0009C8F8       aSoftwarePoli_4
 0001:0009C974       aAvsubmit
 0001:0009C988       aIesmartscreen
 0001:0009C9A4       aPassivemode
 0001:0009C9BC       aIssxspassivemo
 0001:0009C9E0       aDefaultconsent
 0001:0009CA00       aWerconsentvalu
 0001:0009CA20       aIssevilleenabl
 0001:0009CA44       aSenseguid_0
 0001:0009CA58       aIspassivemode
 0001:0009CA78       aSoftwareMic_31
 0001:0009CADC       aNodeid
 0001:0009CAEC       aAzurenodeid
 0001:0009CB08       aSoftwareAzureh
 0001:0009CB48       aSoftwareMic_21
 0001:0009CBB0       aVmtype
 0001:0009CBC0       aVirtualmachine
 0001:0009CBE8       aSoftwareMic_19
 0001:0009CC48       aSoftwareMic_20
 0001:0009CC8C       aXmlns
 0001:0009CC98       aAzurevirtualma
 0001:0009CCC8       aAntimalwareser
 0001:0009CD20       aPszproductguid
 0001:0009CD3C       aProductguid
 0001:0009CD54       aPszmachineguid
 0001:0009CD70       aMachineguid
 0001:0009CD88       aAvsigversion
 0001:0009CDA4       aOsver
 0001:0009CDB0       aAppversion_0
 0001:0009CDC8       aAssigversion
 0001:0009CDE4       aOstype_0
 0001:0009CDF4       aSmode
 0001:0009CE00       aOsbuild
 0001:0009CE10       aOssuite
 0001:0009CE20       aOrgid
 0001:0009CE2C       aPwrapperNullpt
 0001:0009CE40       aCioptions
 0001:0009CE54       aEngineversio_0
 0001:0009CE70       aEngineloadtime
 0001:0009CE90       aOsproducttype
 0001:0009CEAC       aProcessor
 0001:0009CEC0       aIsmanaged
 0001:0009CED4       aGeoid
 0001:0009CEE0       aLcid
 0001:0009CEEC       aPuamode
 0001:0009CEFC       aWuuniqueid
 0001:0009CF14       aSupportedcompr
 0001:0009CF40       aAutosampleopti
 0001:0009CF6C       aCloudblockleve
 0001:0009CF8C       aStudyid
 0001:0009CF9C       aRtpstate
 0001:0009CFB0       aAunotification
 0001:0009CFD0       a08i64x
 0001:0009CFE0       aWscservice
 0001:0009CFF8       aFirewall
 0001:0009D00C       aAvstate
 0001:0009D01C       aEnabled_1
 0001:0009D02C       aUptodate
 0001:0009D040       aAvproduct
 0001:0009D054       aName_0
 0001:0009D060       aTpmuniqueid
 0001:0009D078       aPbrdata
 0001:0009D088       aProduct
 0001:0009D098       aState
 0001:0009D0A4       aServicestate
 0001:0009D0C0       aTestsigningsta
 0001:0009D0E4       aWdolastrun
 0001:0009D0FC       aOsupgraded
 0001:0009D114       aOsmetrics
 0001:0009D128       aSpynetreport
 0001:0009D144       aIdent
 0001:0009D158       aHklmSoftware_0
 0001:0009D1D0       aAmsi
 0001:0009D1DC       aAmsiuac
 0001:0009D1EC       aEnginereportgu
 0001:0009D210       aScenario
 0001:0009D224       aThreattracki_9
 0001:0009D248       aPthreatNumbero
 0001:0009D264       aGetbond
 0001:0009D274       aPthreat
 0001:0009D27C       aPthreatResourc
 0001:0009D294       aNullptrPreport
 0001:0009D2A8       aCollectiontype
 0001:0009D2C8       aBond
 0001:0009D2D4       aEtypeCpctypert
 0001:0009D314       aTotalfilecount
 0001:0009D334       aFirstfiletime
 0001:0009D350       aExpensivefilec
 0001:0009D378       aNotfoundcount
 0001:0009D394       aReportlimit
 0001:0009D3AC       aPwrapper
 0001:0009D3B8       aLastfiletime
 0001:0009D3D4       aSelectionrate
 0001:0009D3F0       aPublisher
 0001:0009D404       aDesc
 0001:0009D410       aPath_0
 0001:0009D41C       aHashedpath
 0001:0009D434       aIssuer_0
 0001:0009D444       aIssuerhash
 0001:0009D45C       aOriginalname
 0001:0009D478       aVersion_0
 0001:0009D488       aAuthenticode_2
 0001:0009D4B0       a08i64x_0
 0001:0009D4C0       aSigner
 0001:0009D4D0       aSignerhash
 0001:0009D4E8       aKcrc3
 0001:0009D4F4       aKcrc3n
 0001:0009D504       aKcrc1
 0001:0009D510       aKcrc2
 0001:0009D51C       aNewfiletype
 0001:0009D534       aCreationtime_0
 0001:0009D550       aTimestampuint
 0001:0009D56C       aMarkoftheweb
 0001:0009D588       aClassification
 0001:0009D5A8       aCurliterSzurl_
 0001:0009D5C8       aPetype
 0001:0009D5D8       aPearch
 0001:0009D5E8       aSucceededHrloc
 0001:0009D5FC       aControlguid
 0001:0009D614       aStreamurl
 0001:0009D628       aFrameurl
 0001:0009D63C       aContentsha256
 0001:0009D658       aDeepscan
 0001:0009D66C       aControlversion
 0001:0009D68C       aContentsha1
 0001:0009D6A4       aRuleid
 0001:0009D6B4       aIsaudit
 0001:0009D6C4       aHipsdata_hipsd
 0001:0009D6E4       aAsrreport
 0001:0009D6F8       aParentpath
 0001:0009D710       aTargetpath
 0001:0009D728       aAction
 0001:0009D738       aInheritancefla
 0001:0009D75C       aMd5
 0001:0009D764       aSha256
 0001:0009D774       aRuletype
 0001:0009D788       aHipsdata_hip_0
 0001:0009D7B0       aSigsha
 0001:0009D7C0       aFilesize
 0001:0009D7D4       aThreattracki_1
 0001:0009D800       aThreattracki_2
 0001:0009D828       aThreattracki_3
 0001:0009D850       aThreattracki_4
 0001:0009D87C       aThreattracki_5
 0001:0009D8B0       aDwspflagsSpyne
 0001:0009D900       aMp_scansourc_0
 0001:0009D930       aNullptrNodePbo
 0001:0009D960       aSampleSubmissi
 0001:0009D9B8       aHold
 0001:0009D9C4       aSampleRequestH
 0001:0009D9EC       aRequestguid
 0001:0009DA04       aSampleRequestR
 0001:0009DA3C       aTtl
 0001:0009DA44       aSampleRequestT
 0001:0009DA6C       aBlobsasuri
 0001:0009DA84       aSampleRequestS
 0001:0009DAB8       aSampleSubmis_0
 0001:0009DB10       aAzsubmitSample
 0001:0009DB80       aCompression
 0001:0009DB98       aSampleRequestC
 0001:0009DBD0       aInternalFailur
 0001:0009DC40       aRequestHasMiss
 0001:0009DC98       aInternalFail_0
 0001:0009DCFC       aNullptrRGet_fi
 0001:0009DD20       aFalseAdvancedS
 0001:0009DD6C       aNullptrPsztrue
 0001:0009DD88       aInternalFail_1
 0001:0009DDF0       aFailureInitial
 0001:0009DE40       aEligibleResour
 0001:0009DEA8       aSpynetreportre
 0001:0009DED4       aSampleRate
 0001:0009DEEC       aSubmitspynet_0
 0001:0009DF20       a0NoSpynetRepor
 0001:0009DF6C       aSignaturepatch
 0001:0009DF8C       aSamplereques_0
 0001:0009DFA8       aXor
 0001:0009DFB0       aDeflatelevel1x
 0001:0009DFD4       aXorDeflateleve
 0001:0009E020       aMpdisablepersi
 0001:0009E078       aAmcoreMpengi_0
 0001:0009E0AC       aBeginResourceS
 0001:0009E0D4       aBeginQuickScan
 0001:0009E0F8       aBeginCustomSca
 0001:0009E11C       aBeginFullScan
 0001:0009E13C       aScanId
 0001:0009E14C       aScanSource
 0001:0009E164       aBeginUnknownTy
 0001:0009E19C       aStartTime
 0001:0009E1B4       aKnownFile
 0001:0009E1CC       aExtendedInfo
 0001:0009E1E8       aEndTime
 0001:0009E1FC       aShortlogMpthre
 0001:0009E238       aThreatName
 0001:0009E250       aIdentifier
 0001:0009E268       aResultCount
 0001:0009E284       aUnknownFile
 0001:0009E2A0       aNumberOfResour
 0001:0009E2C8       aId_0
 0001:0009E2D0       aSeverity
 0001:0009E2E4       aEndScan
 0001:0009E318       aWebscript
 0001:0009E32C       aInternalwebscr
 0001:0009E350       aInternalbootsy
 0001:0009E37C       aQueryfileboots
 0001:0009E3A0       aQueryfilewebsc
 0001:0009E3C8       aBootsyncblock
 0001:0009E3E4       aInternalamsi
 0001:0009E400       aInternalamsiua
 0001:0009E420       aQueryfileamsiu
 0001:0009E444       aQueryfileamsi
 0001:0009E460       aQueryfilegenst
 0001:0009E488       aIoavstream
 0001:0009E4A0       aGenstream
 0001:0009E4B4       aInternalgenstr
 0001:0009E4D8       aInternalioavst
 0001:0009E500       aQueryfileioavs
 0001:0009E528       aMpdisableoffli
 0001:0009E574       aMpdisableerror
 0001:0009E5B0       aMpdisablepaide
 0001:0009E5F8       aMpdisableenhan
 0001:0009E638       aMpdisabledefen
 0001:0009E688       aMpdisableunins
 0001:0009E6C8       aMpheartbeatcon
 0001:0009E6F8       aMpdisablemapsd
 0001:0009E740       aMpdisablesetup
 0001:0009E788       aMpdisableteste
 0001:0009E7C8       aMpdisablempsig
 0001:0009E814       aMpmapsheartbea
 0001:0009E840       aMpenhancedma_0
 0001:0009E878       aMpofflineenhan
 0001:0009E8C0       aMpmapsheartb_0
 0001:0009E8E8       aMpenhancedmaps
 0001:0009E928       aMpmapsheartb_2
 0001:0009E968       aMpofflineenh_0
 0001:0009E9B0       aMppaidenhanced
 0001:0009E9F8       aMpmapsheartb_3
 0001:0009EA3C       aHttp
 0001:0009EA48       aAmcoreMpeng_13
 0001:0009EA7C       aTrackinginfo
 0001:0009EA98       aTrackingstartt
 0001:0009EABC       a0BogusSchemaId
 0001:0009EAEC       aThreattracki_0
 0001:0009EB2C       aNcalrpc
 0001:0009EB40       aErrorFailedToC
 0001:0009EB94       aMpenginedb_db
 0001:0009EBB0       aDAGrAuAGrIuAGr
 0001:0009ECF0       aKernel_0
 0001:0009ECF8       aDetection
 0001:0009ED04       aTrigger_0
 0001:0009ED3C       aForwardersWs
 0001:0009ED5C       aRtlntstatustod
 0001:0009ED88       a23456789abcd_0
 0001:0009EDA9       a123456789abcde
 0001:0009EDBC       aLt
 0001:0009EDC8       aQuot
 0001:0009EDD8       aAmp
 0001:0009EDE4       aGt
 0001:0009EDF0       aBcryptcreateha
 0001:0009EE04       aBcryptgetprope
 0001:0009EE18       aBcryptdestroyh
 0001:0009EE2C       aCrypthashdata
 0001:0009EE3C       aCryptdestroyha
 0001:0009EE50       aCryptcreatehas
 0001:0009EE60       aCryptgenrandom
 0001:0009EE70       aCryptreleaseco
 0001:0009EE84       aCryptacquireco
 0001:0009EE9C       aCryptgethashpa
 0001:0009EEE0       aCancelsynchron
 0001:0009EF14       aInterlockeddec
 0001:0009EF2C       aIllFormedRegul
 0001:0009EF4C       aTooManyAlterna
 0001:0009EF80       aExpectingEnd_0
 0001:0009EF9C       aBadExtensionSe
 0001:0009EFB4       aTypeErrorInHet
 0001:0009EFD0       aInvalidConditi
 0001:0009EFE4       aQuotemetaTurne
 0001:0009F014       aIncompleteEsca
 0001:0009F034       aMismatchedPare
 0001:0009F04C       aCanTDoNMWithNM
 0001:0009F068       aQuantifierNotE
 0001:0009F080       aExpectingEndOf
 0001:0009F0A0       aInvalidRangeSp
 0001:0009F8D8       aBadFunctionCal
 0001:0009F8F0       aRegex_errorE_0
 0001:0009F948       aRegex_errorErr
 0001:0009F9A0       aRegex_errorE_4
 0001:0009F9E8       aRegex_errorE_3
 0001:0009FA30       aRegex_errorE_2
 0001:0009FA80       aRegex_errorE_1
 0001:0009FAE8       aRegex_errorE_8
 0001:0009FB58       aRegex_errorE_7
 0001:0009FBC8       aRegex_errorE_6
 0001:0009FC28       aRegex_errorE_5
 0001:0009FC70       aRegex_error_12
 0001:0009FC90       aRegex_error_11
 0001:0009FD28       aRegex_error_10
 0001:0009FDA8       aRegex_errorE_9
 0001:0009FE04       aRegex_error
 0001:0009FE10       aRegex_error_13
 0001:0009FE2C       aGeneric
 0001:0009FE38       aUnknownError
 0001:0009FE4C       aDeviceHarddi_6
 0001:0009FE70       aKvbn
 0001:0009FE78       aInvalidinterva
 0001:0009FE98       aAms_deinit
 0001:0009FEA4       aImplementation
 0001:0009FEBC       aAms_searchpatt
 0001:0009FED0       aAms_init
 0001:0009FEDC       aAms_setparams
 0001:0009FEEC       aAms_loadpatter
 0001:0009FF00       aPea_invalid_ap
 0001:0009FF48       aVmmGrowWasEnab
 0001:0009FF98       aDeepAnalysisWa
 0001:0009FFF0       aExhaustiveHstr
 0001:000A0050       aApiLimitWasDis
 0001:000A00A8       aSehLimitWasDis
 0001:000A012C       aBad_weak_ptr
 0001:000A013C       a64
 0001:000A0140       a32
 0001:000A0144       aModule_08i64x_
 0001:000A0184       aPe_unknown_dam
 0001:000A019C       aPe_unknown_err
 0001:000A01B4       aNullptr
 0001:000A01D8       aRingfileinfo
 0001:000A01F8       aRfileinfo
 0001:000A025C       aZeromemory
 0001:000A0284       aU_0
 0001:000A028C       a64bit
 0001:000A0294       a32bit
 0001:000A029C       aDifferentPoint
 0001:000A0300       aMpdisablemoacs
 0001:000A0318       aFriendlyfilePu
 0001:000A0334       aBuiltinFriendl
 0001:000A0368       aBuiltinStatic_
 0001:000A03B8       aFriendlyfileAl
 0001:000A03F4       aBm_mpisinsta_0
 0001:000A0414       aBuiltinMptrust
 0001:000A0448       aBm_mpisinsta_1
 0001:000A0468       aBuiltinMplinke
 0001:000A04C9       aOnst
 0001:000A04D4       aTryingToCastAN
 0001:000A050C       aTryingToCastFr
 0001:000B9090       aMdMdMdMdMdMdMd
 0001:000B90C4       aMdMdMdMdMdMd_0
 0001:000B90F0       aMdMdMd
 0001:000B9130       aMdMdMdMd
 0001:000B91E0       aMdMdMdMdMdMd
 0001:000B9200       aMdMdMdMdMdMd_1
 0001:000BC9FC       aJAjAjAjAjAjAjA
 0001:000BCA34       aJAjAjAjAjAjA_0
 0001:000BCA60       aJAjA
 0001:000BCA70       aJAjAjA
 0001:000BCA80       aJA
 0001:000BCA9C       aJAjAjAjA
 0001:000BCAC0       aJA_0
 0001:000BCB4C       aJAjAjAjAjAjA
 0001:000C0020       aNNNNNNNNNNNNNN
 0001:000C0094       aNNNNNNNNNNNN_0
 0001:000C050C       aWlWlWlWlWlWlWl
 0001:000C0540       aWlWlWlWlWlWl_0
 0001:000C056C       aWlWlWl
 0001:000C0580       aWlWlWl_0
 0001:000C0590       aWl
 0001:000C05AC       aWlWlWlWl
 0001:000C065C       aWlWlWlWlWlWl
 0001:000C067C       aWlWlWlWlWlWl_1
 0001:000C0854       aVhVhVhVhVhVhVh
 0001:000C0888       aVhVhVhVhVhVh_0
 0001:000C08B4       aVhVhVh
 0001:000C08C8       aVhVhVh_0
 0001:000C08D8       aVh
 0001:000C08F4       aVhVhVhVh
 0001:000C09A4       aVhVhVhVhVhVh
 0001:000C09C4       aVhVhVhVhVhVh_1
 0001:000C0A2C       aCCCCCCCCCC
 0001:000C0A58       aCCC
 0001:000C0A98       aCCCC
 0001:000C0B48       aCCCCCC
 0001:000C0B68       aCCCCCCCCCCCCC
 0001:000C1A60       aXpXpXpXpXpXpXp
 0001:000C1A94       aXpXpXpXpXpXp_0
 0001:000C1AC0       aXpXpXp
 0001:000C1B00       aXpXpXpXp
 0001:000C1BB0       aXpXpXpXpXpXp
 0001:000C1BD0       aXpXpXpXpXpXp_1
 0001:000C246C       aGVgVgVgVgVgVgV
 0001:000C2498       aGVgVgV
 0001:000C24D8       aGVgVgVgV
 0001:000C2588       aGVgVgVgVgVgV
 0001:000C34D4       aWlWlWlWlWlWl_2
 0001:000C3500       aWlWlWl_1
 0001:000C3540       aWlWlWlWl_0
 0001:000C35F0       aWlWlWlWlWlWl_3
 0001:000C3610       aWlWlWlWlWlWl_4
 0001:000C3678       aVhVhVhVhVhVh_2
 0001:000C36A4       aVhVhVh_1
 0001:000C36B8       aVhVhVh_2
 0001:000C36C8       aVh_0
 0001:000C36E4       aVhVhVhVh_0
 0001:000C3794       aVhVhVhVhVhVh_3
 0001:000C4050       aXpXpXpXpXpXp_2
 0001:000C407C       aXpXpXp_0
 0001:000C4090       aXpXpXp_1
 0001:000C40A0       aXp
 0001:000C40BC       aXpXpXpXp_0
 0001:000C40E0       aXp_0
 0001:000C416C       aXpXpXpXpXpXp_3
 0001:000C418C       aXpXpXpXpXpXp_4
 0001:000C41F4       a_m_m_m_m_m_m_m
 0001:000C4220       a_m_m_m
 0001:000C4260       a_m_m_m_m
 0001:000C4310       a_m_m_m_m_m_m
 0001:000C48D8       aZ1az1az1az1az1
 0001:000C4928       aZ1az1az1az1a_0
 0001:000C4940       aZ1a
 0001:000C4948       aZ1az1az1a
 0001:000C4958       aZ1a_0
 0001:000C4A7C       aU1U1U1U1U1U1
 0001:000C579C       aRp1Rp1Rp1Rp1Rp
 0001:000C5940       aRp1Rp1Rp1Rp1_0
 0001:000C5AE4       aRp1Rp1Rp1Rp1_1
 0001:000C5C88       aRp1Rp1Rp1Rp1_2
 0001:000C5F48       aI0I0I0I0I0I0I0
 0001:000C5F7C       aI0I0I0I0I0I0_0
 0001:000C5FA8       aI0I0I0
 0001:000C5FE8       aI0I0I0I0
 0001:000C6098       aI0I0I0I0I0I0
 0001:000C60B8       aI0I0I0I0I0I0_1
 0001:000C6B4C       aVs0Vs0Vs0Vs0Vs
 0001:000C6B8C       aVs0Vs0Vs0Vs0_0
 0001:000C6C04       aVs0
 0001:000C6C0C       aVs0Vs0
 0001:000C6CF0       aE1E1E1E1E1E1
 0001:000C6D40       aE1E1E1E1E1
 0001:000C6D58       aE1
 0001:000C6D60       aE1E1E1
 0001:000C6D70       aE1_0
 0001:000C6E94       aE1E1E1E1E1E1_0
 0001:000C6EE4       aE1E1E1E1E1_0
 0001:000C6EFC       aE1_1
 0001:000C6F04       aE1E1E1_0
 0001:000C6F14       aE1_2
 0001:000C6F20       aE1_3
 0001:000C7038       aE1E1E1E1E1E1_1
 0001:000C7088       aE1E1E1E1E1_1
 0001:000C70A0       aE1_4
 0001:000C70A8       aE1E1E1_1
 0001:000C70B8       aE1_5
 0001:000C71DC       aNd1Nd1Nd1Nd1Nd
 0001:000C7380       aNd1Nd1Nd1Nd1_0
 0001:000C73C0       aNd1Nd1
 0001:000C7524       aNd1Nd1Nd1Nd1_1
 0001:000C76C8       aNd1Nd1Nd1Nd1_2
 0001:000C786C       aNd1Nd1Nd1Nd1_3
 0001:000C7A10       aNd1Nd1Nd1Nd1_4
 0001:000C7BB4       aK81K81K81K81K8
 0001:000C7C04       aK81K81K81K81_0
 0001:000C7C1C       aK81
 0001:000C7C24       aK81K81K81
 0001:000C7C34       aP_1
 0001:000C7D58       aK81K81K81K81_1
 0001:000C7DA8       aK81K81K81K81_2
 0001:000C7DC0       aK81_0
 0001:000C7DC8       aK81K81K81_0
 0001:000C7DD8       aP_2
 0001:000C7EFC       aK81K81K81K81_3
 0001:000C7F4C       aK81K81K81K81_4
 0001:000C7F64       aK81_1
 0001:000C7F6C       aK81K81K81_1
 0001:000C7F7C       aP_3
 0001:000C9224       aM0vm0vm0vm0vm0
 0001:000C9298       aM0vm0vm0vm0v_0
 0001:000C92E4       aM0vm0vm0vm0v_1
 0001:000CC088       aWWWWWWWWWWWWWW
 0001:000CC0D4       aWWWWWWWWWWWW_0
 0001:000CC180       aWWWWWWWWWWWW_1
 0001:000CCB90       aQQQQQQQQQQQQQQ
 0001:000CCC04       aQQQQQQQQQQQQ_0
 0001:000CCC50       aQQQQQQQQQQQQ_1
 0001:000CCD60       aOA
 0001:000CCDAC       aOAoAoAoA
 0001:000CCE84       aOAoAoAoAoAoA
 0001:000CCEA0       aOAoAoAoAoAoAoA
 0001:000CCED8       aN0N0N0N0N0N0N0
 0001:000CCF4C       aN0N0N0N0N0N0_0
 0001:000CCF98       aN0N0N0N0N0N0_1
 0001:000CD0B0       aWl0Wl0Wl0Wl0Wl
 0001:000CD0DC       aWl0Wl0Wl0
 0001:000CD0F0       aWl0Wl0Wl0_0
 0001:000CD100       aWl0
 0001:000CD11C       aWl0Wl0Wl0Wl0
 0001:000CD140       aWl0_0
 0001:000CD1CC       aWl0Wl0Wl0Wl0_0
 0001:000CD1EC       aWl0Wl0Wl0Wl0_1
 0001:000CD254       aVh0Vh0Vh0Vh0Vh
 0001:000CD280       aVh0Vh0Vh0
 0001:000CD2C0       aVh0Vh0Vh0Vh0
 0001:000CD370       aVh0Vh0Vh0Vh0_0
 0001:000CD390       aVh0Vh0Vh0Vh0_1
 0001:000CFA08       aVs0Vs0Vs0Vs0_1
 0001:000CFA40       aVs0_0
 0001:000CFA48       aVs0Vs0Vs0Vs0_2
 0001:000CFAC0       aVs0_1
 0001:000CFAC8       aVs0Vs0_0
 0001:000CFB24       aXp0Xp0Xp0Xp0Xp
 0001:000CFB58       aXp0Xp0Xp0Xp0_0
 0001:000CFB84       aXp0Xp0Xp0
 0001:000CFB98       aXp0Xp0Xp0_0
 0001:000CFBA8       aXp0
 0001:000CFBC4       aXp0Xp0Xp0Xp0
 0001:000CFC74       aXp0Xp0Xp0Xp0_1
 0001:000CFC94       aXp0Xp0Xp0Xp0_2
 0001:000CFE6C       a_m0_m0_m0_m0_m
 0001:000CFEA0       a_m0_m0_m0_m0_0
 0001:000CFECC       a_m0_m0_m0
 0001:000CFEE0       a_m0_m0_m0_0
 0001:000CFEF0       a_m0
 0001:000CFF0C       a_m0_m0_m0_m0
 0001:000CFFBC       a_m0_m0_m0_m0_1
 0001:000CFFDC       a_m0_m0_m0_m0_2
 0001:000D0844       aEAeAeAeAeAeAeA
 0001:000D087C       aEAeAeAeAeAeA_0
 0001:000D08A4       aEAeAeA
 0001:000D08B8       aEAeAeA_0
 0001:000D08C8       aEA
 0001:000D08E4       aEAeAeAeA
 0001:000D0994       aEAeAeAeAeAeA
 0001:000D09B4       aEAeAeAeAeAeA_1
 0001:000D09E8       aD0vd0vd0vd0vd0
 0001:000D0A1C       aD0vd0vd0vd0v_0
 0001:000D0A48       aD0vd0vd0v
 0001:000D0A88       aD0vd0vd0vd0v
 0001:000D0B38       aD0vd0vd0vd0v_1
 0001:000D0B58       aD0vd0vd0vd0v_2
 0001:000D1448       aVs@Vs@Vs@Vs@Vs
 0001:000D1480       aVs@
 0001:000D1488       aVs@Vs@Vs@Vs@_0
 0001:000D1500       aVs@_0
 0001:000D1508       aVs@Vs@
 0001:000D1564       aJ1aj1aj1aj1aj1
 0001:000D15D8       aJ1aj1aj1aj1a_0
 0001:000D163C       aJ1aj1aj1aj1a_1
 0001:000D1654       aJ1a
 0001:000D165C       aJ1aj1aj1a
 0001:000D166C       aJ1a_0
 0001:000D16A0       aJ1aj1aj1aj1a_2
 0001:000D16D0       aJ1aj1aj1aj1a_3
 0001:000D177C       aSt1St1St1St1St
 0001:000D1858       aSt1St1St1St1_0
 0001:000D1874       aSt1St1St1St1_1
 0001:000D1920       aCl1Cl1Cl1Cl1Cl
 0001:000D19FC       aCl1Cl1Cl1Cl1_0
 0001:000D1A18       aCl1Cl1Cl1Cl1_1
 0001:000D1BA0       aF1F1F1F1F1F1
 0001:000D1BBC       aF1F1F1F1F1F1F1
 0001:000D1FB0       aOh1Oh1Oh1Oh1Oh
 0001:000D2000       aOh1Oh1Oh1
 0001:000D20A8       aOh1Oh1Oh1Oh1_0
 0001:000D2154       aOh1Oh1Oh1Oh1_1
 0001:000D224C       aOh1Oh1Oh1Oh1_2
 0001:000D22F8       aOh1Oh1Oh1Oh1_3
 0001:000D23F0       aOh1Oh1Oh1Oh1_4
 0001:000D249C       aOh1Oh1Oh1Oh1_5
 0001:000D2594       aOh1Oh1Oh1Oh1_6
 0001:000D2770       aG1G1G1G1G1G1G1
 0001:000D27E4       aG1G1G1G1G1
 0001:000D2810       aG1G1G1G1
 0001:000D28C0       aG1G1G1G1G1G1
 0001:000D28DC       aG1G1G1G1G1G1_0
 0001:000D2988       aG1G1G1G1G1_0
 0001:000D29B4       aG1G1G1G1_0
 0001:000D2A64       aG1G1G1G1G1G1_1
 0001:000D2A80       aG1G1G1G1G1G1_2
 0001:000D2B2C       aX1X1X1X1X1
 0001:000D2C08       aX1X1X1X1X1X1
 0001:000D2C24       aX1X1X1X1X1X1X1
 0001:000D2E00       aAd1Ad1Ad1Ad1Ad
 0001:000D2E74       aAd1Ad1Ad1Ad1_0
 0001:000D2F50       aAd1Ad1Ad1Ad1_1
 0001:000D2F6C       aAd1Ad1Ad1Ad1_2
 0001:000D3148       aUf0Uf0Uf0Uf0Uf
 0001:000D31BC       aUf0Uf0Uf0Uf0_0
 0001:000D3208       aUf0Uf0Uf0Uf0_1
 0001:000D3360       aD1D1D1D1D1D1D1
 0001:000D33C4       aD1D1D1D1D1
 0001:000D33DC       aD1
 0001:000D33E4       aD1D1D1
 0001:000D33F4       aD1_0
 0001:000D33FC       aD1D1
 0001:000D3428       aD1D1D1D1D1D1_0
 0001:000D3458       aD1D1D1D1D1D1_1
 0001:000D3504       aD1D1D1D1D1D1_2
 0001:000D3568       aD1D1D1D1D1_0
 0001:000D3580       aD1_1
 0001:000D3588       aD1D1D1_0
 0001:000D3598       aD1_2
 0001:000D35A0       aD1D1_0
 0001:000D35B0       aD1_3
 0001:000D35B8       aD1D1_1
 0001:000D35C4       aD1_4
 0001:000D35CC       aD1D1D1D1D1D1_3
 0001:000D35FC       aD1D1D1D1D1D1_4
 0001:000D36A8       aD1D1D1D1D1D1_5
 0001:000D370C       aD1D1D1D1D1_1
 0001:000D3724       aD1_5
 0001:000D372C       aD1D1D1_1
 0001:000D373C       aD1_6
 0001:000D3744       aD1D1_2
 0001:000D3770       aD1D1D1D1D1D1_6
 0001:000D37A0       aD1D1D1D1D1D1_7
 0001:000D384C       aL1L1L1L1L1L1L1
 0001:000D3914       aL1L1L1L1L1L1_0
 0001:000D3944       aL1L1L1L1L1L1_1
 0001:000D39F0       aL1L1L1L1L1L1_2
 0001:000D3A40       aL1L1L1
 0001:000D3AB8       aL1L1L1L1L1L1_3
 0001:000D3AE8       aL1L1L1L1L1L1_4
 0001:000D3B94       aL1L1L1L1L1L1_5
 0001:000D3C5C       aL1L1L1L1L1L1_6
 0001:000D3C8C       aL1L1L1L1L1L1_7
 0001:000D3D38       aL1L1L1L1L1L1_8
 0001:000D3E00       aL1L1L1L1L1L1_9
 0001:000D3E30       aL1L1L1L1L1L_10
 0001:000D3EDC       aL1L1L1L1L1L_11
 0001:000D3FA4       aL1L1L1L1L1L_12
 0001:000D3FD4       aL1L1L1L1L1L_13
 0001:000D4080       aL1L1L1L1L1L_14
 0001:000D4148       aL1L1L1L1L1L_15
 0001:000D4178       aL1L1L1L1L1L_16
 0001:000D4224       aI41I41I41I41I4
 0001:000D4288       aI41I41I41I41_0
 0001:000D42A0       aI41
 0001:000D42A8       aI41I41I41
 0001:000D42B8       aP_4
 0001:000D42EC       aI41I41I41I41_1
 0001:000D431C       aI41I41I41I41_2
 0001:000D43C8       aI41I41I41I41_3
 0001:000D442C       aI41I41I41I41_4
 0001:000D4444       aI41_0
 0001:000D444C       aI41I41I41_0
 0001:000D445C       aP_5
 0001:000D4490       aI41I41I41I41_5
 0001:000D44C0       aI41I41I41I41_6
 0001:000D456C       aI41I41I41I41_7
 0001:000D45D0       aI41I41I41I41_8
 0001:000D45E8       aI41_1
 0001:000D45F0       aI41I41I41_1
 0001:000D4600       aP_6
 0001:000D4634       aI41I41I41I41_9
 0001:000D4664       aI41I41I41I4_10
 0001:000D4D2C       aUf0Uf0Uf0Uf0_2
 0001:000D4DA0       aUf0Uf0Uf0Uf0_3
 0001:000D4DEC       aUf0Uf0Uf0Uf0_4
 0001:000D5074       aQ0Q0Q0Q0Q0Q0Q0
 0001:000D50E8       aQ0Q0Q0Q0Q0Q0_0
 0001:000D5134       aQ0Q0Q0Q0Q0Q0_1
 0001:000D8B84       aDa@Da@Da@Da@Da
 0001:000D8BBC       aDa@Da@Da@Da@_0
 0001:000D8C24       aDa@Da@Da@Da@
 0001:000D8CD4       aDa@Da@Da@Da@_1
 0001:000D8CF4       aDa@Da@Da@Da@_2
 0001:000D98A4       aJ80J80J80J80J8
 0001:000D98D8       aJ80J80J80J80_0
 0001:000D9904       aJ80J80J80
 0001:000D9918       aJ80J80J80_0
 0001:000D9928       aJ80
 0001:000D9944       aJ80J80J80J80
 0001:000D99F4       aJ80J80J80J80_1
 0001:000D9A10       aJ80J80J80J80_2
 0001:000D9A7C       aH00ah00ah00ah0
 0001:000D9AA8       aH00ah00ah00a
 0001:000D9AE8       aH00ah00ah00a_0
 0001:000D9B98       aH00ah00ah00a_1
 0001:000D9BB4       aH00ah00ah00a_2
 0001:000DA5C4       aUf@Uf@Uf@Uf@Uf
 0001:000DA638       aUf@Uf@Uf@Uf@_0
 0001:000DA684       aUf@Uf@Uf@Uf@_1
 0001:000DAF9C       aEd@Ed@Ed@Ed@Ed
 0001:000DB010       aEd@Ed@Ed@Ed@_0
 0001:000DB05C       aEd@Ed@Ed@Ed@_1
 0001:000DB160       aS0
 0001:000DB488       aQ@Q@Q@Q@Q@Q@Q@
 0001:000DB4FC       aQ@Q@Q@Q@Q@Q@_0
 0001:000DB548       aQ@Q@Q@Q@Q@Q@_1
 0001:000DB858       aTx1Tx1Tx1Tx1Tx
 0001:000DBD44       aPl1Pl1Pl1Pl1Pl
 0001:000DBEE8       aPl1Pl1Pl1Pl1_0
 0001:000DC08C       aPl1Pl1Pl1Pl1_1
 0001:000DC230       aPl1Pl1Pl1Pl1_2
 0001:000DD43C       aM@1M@1M@1M@1M@
 0001:000DD5E0       aM@1M@1M@1M@1_0
 0001:000DD784       aM@1M@1M@1M@1_1
 0001:000DD928       aM@1M@1M@1M@1_2
 0001:000DDACC       aM@1M@1M@1M@1_3
 0001:000DE908       aDapDapDapDapDa
 0001:000DE940       aDapDapDapDap_0
 0001:000DE9A8       aDapDapDapDap
 0001:000DEA58       aDapDapDapDap_1
 0001:000DEA78       aDapDapDapDap_2
 0001:000DEC50       aGmpGmpGmpGmpGm
 0001:000DEC88       aGmpGmpGmpGmp_0
 0001:000DECF0       aGmpGmpGmpGmp
 0001:000DEDA0       aGmpGmpGmpGmp_1
 0001:000DEDC0       aGmpGmpGmpGmp_2
 0001:000DEE2C       aDapDapDapDap_3
 0001:000DEE94       aDapDapDapDap_4
 0001:000DEF44       aDapDapDapDap_5
 0001:000DEF64       aDapDapDapDap_6
 0001:000DF2E0       aIIIIIIIIIIIIII
 0001:000DF354       aIIIIIIIIIIII_0
 0001:000DF3A0       aIIIIIIIIIIII_1
 0001:000DF524       aNhpNhpNhpNhp
 0001:000DF5D4       aNhpNhpNhpNhpNh
 0001:000DF5F4       aNhpNhpNhpNhp_0
 0001:000DF65C       aZxpZxpZxpZxpZx
 0001:000DF688       aZxpZxpZxp
 0001:000DF6C8       aZxpZxpZxpZxp
 0001:000DF778       aZxpZxpZxpZxp_0
 0001:000DF798       aZxpZxpZxpZxp_1
 0001:000DF970       aRpRpRpRpRpRpRp
 0001:000DF9A4       aRpRpRpRpRpRp_0
 0001:000DF9D0       aRpRpRp
 0001:000DFA10       aRpRpRpRp
 0001:000DFAC0       aRpRpRpRpRpRp
 0001:000DFAE0       aRpRpRpRpRpRp_1
 0001:000DFB48       aRpRpRpRpRpRp_2
 0001:000DFB74       aRpRpRp_0
 0001:000DFB88       aRpRpRp_1
 0001:000DFB98       aRp
 0001:000DFBB4       aRpRpRpRp_0
 0001:000DFC64       aRpRpRpRpRpRp_3
 0001:000DFC84       aRpRpRpRpRpRp_4
 0001:000E0000       aQtpQtpQtpQtpQt
 0001:000E0034       aQtpQtpQtpQtp_0
 0001:000E0060       aQtpQtpQtp
 0001:000E00A0       aQtpQtpQtpQtp
 0001:000E0150       aQtpQtpQtpQtp_1
 0001:000E0170       aQtpQtpQtpQtp_2
 0001:000E01D8       aYtpYtpYtpYtpYt
 0001:000E0204       aYtpYtpYtp
 0001:000E0218       aYtpYtpYtp_0
 0001:000E0228       aYtp
 0001:000E0244       aYtpYtpYtpYtp
 0001:000E02F4       aYtpYtpYtpYtp_0
 0001:000E0314       aYtpYtpYtpYtp_1
 0001:000E03BC       aArqArqArqArqAr
 0001:000E03E8       aArqArqArqArq
 0001:000E0498       aArqArqArqArq_0
 0001:000E04B4       aArqArqArqArq_1
 0001:000E0690       aEdpEdpEdpEdpEd
 0001:000E0704       aEdpEdpEdpEdp_0
 0001:000E0750       aEdpEdpEdpEdp_1
 0001:000E09D8       aFipFipFipFipFi
 0001:000E0A4C       aFipFipFipFip_0
 0001:000E0A98       aFipFipFipFip_1
 0001:000E0BF0       aEdpEdpEdpEdp_2
 0001:000E0C3C       aEdpEdpEdpEdp_3
 0001:000E2418       aRxRxRxRxRxRxRx
 0001:000E244C       aRxRxRxRxRxRx_0
 0001:000E2478       aRxRxRx
 0001:000E24B8       aRxRxRxRx
 0001:000E2568       aRxRxRxRxRxRx
 0001:000E2588       aRxRxRxRxRxRx_1
 0001:000E25F4       aDaDaDaDaDaDaDa
 0001:000E2620       aDaDa
 0001:000E2630       aDaDaDa
 0001:000E2640       aDa_0
 0001:000E265C       aDaDaDaDa
 0001:000E2680       aDa_1
 0001:000E270C       aDaDaDaDaDaDa
 0001:000E272C       aDaDaDaDaDaDa_0
 0001:000E2798       aGmGmGmGmGmGmGm
 0001:000E2800       aGmGmGmGm
 0001:000E28B0       aGmGmGmGmGmGm
 0001:000E28D0       aGmGmGmGmGmGm_0
 0001:000E2978       aI0I0I0I0I0I0_2
 0001:000E29C4       aI0I0I0I0I0I0_3
 0001:000E2C4C       aNhNhNhNhNhNhNh
 0001:000E2CEC       aNhNhNhNh
 0001:000E2D9C       aNhNhNhNhNhNh
 0001:000E2DBC       aNhNhNhNhNhNh_0
 0001:000E396C       aEdEdEdEdEdEdEd
 0001:000E39E0       aEdEdEdEdEdEd_0
 0001:000E3A2C       aEdEdEdEdEdEd_1
 0001:000E3B84       aFiFiFiFiFiFiFi
 0001:000E3BD0       aFiFiFiFiFiFi_0
 0001:000E4344       aRxpRxpRxpRxpRx
 0001:000E4378       aRxpRxpRxpRxp_0
 0001:000E43A4       aRxpRxpRxp
 0001:000E43B8       aRxpRxpRxp_0
 0001:000E43C8       aRxp
 0001:000E43E4       aRxpRxpRxpRxp
 0001:000E4494       aRxpRxpRxpRxp_1
 0001:000E44B4       aRxpRxpRxpRxp_2
 0001:000E451C       aTPTPTPTPTPTPTP
 0001:000E4548       aTPTPTP
 0001:000E4588       aTPTPTPTP
 0001:000E4638       aTPTPTPTPTPTP
 0001:000E4658       aTPTPTPTPTPTP_0
 0001:000E5064       aRxpRxpRxpRxp_3
 0001:000E5098       aRxpRxpRxpRxp_4
 0001:000E50C4       aRxpRxpRxp_1
 0001:000E50D8       aRxpRxpRxp_2
 0001:000E50E8       aRxp_0
 0001:000E5104       aRxpRxpRxpRxp_5
 0001:000E51B4       aRxpRxpRxpRxp_6
 0001:000E51D4       aRxpRxpRxpRxp_7
 0001:000E523C       aRxpRxpRxpRxp_8
 0001:000E5268       aRxpRxpRxp_3
 0001:000E52A8       aRxpRxpRxpRxp_9
 0001:000E5358       aRxpRxpRxpRx_10
 0001:000E5378       aRxpRxpRxpRx_11
 0001:000E53E0       aNhpNhpNhpNhp_1
 0001:000E540C       aNhpNhpNhp
 0001:000E5420       aNhpNhpNhp_0
 0001:000E5430       aNhp
 0001:000E544C       aNhpNhpNhpNhp_2
 0001:000E54FC       aNhpNhpNhpNhp_3
 0001:000E551C       aNhpNhpNhpNhp_4
 0001:000E5898       a000000000000
 0001:000E58CC       a0000000000
 0001:000E58F8       a000_0
 0001:000E5938       a0000
 0001:000E59E8       a000000
 0001:000E5A08       a0000000000000
 0001:000E5D84       aRpRpRpRpRpRp_5
 0001:000E5DB8       aRpRpRpRpRpRp_6
 0001:000E5DE4       aRpRpRp_2
 0001:000E5DF8       aRpRpRp_3
 0001:000E5E08       aRp_0
 0001:000E5E24       aRpRpRpRp_1
 0001:000E5ED4       aRpRpRpRpRpRp_7
 0001:000E5EF4       aRpRpRpRpRpRp_8
 0001:000E60CC       aPpaPpaPpaPpaPp
 0001:000E6100       aPpaPpaPpaPpa_0
 0001:000E612C       aPpaPpaPpa
 0001:000E6140       aPpaPpaPpa_0
 0001:000E6150       aPpa
 0001:000E616C       aPpaPpaPpaPpa
 0001:000E621C       aPpaPpaPpaPpa_1
 0001:000E623C       aPpaPpaPpaPpa_2
 0001:000E6414       aRxaRxaRxaRxaRx
 0001:000E6448       aRxaRxaRxaRxa_0
 0001:000E6474       aRxaRxaRxa
 0001:000E6488       aRxaRxaRxa_0
 0001:000E6498       aRxa
 0001:000E64B4       aRxaRxaRxaRxa
 0001:000E6564       aRxaRxaRxaRxa_1
 0001:000E6584       aRxaRxaRxaRxa_2
 0001:000E65EC       aRxaRxaRxaRxa_3
 0001:000E6618       aRxaRxaRxa_1
 0001:000E6658       aRxaRxaRxaRxa_4
 0001:000E6708       aRxaRxaRxaRxa_5
 0001:000E6728       aRxaRxaRxaRxa_6
 0001:000E6C48       aSASASASASASASA
 0001:000E6C7C       aSASASASASASA_0
 0001:000E6CA8       aSASASA
 0001:000E6CE8       aSASASASA
 0001:000E6D98       aSASASASASASA
 0001:000E6DB8       aSASASASASASA_1
 0001:000E6E20       aUdaUdaUdaUdaUd
 0001:000E6E4C       aUdaUdaUda
 0001:000E6E60       aUdaUdaUda_0
 0001:000E6E70       aUda
 0001:000E6E8C       aUdaUdaUdaUda
 0001:000E6F3C       aUdaUdaUdaUda_0
 0001:000E6F5C       aUdaUdaUdaUda_1
 0001:000E6FC4       aRxaRxaRxaRxa_7
 0001:000E6FF0       aRxaRxaRxa_2
 0001:000E7030       aRxaRxaRxaRxa_8
 0001:000E70E0       aRxaRxaRxaRxa_9
 0001:000E7100       aRxaRxaRxaRx_10
 0001:000E7168       aNhaNhaNhaNhaNh
 0001:000E7194       aNhaNhaNha
 0001:000E71A8       aNhaNhaNha_0
 0001:000E71B8       aNha
 0001:000E71D4       aNhaNhaNhaNha
 0001:000E7284       aNhaNhaNhaNha_0
 0001:000E72A4       aNhaNhaNhaNha_1
 0001:000E77C4       aRxrRxrRxrRxrRx
 0001:000E77F8       aRxrRxrRxrRxr_0
 0001:000E7824       aRxrRxrRxr
 0001:000E7838       aRxrRxrRxr_0
 0001:000E7848       aRxr
 0001:000E7864       aRxrRxrRxrRxr
 0001:000E7914       aRxrRxrRxrRxr_1
 0001:000E7934       aRxrRxrRxrRxr_2
 0001:000E7B0C       aSRSRSRSRSRSRSR
 0001:000E7B40       aSRSRSRSRSRSR_0
 0001:000E7B6C       aSRSRSR
 0001:000E7B80       aSRSRSR_0
 0001:000E7B90       aSR
 0001:000E7BAC       aSRSRSRSR
 0001:000E7C5C       aSRSRSRSRSRSR
 0001:000E7C7C       aSRSRSRSRSRSR_1
 0001:000E7CE4       aSRSRSRSRSRSR_2
 0001:000E7D10       aSRSRSR_1
 0001:000E7D50       aSRSRSRSR_0
 0001:000E7E00       aSRSRSRSRSRSR_3
 0001:000E7E20       aSRSRSRSRSRSR_4
 0001:000E7FF8       aSASASASASASA_2
 0001:000E802C       aSASASASASASA_3
 0001:000E8058       aSASASA_0
 0001:000E8098       aSASASASA_0
 0001:000E8148       aSASASASASASA_4
 0001:000E8168       aSASASASASASA_5
 0001:000E89D8       aNull_2
 0001:000E89E0       aTostring
 0001:000E89EC       aValueof
 0001:000EB139       aTtribute
 0001:000EB248       aSoftwareMic_35
 0001:000EB2D8       aPatched
 0001:000EB300       aVfwo
 0001:000EB36C       aInvalidNameInc
 0001:000EB39C       aInvalidHexEsca
 0001:000EB3B0       aInvalidValueEn
 0001:000EB3E4       aValueShouldBeA
 0001:000EB418       aInvalidEscapeS
 0001:000EB430       aInvalidFormat
 0001:000EB440       aNrifilter
 0001:000EB478       aSymbolimage
 0001:000EB490       aSystemDllcache
 0001:000EB4F8       aFtp
 0001:000EB500       aShared
 0001:000EB508       a08x_1
 0001:000EB510       aInjectiontype
 0001:000EB52C       aSource_0
 0001:000EB53C       aEtwid
 0001:000EB548       aImagename
 0001:000EB55C       aHooktype
 0001:000EB570       aLogtype
 0001:000EB580       aTarget_0
 0001:000EB590       aModulename_0
 0001:000EB5A8       aCreatesimplefi
 0001:000EB5D8       aFilereport
 0001:000EB5F0       aFileindex
 0001:000EB604       aEtwbehavior
 0001:000EB61C       aBehaviortime
 0001:000EB638       aWmicaller
 0001:000EB67C       a_Globalroot
 0001:000EB69C       a?UncLocalhost
 0001:000EB6C4       aLocalhost_0
 0001:000EB6E0       aLocalhost
 0001:000EB718       aMiss
 0001:000EB724       aHit
 0001:000EB72C       aSystemfile
 0001:000EB744       aNoCache
 0001:000EB778       aDevice_2
 0001:000EB788       aWsWsWs
 0001:000EB7D4       aVersion
 0001:000EB7F0       aMemscanMismatc
 0001:000EB8D0       aMemscanGetproc
 0001:000EB940       aMemscanOpenpro
 0001:000EB9D8       aMpattributeEnu
 0001:000EB9F0       aMemory
 0001:000EB9F8       aRunpack
 0001:000EBA00       aDetectedSLeak
 0001:000EBA14       aDetectedReallo
 0001:000EBA2C       aDetectedVfoLea
 0001:000EBA40       aVerstringhandl
 0001:000EBA50       aReshandle
 0001:000EBA5C       aPereaderHandle
 0001:000EBA6C       aPevmhandle
 0001:000EBA78       aMpcontainerO_0
 0001:000EBA94       aMpcontainerObj
 0001:000EBAAC       aMpcontainerHan
 0001:000EBAC0       aOlehandle
 0001:000EBADC       aPcaU4UerU
 0001:000EBAF0       aWarningRpfDtRu
 0001:000EBBA8       aRootemb
 0001:000EBBBC       aRootvfo
 0001:000EBBF0       aWsS
 0001:000EBC58       aSoftwareClasse
 0001:000EBC80       aSoftwareClas_0
 0001:000EBCD0       nullsub_4
 0001:000EBCE0       aCS_0
 0001:000EBD00       aNot
 0001:000EBD10       aSystemrootSy_0
 0001:000EBD6C       aProfilesdirect
 0001:000EBD94       aS_E?SfwqCS
 0001:000EBDA6       aY_1
 0001:000EBDA8       aMboliclinkvalu
 0001:000EBDC8       aSoftware
 0001:000EBDDC       aStandalone_swe
 0001:000EBE04       aWow6432nodeCla
 0001:000EBE2C       aWowaa32nodeCla
 0001:000EBE54       aSoftwareWowaa3
 0001:000EBE90       aSoftwareWow643
 0001:000EBECC       aClasses
 0001:000EBEE0       aRegistryMach_2
 0001:000EBF28       aWow6432node
 0001:000EBF40       aWowaa32node
 0001:000EBF58       aSystem_2
 0001:000EBF78       aSSSS
 0001:000EBFA0       aC39c7c7dDfa145
 0001:000EBFF8       aS1520_classes
 0001:000EC01C       aS1519_classes
 0001:000EC060       aAsimovbmluacal
 0001:000EC074       a0xX_0
 0001:000EC090       aAmcoreMpeng_44
 0001:000EC0D0       aMpmaxspynetrep
 0001:000EC0F8       aErrorfield
 0001:000EC110       aSpyneterror
 0001:000EC128       aSpynetcollecti
 0001:000EC158       aNullptrM_roote
 0001:000EC174       a0LNoRootElemen
 0001:000EC18C       aHresult
 0001:000EC19C       a0x08i64x
 0001:000EC1B0       aFunction_1
 0001:000EC1C4       aPspynetinputNu
 0001:000EC1DC       aMapsorigin
 0001:000EC1F8       aMpdisableexclu
 0001:000EC240       aMpdisablertpch
 0001:000EC280       aSesystemenviro
 0001:000EC2BC       aHeartbeatcontr
 0001:000EC2E8       aFiscontrolgrou
 0001:000EC308       aStillalivehear
 0001:000EC330       aMsrtheartbea_0
 0001:000EC358       aDriverlog
 0001:000EC36C       aDriverdata
 0001:000EC388       aMpenableuefien
 0001:000EC3D0       aMsrtheartbeati
 0001:000EC3F8       aBfsigversionne
 0001:000EC418       aEsusigversionn
 0001:000EC43C       aIsheartbeat
 0001:000EC464       a39
 0001:000EC470       aAmpX02x
 0001:000EC48C       aRootobj
 0001:000EC494       aAmcoreMpeng_45
 0001:000EC4D0       aNode
 0001:000EC4D8       aMSnSt2r0XLi
 0001:000EC4EA       aP_7
 0001:000EC4EC       aV6high
 0001:000EC4FC       aIpv6low
 0001:000EC50C       aDnsserver
 0001:000EC520       aDnsservers
 0001:000EC538       aAmcoreMpeng_46
 0001:000EC578       aAdapterindex
 0001:000EC594       aIpv4
 0001:000EC5A0       aAf_inetPipaddr
 0001:000EC5F8       aImphash
 0001:000EC608       aExcludedthreat
 0001:000EC628       aSigattrevents
 0001:000EC644       aNamedattribu_0
 0001:000EC664       aPeattributes_0
 0001:000EC680       aExtendedkcrcs
 0001:000EC69C       aClusterhash
 0001:000EC6B4       aResearchdata
 0001:000EC6D0       aPeheader
 0001:000EC6E4       aVpath
 0001:000EC6F0       aKey_0
 0001:000EC6F8       aLshash
 0001:000EC708       aPartialcrc3
 0001:000EC720       aPartialcrc2
 0001:000EC738       aPartialcrc1
 0001:000EC750       aLshashs
 0001:000EC760       aClsid_1
 0001:000EC770       aSamplesubmissi
 0001:000EC7B4       aSampleconsentr
 0001:000EC7E0       aD_0
 0001:000EC7E8       aWsWs_4
 0001:000EC7F8       aHashedfullpath
 0001:000EC818       aRealpath
 0001:000EC82C       aMotwhostip
 0001:000EC844       aMotwhosturl
 0001:000EC85C       aCtph
 0001:000EC868       aFtp_0
 0001:000EC870       aAuthenticode_1
 0001:000EC894       aZoneid
 0001:000EC89C       aHosturl
 0001:000EC8B8       aZone_identifie
 0001:000EC8D8       aZonetransfer
 0001:000EC8E8       aFilechanged
 0001:000EC900       aHitcount_0
 0001:000EC914       aClassifiersc_2
 0001:000EC938       aClassifiersc_1
 0001:000EC95C       aIsprimary
 0001:000EC970       aAudit_1
 0001:000EC97C       aFilequeryonly
 0001:000EC998       aTelemetryonly
 0001:000EC9B4       aRequeryineligi
 0001:000EC9E4       aCrc16
 0001:000EC9F0       aFilequery
 0001:000ECA04       aHoldineligible
 0001:000ECA30       aAmcoreMpeng_49
 0001:000ECA70       aIsvfz
 0001:000ECA7C       aLowficount
 0001:000ECAA4       aAmcoreMpeng_50
 0001:000ECAE4       aPnodeGetnode_0
 0001:000ECB14       aDwerrorNo_erro
 0001:000ECB30       aM_nodetypeNode
 0001:000ECB58       aPnodeGetnodeva
 0001:000ECB7C       a0LAttemptToCre
 0001:000ECBB0       a0LAttemptToA_0
 0001:000ECBE8       a0LAttemptToAdd
 0001:000ECC20       aPnodeGetnodety
 0001:000ECC48       aPnodeGetnodena
 0001:000ECC68       aPnode
 0001:000ECC70       aGetnodetypeNod
 0001:000ECCA0       aMpmapsheartb_1
 0001:000ECCE8       aMpfirmwareenvi
 0001:000ECD34       aMpsamplesubmis
 0001:000ECD70       aMpdisablerem_0
 0001:000ECDB4       aMpremediatio_0
 0001:000ECDF8       aMpremediationc
 0001:000ECE40       aG_spynetkillsw
 0001:000ECF18       aAmcoreMpeng_22
 0001:000ECF60       aMpdisablecachi
 0001:000ECFA8       aWcslenAttribut
 0001:000ECFC0       nullsub_5
 0001:000ECFD0       aManipulationda
 0001:000ECFF4       aOrder_0
 0001:000ED000       aUnknownfileman
 0001:000ED030       aAmcoreMpeng_52
 0001:000ED06C       aRegkey
 0001:000ED07C       aThreatfilemani
 0001:000ED0AC       aPfilechangeinf
 0001:000ED148       nullsub_6
 0001:000ED158       a??Volume
 0001:000ED170       nullsub_7
 0001:000ED1E0       aInvalidParam_1
 0001:000ED274       aVssFileOpenX
 0001:000ED298       aInvalidParam_3
 0001:000ED320       aInvalidParam_2
 0001:000ED398       aRawFileOpenX
 0001:000ED3BC       aVssSnapshottin
 0001:000ED3E8       aNormalFileOpen
 0001:000ED414       aAcquireRhDOplo
 0001:000ED448       aIdFileOpenX
 0001:000ED46C       aRelativeFileRe
 0001:000ED4A0       aBackupFileOpen
 0001:000ED4CC       aImpersonationF
 0001:000ED534       aImpersonated_0
 0001:000ED560       aImpersonatedRe
 0001:000ED5B8       aWsWsX
 0001:000ED5D0       aUnimpersonated
 0001:000ED5FC       aBackupRegkey
 0001:000ED618       aNoBackupRegkey
 0001:000ED640       aSoftwareClas_1
 0001:000ED680       aRegistryMach_5
 0001:000ED6C8       aRegistryMach_4
 0001:000ED6EC       aRegistryUser
 0001:000ED710       aRegistryMach_6
 0001:000ED7B0       aIndirSystem32D
 0001:000ED804       aCwin32fileGetr
 0001:000ED83C       aWsOffreg_U_dll
 0001:000ED860       aOrplibrarynew
 0001:000ED87C       aOrplibrary
 0001:000ED90C       aPthreatlistPce
 0001:000ED92C       aG_threatdepend
 0001:000ED944       aAmcoreMpeng_11
 0001:000ED980       a_exe_dll_ocx_v
 0001:000EDC0C       a0InvalidIndexP
 0001:000EDC38       aPres_destSchem
 0001:000EDC4C       aAdvicedesc
 0001:000EDC64       aShortdesc
 0001:000EDC7C       aCategory
 0001:000EDC90       aPres_destExt_0
 0001:000EDCB8       aNodeRptlistRes
 0001:000EDCDC       aPres_destExtra
 0001:000EDD08       aSeverity_0
 0001:000EDD1C       aAction_1
 0001:000EDD2C       aPthreatNull
 0001:000EDD3C       aP_name
 0001:000EDD44       aHighest_severi
 0001:000EDD68       aListTBadSplice
 0001:000EE2F8       a?Unc_0
 0001:000EE38C       aUcs2
 0001:000EE398       aUtf8_0
 0001:000EE3A4       aPostsignatureu
 0001:000EE3D4       aSourceVersion
 0001:000EE3F4       aExpirationVers
 0001:000EE41C       aTimestamp_0
 0001:000EE430       aExpirationTime
 0001:000EE45C       aDuration
 0001:000EE470       aPersistenceTyp
 0001:000EE494       aTimeRemaining
 0001:000EE4B4       aVdmVersion
 0001:000EE4CC       aSignatureDis_1
 0001:000EE50C       aDynamicSigna_1
 0001:000EE53C       aSignaturePath
 0001:000EE560       aDynamicSigna_2
 0001:000EE5B0       aDynamicSigna_0
 0001:000EE5F8       aDynamicSignatu
 0001:000EE640       aSignatureUpd_0
 0001:000EE664       aSignatureUpdat
 0001:000EE694       aForceDrop
 0001:000EE6AC       aMpdisablesdnex
 0001:000EE6CC       aMpfastpathenab
 0001:000EE710       aCached
 0001:000EE718       aNotCached
 0001:000EE744       aUnexpectedCoun
 0001:000EE758       aEusWin32Custom
 0001:000EE778       aEusWin32Cust_0
 0001:000EE79C       aHkcu@_0
 0001:000EE7B0       aHkcu_0
 0001:000EE7D0       aPagefile_sys
 0001:000EE7FC       aWindowsapps
 0001:000EE878       a?C
 0001:000EE888       a_Physicaldrive
 0001:000EE8AC       aDevice_4
 0001:000EE8C0       aDisk
 0001:000EE8DC       aDeviceHarddi_3
 0001:000EE900       aPartition
 0001:000EE914       aService
 0001:000EE924       aMpengine_dll_1
 0001:000EE940       aSystemCurren_4
 0001:000EE988       aSystemCurren_3
 0001:000EE9CC       aLegacy_
 0001:000EE9DC       aMpksl
 0001:000EE9F8       Type
 0001:000EEA24       aMpasynclaten_0
 0001:000EEA58       aMpasynclaten_1
 0001:000EEA90       aLoadopaqueluas
 0001:000EEAAC       aLua_setfenvFai
 0001:000EEAC0       aFailedToLoadCr
 0001:000EEADC       aFailedToLoadMp
 0001:000EEAF8       aFailedToLoadIn
 0001:000EEB10       aFailedToAllocS
 0001:000EEB34       aFailedToLoadSy
 0001:000EEB60       aPevarsNotAvail
 0001:000EEB78       aErrorBmLuaCall
 0001:000EEBBC       aSubject
 0001:000EEBC4       aQuery
 0001:000EEBD0       aFingerprintsha
 0001:000EEBE0       aSerial
 0001:000EEBE8       aFingerprints_0
 0001:000EEBFC       aValidfrom
 0001:000EEC08       aValidto
 0001:000EEC10       aIssuer
 0001:000EEC18       aNri
 0001:000EEC1C       aOn_0
 0001:000EEC20       aVerified
 0001:000EEC2C       aAuthenticodeco
 0001:000EEC44       aContentinfotyp
 0001:000EEC54       aPublickey
 0001:000EEC60       aCertificates
 0001:000EEC70       aSigners
 0001:000EEC78       aAuthenticode_0
 0001:000EEC94       aFingerprint
 0001:000EECA0       aNotrequested
 0001:000EECB0       a_loaded
 0001:000EECB8       aNameConflictFo
 0001:000EECD8       aStackOverflowS
 0001:000EECEC       aLocal_0
 0001:000EECF4       aAttemptToSSSAS
 0001:000EED18       aUpvalue
 0001:000EED20       aConcatenate
 0001:000EED2C       aRestart
 0001:000EED34       aNormal
 0001:000EED3C       aCStackOverflow
 0001:000EED50       aErrorInErrorHa
 0001:000EED68       aLoopInSettable
 0001:000EED7C       aLoopInGettable
 0001:000EED90       aForStepMustBeA
 0001:000EEDAC       aGetLengthOf
 0001:000EEDBC       aStringLengthOv
 0001:000EEDD4       aForLimitMustBe
 0001:000EEDF4       aForInitialValu
 0001:000EEE1C       aTableIndexIsNi
 0001:000EEE30       aTableOverflow
 0001:000EEE44       aString_1
 0001:000EEE64       aStringSliceToo
 0001:000EEE7C       aTooManyCapture
 0001:000EEE90       aInvalidPattern
 0001:000EEEA8       aMalformedPatte
 0001:000EEEC8       aMalformedPat_0
 0001:000EEF0C       aRemediation
 0001:000EEF18       aCrypto
 0001:000EEF20       aSysio
 0001:000EEF38       aMpcommon
 0001:000EEF44       aMpdetection
 0001:000EEF70       aMpforcemainten
 0001:000EEF9C       aMpdisableforce
 0001:000EEFE8       aFinishedMainte
 0001:000EF020       aStartingMainte
 0001:000EF058       aSkippedMainten
 0001:000EF09C       aSkippedMetasto
 0001:000EF0DC       aMpmetavaultmai
 0001:000EF120       aFinishedMetast
 0001:000EF160       aStartingMetast
 0001:000EF1B0       aSkippedMaint_0
 0001:000EF1E4       aFinishedMain_0
 0001:000EF218       aStartingMain_0
 0001:000EF2A0       aCcleanfiletele
 0001:000EF2E8       aMpmaintenanc_1
 0001:000EF358       aCleanfiletelem
 0001:000EF380       aMpmaintenanc_2
 0001:000EF400       aMppersisteds_0
 0001:000EF440       aMp_persistedst
 0001:000EF488       aMp_persisted_0
 0001:000EF4D0       aMp_persisted_1
 0001:000EF504       aMp_persisted_2
 0001:000EF540       aMp_persisted_3
 0001:000EF590       aMp_persisted_4
 0001:000EF5E0       aMp_persisted_5
 0001:000EF640       aMp_persisted_6
 0001:000EF698       aMp_persisted_7
 0001:000EF6E0       aMp_persisted_8
 0001:000EF728       aMp_persisted_9
 0001:000EF778       aMp_persiste_10
 0001:000EF7E0       aMp_persiste_11
 0001:000EF848       aMp_persiste_12
 0001:000EF888       aMp_persiste_13
 0001:000EF8D0       aMp_persiste_14
 0001:000EF918       aMp_persiste_15
 0001:000EF958       aMp_persiste_16
 0001:000EF9A8       aMp_persiste_17
 0001:000EFA10       aMp_persiste_18
 0001:000EFA68       aMp_persiste_19
 0001:000EFAC0       aMp_persiste_20
 0001:000EFB18       aMp_persiste_21
 0001:000EFB70       aMp_persiste_22
 0001:000EFBC8       aMp_persiste_23
 0001:000EFC28       aMp_persiste_24
 0001:000EFC90       aMp_persiste_25
 0001:000EFCF0       aMppersistedsto
 0001:000EFD48       aMp_persiste_26
 0001:000EFDAC       aInvalidMaxCach
 0001:000EFE04       aLookup
 0001:000EFE14       aInitialize
 0001:000EFE50       aGetbondreporte
 0001:000EFEA0       aWriteembedde_0
 0001:000EFED4       aElementWs
 0001:000EFEF0       aAttributeWsWs
 0001:000EFF18       aWriteembeddeds
 0001:000EFF4C       aAttributeSpyne
 0001:000EFF88       aAttributeTpmai
 0001:000EFFB8       aWritemarshalhe
 0001:000EFFE0       aMicrosoft_prot
 0001:000F0020       aByte_0
 0001:000F002C       aGuid_0
 0001:000F0038       aEntities_com_0
 0001:000F00A0       aEntities_commo
 0001:000F0104       aMlAcCBtzEUnkno
 0001:000F0128       aBadVariantAcce
 0001:000F013C       aSqliteglobals
 0001:000F014C       aWs_Ws
 0001:000F0160       a_Ws
 0001:000F016C       aTablecheck
 0001:000F0178       aOpen
 0001:000F0180       aMpmetavaultrec
 0001:000F01B8       aMpmetavaultsiz
 0001:000F01D8       aMetastoreMigra
 0001:000F01F8       aSelectVersionC
 0001:000F025C       aRemove_0
 0001:000F0264       aMpmetastorerea
 0001:000F028C       aEnabled_0
 0001:000F0294       aMetavaulttypen
 0001:000F02AC       aMetavaulttypef
 0001:000F02C0       aMpmetavaulttru
 0001:000F0320       aMpmetavaults_1
 0001:000F0374       aDisabled_0
 0001:000F0380       aMpmetastoredis
 0001:000F03A8       aMpmetavaultb_0
 0001:000F03F8       aMpmetavaultbac
 0001:000F0440       aMpmetavaults_0
 0001:000F0488       aMpmetavaultsys
 0001:000F04D8       aMpmetavaultatt
 0001:000F0528       aTablecreate
 0001:000F0534       aMpmetavaultbmp
 0001:000F0570       aMpmetavaulta_0
 0001:000F05D8       aMetavaulttyp_7
 0001:000F0604       aMetavaulttypep
 0001:000F0628       aMetavaulttyp_8
 0001:000F063C       aMetavaulttypet
 0001:000F0664       aMetavaulttyped
 0001:000F0684       aMetavaulttypes
 0001:000F06A4       aMetavaulttyp_6
 0001:000F06C8       aMetavaulttyp_5
 0001:000F06EC       aMetavaulttyp_3
 0001:000F070C       aMetavaulttyp_2
 0001:000F0728       aMetavaulttyper
 0001:000F074C       aMetavaulttyp_4
 0001:000F076C       aMetavaulttyp_0
 0001:000F0788       aMetavaulttypeb
 0001:000F07A4       aMetavaulttyp_1
 0001:000F07BC       aMetavaulttypea
 0001:000F07E4       aRemovemany
 0001:000F07FC       aMetastoreRem_0
 0001:000F0814       aMetastoreRem_1
 0001:000F082C       aRemovemany_0
 0001:000F0838       aMetastoreExist
 0001:000F084C       aExists_0
 0001:000F0854       aRemoveall_0
 0001:000F0860       aRemoveall
 0001:000F0874       aQuery_0
 0001:000F087C       aMetastoreInser
 0001:000F0890       aExists
 0001:000F08A0       aMetastoreQuery
 0001:000F08B4       aMetastoreUnini
 0001:000F08CC       aMetavaulttyp_9
 0001:000F08E4       aInsert_0
 0001:000F08EC       aInsert
 0001:000F08FC       aMp_metavault_s
 0001:000F0920       aMpdisablesqlit
 0001:000F0950       aMp_metavault_m
 0001:000F0994       aMp_metavault_r
 0001:000F09D0       aMp_sqlite_code
 0001:000F0A00       aMp_metastore_r
 0001:000F0A2C       aMpdisablevacuu
 0001:000F0A4C       aMpsqlitecodecd
 0001:000F0A78       aMetastoreFinal
 0001:000F0A98       aMetastoreDomai
 0001:000F0AB4       aMp_metastore_d
 0001:000F0AE0       aDomaintenance
 0001:000F0AF0       aMetastoreGetva
 0001:000F0B10       aMetastoreRemov
 0001:000F0B24       aMaintenance
 0001:000F0B30       aMetastoreGet_0
 0001:000F0B50       aMpmetavaulta_1
 0001:000F0BBC       aJ
 0001:000F0BD0       aInsertIntoProc
 0001:000F0C70       aSelectIdFromEn
 0001:000F0CB8       aSelectKeyRecor
 0001:000F0D70       aSelectKeyRec_0
 0001:000F0DC0       aDeleteFromFile
 0001:000F0E3C       aSelectCount1Fr
 0001:000F0E60       aSelectRecordid
 0001:000F1640       aSelectFileinst
 0001:000F16D0       aSelectIdFile_0
 0001:000F1774       aInvalidRecordT
 0001:000F1788       aSelectIdFilena
 0001:000F182C       aDeleteFromFi_1
 0001:000F1868       aDeleteFromReco
 0001:000F1B10       aInsertIntoReco
 0001:000F1B60       aInsertIntoFi_1
 0001:000F1D58       aInsertIntoFi_0
 0001:000F1E18       aSelectIdFromRe
 0001:000F1E60       aInsertIntoScan
 0001:000F1F38       aSelectIdFromFi
 0001:000F1F60       aI64u_0
 0001:000F1F68       aInsertIntoEngi
 0001:000F1FB8       aInsertIntoSdne
 0001:000F1FEC       aDeleteFromSdne
 0001:000F2014       aDeleteFromSd_0
 0001:000F2028       aSelectIdFromSd
 0001:000F2054       aSelectCount1_0
 0001:000F2070       aSelectKeyCurre
 0001:000F20B8       aInsertIntoRans
 0001:000F2184       aDeleteFromRa_0
 0001:000F21C4       aSelectCount1_1
 0001:000F21F0       aDeleteFromRans
 0001:000F2228       aSelectDetectio
 0001:000F22C4       aSelectIdFromRa
 0001:000F22F8       aDa9nU6bjqWhVse
 0001:000F23A8       aSelectProcessp
 0001:000F2400       aDeleteFromPr_0
 0001:000F2428       aReplaceIntoPro
 0001:000F24D0       aSelectProces_3
 0001:000F258C       aSelectCountDis
 0001:000F25D0       aSelectT1_proce
 0001:000F2740       aSelectT1_pro_0
 0001:000F28BC       aSelectCount1_2
 0001:000F28E8       aDeleteFromProc
 0001:000F2938       aSelectProces_1
 0001:000F29EC       aSelectIdFromPr
 0001:000F2A28       aSelectProces_2
 0001:000F2AF0       aSelectProces_0
 0001:000F2B9C       nullsub_8
 0001:000F2BC0       aSelectKeyFilen
 0001:000F2C28       aDeleteFromFi_2
 0001:000F2C64       aSelectCount1_3
 0001:000F2C90       aInsertIntoFile
 0001:000F2D08       aSelectKeyFromF
 0001:000F2D48       aDeleteFromFi_0
 0001:000F2D98       aInsertIntoBack
 0001:000F2E40       aDeleteFromBa_0
 0001:000F2E7C       aSelectCount1_4
 0001:000F2EA4       aDeleteFromBack
 0001:000F2ED8       aSelectFilepath
 0001:000F2F58       aSelectIdFromBa
 0001:000F2FA0       aInsertIntoDyns
 0001:000F2FFC       aSelectCount1_5
 0001:000F3024       aDeleteFromDyns
 0001:000F3060       aSelectKeySdnre
 0001:000F30B4       aSelectIdFromDy
 0001:000F3108       aSelectKeyFro_0
 0001:000F3150       aInsertIntoAttr
 0001:000F31C0       aDeleteFromAt_0
 0001:000F3200       aDeleteFromAttr
 0001:000F324C       aSelectCount1_6
 0001:000F3280       aSelectKeyFilep
 0001:000F32E8       aSelectKeyFromA
 0001:000F3348       aInsertIntoSyst
 0001:000F33F8       aDeleteFromSy_1
 0001:000F3438       aSelectCount1_7
 0001:000F3464       aDeleteFromSyst
 0001:000F3498       aSelectKeyFilei
 0001:000F3530       aSelectIdFromSy
 0001:000F3578       aInsertIntoValu
 0001:000F35E0       aDeleteFromVa_0
 0001:000F3618       aSelectCount1_8
 0001:000F3658       aDeleteFromValu
 0001:000F36B8       aSelectValuemap
 0001:000F3708       aSelectKeyFromV
 0001:000F3768       aB9nR4j@EmfPrag
 0001:000F378C       aVacuumMain
 0001:000F379C       aAuiamj7zprxA9
 0001:000F37B0       aSelectCount_14
 0001:000F37F8       aSelectCleanfil
 0001:000F3854       aDeleteFromSy_2
 0001:000F3890       aDeleteFromSy_0
 0001:000F38F0       aInsertIntoSy_0
 0001:000F39C0       aSelectIdFrom_0
 0001:000F3A20       aSelectCount1_9
 0001:000F3A48       aSelectInfected
 0001:000F3B10       aInsertIntoBmfi
 0001:000F3BC8       aInsertIntoBm_0
 0001:000F3C18       aDeleteFromBm_1
 0001:000F3C50       aSelectThreatre
 0001:000F3C98       aSelectCount_10
 0001:000F3CC0       aDeleteFromBmfi
 0001:000F3D08       aSelectIdNormal
 0001:000F3DD0       aSelectIdFromBm
 0001:000F3E30       aDeleteFromBm_0
 0001:000F3E80       aInsertIntoBm_1
 0001:000F3F68       aSelectIdFrom_1
 0001:000F3FBC       aSelectCount_11
 0001:000F3FE8       aSelectFilepa_0
 0001:000F40E0       aDeleteFromBmhi
 0001:000F4118       aSelectRuleacti
 0001:000F4178       aSelectCount_12
 0001:000F419C       aDeleteFromBmpr
 0001:000F41D0       aSelectIdPpidha
 0001:000F42E4       aSelectIdFrom_2
 0001:000F4318       aInsertIntoBmpr
 0001:000F4448       aInsertIntoBmhi
 0001:000F44C8       aDeleteFromTrus
 0001:000F4520       aDeleteFromTr_0
 0001:000F4548       aSelectIdFrom_3
 0001:000F45A4       aSelectCount_13
 0001:000F45D8       aSelectVolume_0
 0001:000F4654       aSelectIdFromTr
 0001:000F4690       aSelectVolumeid
 0001:000F46F0       aReplaceIntoTru
 0001:000F4760       aInsertIntoFold
 0001:000F47B4       aDeleteFromFold
 0001:000F47E8       aSelectCountD_0
 0001:000F4828       aSelectUseridGu
 0001:000F4870       aSelectIdFromFo
 0001:000F48C0       aDropTableIfE_2
 0001:000F4BB8       aDropTableIfE_3
 0001:000F4DBC       aBmfileactions
 0001:000F4DD0       aDropTableIfE_1
 0001:000F4EF8       aDropTableIfExi
 0001:000F5068       aDropTableIfE_0
 0001:000F5208       aDropTableIf_10
 0001:000F5358       aDropTableIf_11
 0001:000F5478       aDropTableIfE_9
 0001:000F5878       aAlterTableFi_0
 0001:000F593C       aAlterTableFile
 0001:000F596C       aFileinstance
 0001:000F5980       aDropTableIfE_7
 0001:000F5A10       aDropTableIfE_8
 0001:000F5BE0       aAlterTableDyns
 0001:000F5C20       aEngine_0
 0001:000F5C28       aAlterTableBm_0
 0001:000F5C68       aDropTableIfE_6
 0001:000F5D90       aDropTableIfE_5
 0001:000F60A8       aAlterTableBmpr
 0001:000F60DC       aBmhipsruleinfo
 0001:000F60F0       aDropTableIfE_4
 0001:000F6270       aUpdateSqlite_1
 0001:000F6300       aUpdateSqlite_2
 0001:000F6390       aUpdateSqlitegl
 0001:000F6420       aUpdateSqlite_0
 0001:000F64B0       aDropTableIf_22
 0001:000F6560       aInsertIntoSqli
 0001:000F65B8       aAlterTableScan
 0001:000F65F0       aDropTableIf_17
 0001:000F66B4       aScaninfo
 0001:000F66C0       aDropTableIf_16
 0001:000F6848       aRecordidentifi
 0001:000F6860       aDropTableIf_15
 0001:000F69A0       aDropTableIf_13
 0001:000F6B30       aDropTableIf_14
 0001:000F6D10       aDropTableIf_12
 0001:000F6F40       aProcessinfo
 0001:000F6F50       aDropTableIf_21
 0001:000F7078       aDropTableIf_20
 0001:000F7284       aValuemaparray
 0001:000F7298       aDropTableIf_18
 0001:000F7540       aDropTableIf_19
 0001:000F76F8       aUpdateSqlit_11
 0001:000F7788       aUpdateSqlit_12
 0001:000F7818       aUpdateSqlite_9
 0001:000F78A8       aUpdateSqlit_10
 0001:000F7938       aUpdateSqlite_7
 0001:000F79C8       aUpdateSqlite_8
 0001:000F7A58       aUpdateSqlite_5
 0001:000F7AE8       aUpdateSqlite_6
 0001:000F7B78       aUpdateSqlite_3
 0001:000F7C08       aUpdateSqlite_4
 0001:000F7C94       aTdjzjczC9jfcMe
 0001:000F7CC4       aMetavaultsto_0
 0001:000F7CE8       aMetavaultsto_2
 0001:000F7D0C       aMetavaultsto_3
 0001:000F7D3C       aMetavaultstora
 0001:000F7D5C       aMetavaultsto_1
 0001:000F7DAC       aStartup_0
 0001:000F7DCC       aMpdisabledelay
 0001:000F7E04       aVssfreesnapsho
 0001:000F7E20       a?createvssback
 0001:000F9EA8       aMptesting
 0001:000F9EC0       aContosoScriptE
 0001:000F9F04       aA_i
 0001:000F9F44       aAzsubmitfeedba
 0001:000F9F68       aNot_3
 0001:000F9F84       aPragmaJournal_
 0001:000F9F9C       aPragmaBusy_tim
 0001:000F9FB8       aPragmaBusy_t_0
 0001:000F9FD8       aPragmaWal_chec
 0001:000F9FF4       aSzfilenameNull
 0001:000FA00C       aRcSqlite_okPst
 0001:000FA030       aDbNullptr
 0001:000FA040       aNoErrorMessage
 0001:000FA054       aMpsqlitetracin
 0001:000FA088       aAmcoreMpengi_8
 0001:000FA0CC       aMpsqlitestatem
 0001:000FA110       aMpsqlitememory
 0001:000FA150       aBeginImmediate
 0001:000FA164       aZsqlNullptr
 0001:000FA174       aPpstmtNullptr
 0001:000FA188       aExistsNullptr
 0001:000FA19C       aSelect1FromSql
 0001:000FA1DC       aType_empty
 0001:000FA1EC       aName_empty
 0001:000FA1FC       aStatement_isbu
 0001:000FA210       aIsopen
 0001:000FA21C       aPragmaTemp_sto
 0001:000FA234       aCommit
 0001:000FA23C       aRollback
 0001:000FA268       aTypeNullptr
 0001:000FA278       aBusy
 0001:000FA284       aValueNullptr
 0001:000FA298       aLengthNullptr
 0001:000FA2AC       aSizeInt_max
 0001:000FA2BC       aIsnullNullptr
 0001:000FA2D0       aRowreturnedNul
 0001:000FA2E8       aIndex0
 0001:000FA2F8       aAmcoreMpengine
 0001:000FA33C       aOk
 0001:000FA344       aStmtNullptr
 0001:000FA384       aInternalcmdlin
 0001:000FA3A4       aWsBackupstore
 0001:000FA410       aWindows_securi
 0001:000FA464       ServiceName
 0001:000FA484       aNameAtInvalidI
 0001:000FA4A0       aDt_vmp_32
 0001:000FA4AC       aMphasexpensive
 0001:000FA4F0       aDr
 0001:000FA508       a??Volume_0
 0001:000FA520       aGetstoragedepe
 0001:000FA540       aHookwow
 0001:000FA550       aNot_1
 0001:000FA5C0       a_Proc_0
 0001:000FA5D4       aProcess_3
 0001:000FA5E8       aNufs_chm
 0001:000FA5F4       aNufs_chmitss
 0001:000FA614       aNufs_emb1
 0001:000FA654       aNufs_html
 0001:000FA6A8       aIframeref
 0001:000FA6B4       aCodebaseexec
 0001:000FA6C4       aSC
 0001:000FA6DC       aNufs_eadata
 0001:000FA6E8       aMsiStreamD
 0001:000FA708       aNufs_ole2
 0001:000FA738       aNufs_onenote
 0001:000FA748       aOnenote08ixSS
 0001:000FA780       aEmbeddedJavasc
 0001:000FA7A8       aEmbeddedFlash
 0001:000FA7C8       aInlineJavascri
 0001:000FA7EC       aXfaChunk
 0001:000FA800       aTrailer_0
 0001:000FA810       aLaunchAction
 0001:000FA82C       aObjectStream
 0001:000FA848       aAscii85Decode
 0001:000FA868       aAsciiHexDecode
 0001:000FA88C       aRunLengthDecod
 0001:000FA8B0       aCcittFaxDecode
 0001:000FA8D4       aLzwDecode
 0001:000FA8EC       aJpxDecode
 0001:000FA904       aJbig2Decode
 0001:000FA920       aPngPredictor
 0001:000FA93C       aDctDecode
 0001:000FA954       aTiffPredictor
 0001:000FA974       aPdfurilist
 0001:000FA984       aPdfLogInvalidO
 0001:000FA9C0       aPdfuri04d
 0001:000FA9D0       aEndstream
 0001:000FA9DC       aTemplate
 0001:000FA9E8       aNufs_pdf
 0001:000FAA34       aRtfextradata
 0001:000FAA54       aNufs_rtfn
 0001:000FAA80       aNufs_sect
 0001:000FAA8C       aUtf_ascii
 0001:000FAA98       aNufs_unicode
 0001:000FAAB8       aNufs_replayabl
 0001:000FAAD4       aJscript_0
 0001:000FAADC       aMof04d
 0001:000FAAE8       aNufs_mof
 0001:000FAAF4       aVbscript_1
 0001:000FAB20       aNufs_cab
 0001:000FABA8       aNufs_image
 0001:000FABE0       aNufs_rar
 0001:000FABEC       aCmt
 0001:000FABF4       aCmt_0
 0001:000FABF8       aStm
 0001:000FAC1C       aNufs_rar5
 0001:000FAC28       aSH?pS
 0001:000FAC38       aSetup_
 0001:000FAC54       aJSCi8giWixR
 0001:000FAC66       aI_4
 0001:000FAC68       aMageI64u
 0001:000FAC80       aNufs_wim
 0001:000FACBC       aNufs_ace
 0001:000FACC8       aNufs_arc
 0001:000FACD4       aNufs_arj
 0001:000FAD18       aNufs_cf
 0001:000FAD20       aNufs_hap
 0001:000FAD2C       aNufs_lh
 0001:000FAD34       aSS_12
 0001:000FAD4C       aNufs_quantum
 0001:000FAD5C       aVTT?ziCkS9S_re
 0001:000FAD74       aNufs_sit
 0001:000FAD80       aS_dat
 0001:000FAD98       aNufs_tar
 0001:000FADA4       aNufs_zoo
 0001:000FADB0       aNufs_psf
 0001:000FADBC       aNufs_asad
 0001:000FADC8       aBh_generated
 0001:000FADD8       aNufs_bh
 0001:000FADF0       aNufs_bga
 0001:000FADFC       aBga_generated
 0001:000FAE1C       aNufs_udf
 0001:000FAE28       aBootU
 0001:000FAE4C       aNufs_7z
 0001:000FAEF4       nullsub_9
 0001:000FAF84       aKbxwookPwA_Nuf
 0001:000FAFA0       aNufs_ar
 0001:000FAFB8       aNufs_mkplbox
 0001:000FAFC8       aNufs_mkplboxsf
 0001:000FAFD8       aNufs_fsd
 0001:000FAFE4       aNufs_mar
 0001:000FAFF0       aNufs_dzip
 0001:000FAFFC       aNufs_xar
 0001:000FB008       aYz
 0001:000FB068       aNufs_symbsis
 0001:000FB078       aAutoit_contain
 0001:000FB0A4       aNufs_autoit
 0001:000FB0B0       aEa0
 0001:000FB0B4       aNufs_ishld
 0001:000FB0C0       aNufs_ishldnew
 0001:000FB0E0       aNufs_c2rdat
 0001:000FB0EC       aInstdir_0
 0001:000FB0F8       aOutdir
 0001:000FB104       aNufs_nsis
 0001:000FB110       aEnvvar
 0001:000FB140       aQNNullsoftinst
 0001:000FB164       aNsv1Instdata
 0001:000FB184       aNsisinstall
 0001:000FB191       aUllsoftinst
 0001:000FB1A0       aNufs_nsv1
 0001:000FB1AC       aInstdir
 0001:000FB1B8       aNsv1SS
 0001:000FB1D0       aSetup_e32
 0001:000FB1E8       aNufs_inno
 0001:000FB204       aNufs_instcrea
 0001:000FB224       aIntel
 0001:000FB234       aMachoUnibin04d
 0001:000FB260       aPpc
 0001:000FB26C       aNufs_machofat
 0001:000FB28C       aNufs_wise
 0001:000FB2A8       aNufs_nbinder
 0001:000FB2B8       aNufs_mimen
 0001:000FB2D4       aContentmismatc
 0001:000FB2EC       aEncode
 0001:000FB318       aPartialexploit
 0001:000FB32C       aClsidattachmen
 0001:000FB36C       aNufs_tnef
 0001:000FB378       aTnefmsgbody
 0001:000FB398       aNufs_binhex
 0001:000FB3B4       aNufs_dbx
 0001:000FB3C0       aNufs_mbx
 0001:000FB3CC       aNufs_tbb
 0001:000FB3D8       aNufsprocheader
 0001:000FB3EC       aNufs_proc
 0001:000FB3FB       aUoplDbNufs_dfs
 0001:000FB414       aCsyscleanscrip
 0001:000FB440       aCaction
 0001:000FB450       aClearingServic
 0001:000FB494       aActionDelay
 0001:000FB4B0       aFailureActions
 0001:000FB4E0       aResetPeriod
 0001:000FB4FC       aFailureAction
 0001:000FB520       aServiceFailure
 0001:000FB578       aHkcuSoftware_3
 0001:000FB5D0       aHklmSoftwareMi
 0001:000FB624       aIestartpageleg
 0001:000FB648       aHklmSoftware_5
 0001:000FB6C8       aFixchrome
 0001:000FB6E0       aHkcuSoftware_1
 0001:000FB8D0       aHkcuSoftwareGo
 0001:000FB908       aReg_sz
 0001:000FB918       aReg_expand_sz
 0001:000FB934       aCfixedgeextens
 0001:000FB968       aReset
 0001:000FB974       aReg_qword
 0001:000FB988       aHkcuSoftware_2
 0001:000FBB60       aReg_dword
 0001:000FBB74       aReg_multi_sz
 0001:000FBB90       aHomepagesres_1
 0001:000FBBBC       aHomepagesreset
 0001:000FBBE8       aCfixedgeaction
 0001:000FBC08       aHomepagesres_0
 0001:000FBC2C       aSearchscopesre
 0001:000FBC60       aSearchscopes_0
 0001:000FBC88       aSearchscopes_1
 0001:000FBCBC       aCfixregsetting
 0001:000FBCE8       aPV0a
 0001:000FBCF8       aPreCheck
 0001:000FBD0C       aDisableregistr
 0001:000FBD38       aDisabletaskmgr
 0001:000FBD58       aWubits
 0001:000FBD68       aCfixrestorewu_
 0001:000FBD90       aCfixieshortcut
 0001:000FBDBC       aFixieshortcuts
 0001:000FBDDC       aFixchromeshort
 0001:000FBE04       aCfixchromeshor
 0001:000FBE38       aCcleanaction
 0001:000FBE54       aClean_2
 0001:000FBE60       aCprocesscommit
 0001:000FBE8C       aCservicepreque
 0001:000FBEBC       aCremovalaction
 0001:000FBEDC       aRemoval
 0001:000FBEEC       aCquarantineact
 0001:000FBF10       aQuarantine_0
 0001:000FBF28       aServiceFailu_0
 0001:000FBF64       aCquarantinecom
 0001:000FBF94       aCquarantinesiz
 0001:000FBFCC       aCluascriptacti
 0001:000FC060       aNotemgrprocess
 0001:000FC0C8       aNotemgrsystemp
 0001:000FC0F0       aNotemgrarplugi
 0001:000FC110       aNotemgrinterna
 0001:000FC13C       aNotemgretwplug
 0001:000FC160       aSrcdefaultsiga
 0001:000FC188       aSrcrestoreacti
 0001:000FC1AC       aResmgr_query_1
 0001:000FC1C8       aQueryfilereg_0
 0001:000FC1F4       aResmgr_regkeyv
 0001:000FC208       aResmgr_regkey
 0001:000FC218       aResmgr_inifile
 0001:000FC22C       aInifilemap_0
 0001:000FC244       aResmgr_usershe
 0001:000FC25C       aUsershellfol_1
 0001:000FC27C       aResmgr_iesearc
 0001:000FC28C       aIesearch_0
 0001:000FC2A0       aResmgr_nsp
 0001:000FC2AC       aNsp
 0001:000FC2B4       aSrcrempolactio
 0001:000FC2D4       aResmgr_ieabout
 0001:000FC2E4       aIeabout_0
 0001:000FC2F4       aResmgr_iesea_0
 0001:000FC308       aIesearchurl_0
 0001:000FC320       aResmgr_restric
 0001:000FC334       aRestrictrun_2
 0001:000FC34C       aResmgr_iemain
 0001:000FC35C       aIemain_0
 0001:000FC36C       aResmgr_iesea_1
 0001:000FC384       aIesearchscop_0
 0001:000FC3A0       aResmgr_firewal
 0001:000FC3B4       aFirewallport_2
 0001:000FC3D0       aResmgr_iephish
 0001:000FC3E8       aIephishingfi_0
 0001:000FC41C       aResmgr_lsp
 0001:000FC428       aLsp_1
 0001:000FC430       aPoststartups_0
 0001:000FC450       aResmgr_process
 0001:000FC460       aQueryfilepro_0
 0001:000FC48C       aResmgr_proce_0
 0001:000FC4A8       aResmgr_postsig
 0001:000FC4C8       aResmgr_poststa
 0001:000FC4E0       aResmgr_query_2
 0001:000FC510       aResmgr_driver
 0001:000FC520       aResmgr_service
 0001:000FC530       aResmgr_hiddend
 0001:000FC544       aHiddendriver_0
 0001:000FC560       aIeexplorerba_2
 0001:000FC57C       aResmgr_bho
 0001:000FC588       aBho_1
 0001:000FC590       aResmgr_clsid
 0001:000FC5A0       aContextmenu_0
 0001:000FC5B8       aResmgr_shellex
 0001:000FC5D0       aShellexechook
 0001:000FC5EC       aResmgr_ieexplo
 0001:000FC604       aIewebbrowser_2
 0001:000FC620       aResmgr_ietoolb
 0001:000FC634       aIetoolbar_2
 0001:000FC648       aResmgr_screens
 0001:000FC65C       aFirewallokfi_0
 0001:000FC67C       aResmgr_ieshell
 0001:000FC694       aIeshellbrows_3
 0001:000FC6B4       aResmgr_iewebbr
 0001:000FC6C8       aIemenuext_0
 0001:000FC6DC       aResmgr_safeboo
 0001:000FC6EC       aSafeboot_0
 0001:000FC700       aResmgr_firew_0
 0001:000FC718       aShareddll
 0001:000FC72C       aResmgr_ieurlse
 0001:000FC744       aIeurlsearchh_3
 0001:000FC764       aResmgr_iemenue
 0001:000FC778       aRunonce_0
 0001:000FC788       aResmgr_runkey
 0001:000FC798       aRunkey_0
 0001:000FC7A8       aResmgr_context
 0001:000FC7BC       aIeext_0
 0001:000FC7C8       aResmgr_ieplugi
 0001:000FC7D8       aIeplugin_2
 0001:000FC7EC       aResmgr_runonce
 0001:000FC7FC       aShellopencmd
 0001:000FC818       aResmgr_winlogn
 0001:000FC82C       aWinlognotif_0
 0001:000FC844       aResmgr_ieext
 0001:000FC854       aScreensaver_1
 0001:000FC86C       aResmgr_autor_0
 0001:000FC87C       aAutorun_2
 0001:000FC88C       aResmgr_shellop
 0001:000FC8A0       aFindextensio_0
 0001:000FC8BC       aResmgr_shellse
 0001:000FC8E0       aShellservice_2
 0001:000FC918       aResmgr_imagefi
 0001:000FC934       aCopyhookhand_0
 0001:000FC954       aResmgr_shellic
 0001:000FC970       aShelliconoverl
 0001:000FC998       aResmgr_findext
 0001:000FC9B0       aPropertyshee_0
 0001:000FC9DC       aResmgr_dragdro
 0001:000FC9F4       aDragdrophand_0
 0001:000FCA14       aResmgr_copyhoo
 0001:000FCA2C       aDrophandler_0
 0001:000FCA44       aResmgr_datahan
 0001:000FCA58       aDatahandler_0
 0001:000FCA70       aResmgr_propert
 0001:000FCA8C       aActivex_2
 0001:000FCA9C       aResmgr_moduleu
 0001:000FCAB0       aModuleusage_0
 0001:000FCAC8       aResmgr_sharedd
 0001:000FCADC       aTypelibversi_0
 0001:000FCAFC       aResmgr_interfa
 0001:000FCB10       aInterface_0
 0001:000FCB24       aResmgr_activex
 0001:000FCB34       aShellcolumnh_2
 0001:000FCB5C       aResmgr_typelib
 0001:000FCB6C       aTypelib_1
 0001:000FCB7C       aResmgr_typel_0
 0001:000FCB94       aImagefileexe_3
 0001:000FCBC0       aResmgr_ginadll
 0001:000FCBD0       aGinadll_3
 0001:000FCBE0       aResmgr_shellco
 0001:000FCBFC       aIepreapprove_0
 0001:000FCC18       aResmgr_ieaddon
 0001:000FCC28       aIeaddon_0
 0001:000FCC38       aResmgr_iedragd
 0001:000FCC4C       aShellextapprov
 0001:000FCC70       aResmgr_uninsta
 0001:000FCC84       aUninstall
 0001:000FCC98       aResmgr_iepreap
 0001:000FCCB0       aWinlogontask_1
 0001:000FCCD0       aResmgr_runon_0
 0001:000FCCE4       aRunonceex_0
 0001:000FCCF8       aResmgr_shell_0
 0001:000FCD10       aWinlogonuiho_0
 0001:000FCD30       aResmgr_bootver
 0001:000FCD48       aBootverifica_1
 0001:000FCD6C       aResmgr_winlogo
 0001:000FCD84       aThumbnailhan_0
 0001:000FCDA8       aResmgr_iconhan
 0001:000FCDBC       aIconhandler_0
 0001:000FCDD4       aResmgr_drophan
 0001:000FCDE8       aLinkhandler_0
 0001:000FCE00       aResmgr_infotip
 0001:000FCE18       aInfotiphandl_0
 0001:000FCE38       aResmgr_thumbna
 0001:000FCE50       aPropertyhand_0
 0001:000FCE70       aResmgr_structs
 0001:000FCE8C       aStructstorageh
 0001:000FCEB8       aResmgr_linkhan
 0001:000FCECC       aIedragdrop_0
 0001:000FCEE4       aResmgr_ieeleva
 0001:000FCF00       aIeelevationp_0
 0001:000FCF24       aResmgr_prope_0
 0001:000FCF3C       aExtension_2
 0001:000FCF50       aResmgr_class
 0001:000FCF60       aClass_1
 0001:000FCF6C       aResmgr_policys
 0001:000FCF80       aActivesetupc_0
 0001:000FCFAC       aResmgr_pseudor
 0001:000FCFC0       aPseudorunkey_0
 0001:000FCFDC       aResmgr_extensi
 0001:000FCFF0       aWallpaper_0
 0001:000FD004       aResmgr_jitdebu
 0001:000FD018       aJitdebugger_0
 0001:000FD030       aResmgr_actives
 0001:000FD04C       aNtappdll_0
 0001:000FD060       aResmgr_alterna
 0001:000FD078       aAlternateshe_0
 0001:000FD098       aResmgr_wallpap
 0001:000FD0AC       aProtocolfilt_0
 0001:000FD0CC       aResmgr_printmo
 0001:000FD0E0       aPrintmonitor_0
 0001:000FD0FC       aResmgr_winlo_0
 0001:000FD114       aProtocolhand_1
 0001:000FD144       aResmgr_protoco
 0001:000FD15C       aProtocolhand_2
 0001:000FD17C       aResmgr_proto_0
 0001:000FD194       aKnowndll_0
 0001:000FD1A8       aResmgr_proto_1
 0001:000FD1C8       aProtocolname_0
 0001:000FD1FC       aResmgr_proto_2
 0001:000FD21C       aPolicyscript_0
 0001:000FD238       aResmgr_desktop
 0001:000FD250       aDesktopcompo_0
 0001:000FD274       aResmgr_knowndl
 0001:000FD284       aChromeinstal_0
 0001:000FD2A0       aResmgr_firefox
 0001:000FD2B8       aFirefoxplugi_0
 0001:000FD2D8       aResmgr_firef_0
 0001:000FD2F4       aAutoconfigur_0
 0001:000FD310       aResmgr_chromee
 0001:000FD328       aChromeextens_0
 0001:000FD34C       aResmgr_chromei
 0001:000FD364       aWindowsconta_0
 0001:000FD388       aResmgr_appcomp
 0001:000FD3A0       aAppcompatshi_0
 0001:000FD3BC       aResmgr_autocon
 0001:000FD3D4       aGpextension_0
 0001:000FD3EC       aResmgr_fontdri
 0001:000FD400       aFontdriver_0
 0001:000FD418       aResmgr_windows
 0001:000FD434       aAppsecdll_0
 0001:000FD448       aResmgr_sharedt
 0001:000FD464       aSharedtasksche
 0001:000FD48C       aResmgr_ntappdl
 0001:000FD49C       aIevext_3
 0001:000FD4AC       aResmgr_subsyst
 0001:000FD4C0       aSubsystem_0
 0001:000FD4D4       aResmgr_appsecd
 0001:000FD4E8       aMapistubdefa_0
 0001:000FD508       aResmgr_mapistu
 0001:000FD518       aMapistub_0
 0001:000FD52C       aResmgr_ievext
 0001:000FD53C       aFirefoxexten_0
 0001:000FD560       aResmgr_firef_1
 0001:000FD578       aFirefoxinsta_0
 0001:000FD598       aResmgr_mapis_0
 0001:000FD5B0       aPrintprovide_0
 0001:000FD5CC       aResmgr_ieextap
 0001:000FD5E4       aIeextapprove_0
 0001:000FD600       aResmgr_gpexten
 0001:000FD614       aAutodialdll_0
 0001:000FD62C       aResmgr_expooff
 0001:000FD640       aExpooffload_0
 0001:000FD658       aResmgr_printpr
 0001:000FD670       aResmgr_userini
 0001:000FD690       aUserinitmprlog
 0001:000FD6C0       aResmgr_autodia
 0001:000FD6D4       aResmgr_winlo_1
 0001:000FD6EC       aWinlogonuser_0
 0001:000FD710       aResmgr_winlo_2
 0001:000FD728       aWinlogonshel_0
 0001:000FD744       aTsstartup_0
 0001:000FD758       aResmgr_lsapack
 0001:000FD76C       aLsapackage_0
 0001:000FD784       aResmgr_winlo_3
 0001:000FD79C       aPendfile_0
 0001:000FD7B0       aResmgr_known_0
 0001:000FD7C4       aKnowndll16_0
 0001:000FD7DC       aResmgr_tsstart
 0001:000FD7F0       aSubsystemtype
 0001:000FD80C       aResmgr_secprov
 0001:000FD820       aSecprovider
 0001:000FD838       aResmgr_pendfil
 0001:000FD848       aResmgr_appinit
 0001:000FD85C       aAppinitdll_2
 0001:000FD874       aWinlogonsystem
 0001:000FD894       aResmgr_bootexe
 0001:000FD8A4       aBootexec_2
 0001:000FD8B8       aResmgr_ntrunke
 0001:000FD8C8       aNtrunkey_0
 0001:000FD8DC       aResmgr_subsy_0
 0001:000FD8F4       aQueryfileboo_1
 0001:000FD91C       aResmgr_boot
 0001:000FD928       aResmgr_query_3
 0001:000FD944       aSpecialfolder
 0001:000FD960       aResmgr_special
 0001:000FD978       aCommandline
 0001:000FD990       aResmgr_command
 0001:000FD9A4       aResmgr_query_4
 0001:000FD9C0       aResmgr_interna
 0001:000FD9DC       aResmgr_webscri
 0001:000FD9F0       aResmgr_inter_0
 0001:000FDA04       aResmgr_amsi
 0001:000FDA10       aResmgr_query_5
 0001:000FDA28       aResmgr_query_6
 0001:000FDA40       aResmgr_inter_1
 0001:000FDA58       aResmgr_amsiuac
 0001:000FDA68       aResmgr_query_7
 0001:000FDA84       aResmgr_inter_2
 0001:000FDAA0       aResmgr_genstre
 0001:000FDAB4       aResmgr_bootsyn
 0001:000FDACC       aResmgr_query_8
 0001:000FDAE8       aResmgr_inter_3
 0001:000FDB08       aResmgr_inter_4
 0001:000FDB20       aResmgr_behavio
 0001:000FDB30       aResmgr_remedia
 0001:000FDB50       aResmgr_ioavstr
 0001:000FDB64       aResmgr_query_9
 0001:000FDB80       aResmgr_inter_5
 0001:000FDB9C       aResmgr_cmdline
 0001:000FDBAC       aCmdline_0
 0001:000FDBBC       aResmgr_inter_6
 0001:000FDBE4       aResmgr_autorun
 0001:000FDBF8       aAutoruninf
 0001:000FDC10       aResmgr_tcg
 0001:000FDC1C       aResmgr_elam
 0001:000FDC28       aAppmodel_0
 0001:000FDC3C       aResmgr_appmode
 0001:000FDC4C       aRootcertuser
 0001:000FDC68       aRootcert
 0001:000FDC7C       aResmgr_rootcer
 0001:000FDC90       aResmgr_rootc_0
 0001:000FDCA0       aResmgr_querywm
 0001:000FDCB0       aQueryfilewmi_0
 0001:000FDCCC       aResmgr_wmi
 0001:000FDCD8       aSystemfilecach
 0001:000FDD00       aResmgr_sfcfile
 0001:000FDD10       aResmgr_thread
 0001:000FDD20       aResmgr_dumpfil
 0001:000FDD30       aDumpfile
 0001:000FDD44       aWsWcWs
 0001:000FDD58       aImage
 0001:000FDD74       aResmgr_hookwow
 0001:000FDD84       aSms
 0001:000FDD8C       aResmgr_sms
 0001:000FDD98       aAmcoreMpeng_15
 0001:000FDDDC       aCbblobCbheader
 0001:000FE02C       aNullM_rgdata0C
 0001:000FE04C       aAmcoreMpeng_14
 0001:000FE090       aMpisenuminrang
 0001:000FE35C       aGetfileversion
 0001:000FE374       aGetfileversi_0
 0001:000FE868       aShrinkerV3_4
 0001:000FE878       aWextract
 0001:000FE888       aSystemCurren_8
 0001:000FE918       aSystemCurren_9
 0001:000FE9AC       a?_8
 0001:000FE9B0       aFfr_0
 0001:000FE9D0       aFailedToAllo_0
 0001:000FE9F8       aFailedMemoryRe
 0001:000FEA1C       aMonth_0
 0001:000FEA24       aDay
 0001:000FEA28       aLocaltime
 0001:000FEA34       aYear_0
 0001:000FEA3C       aLocalTimeUnava
 0001:000FEA54       aUtc
 0001:000FEA58       aUnixepoch
 0001:000FEA64       aStartOf
 0001:000FEA70       aWeekday
 0001:000FEA7C       aInvalid_0
 0001:000FEA85       a22337203685477
 0001:000FEA98       aNull_4
 0001:000FEAA0       aUnopened
 0001:000FEAAC       aApiCallWithSDa
 0001:000FEADC       aWintruncate1
 0001:000FEAEC       aWinwrite2
 0001:000FEAF8       aWinsync1
 0001:000FEB04       aWintruncate2
 0001:000FEB14       aWinclose
 0001:000FEB20       aWinseekfile
 0001:000FEB2C       aWinwrite1
 0001:000FEB38       aWinread
 0001:000FEB40       aSShm
 0001:000FEB48       aWinlocksharedm
 0001:000FEB5C       aWinopenshm
 0001:000FEB68       aReadonly_shm
 0001:000FEB78       aWinfilesize
 0001:000FEB84       aWinsync2
 0001:000FEB90       aWinunlock
 0001:000FEB9C       aWinunlockreadl
 0001:000FEBB0       aOserror0xLxLu
 0001:000FEBC4       aDelayedDmsForL
 0001:000FEBF8       aOs_win_cDLuSSS
 0001:000FEC18       aWinfullpathn_0
 0001:000FEC2C       aWinfullpathnam
 0001:000FEC40       aSCS_0
 0001:000FEC48       aWinaccess
 0001:000FEC54       aWinfullpathn_2
 0001:000FEC68       aWinfullpathn_1
 0001:000FEC7C       aNolock
 0001:000FEC84       aRecoveredDFram
 0001:000FECAC       aImmutable
 0001:000FECB8       aRecoveredDPage
 0001:000FECD4       aWinmapfile1
 0001:000FECE0       aWinunmapfile2
 0001:000FECF0       aEtilqs_
 0001:000FECF8       aWinmapfile2
 0001:000FED04       aWinshmmap2
 0001:000FED10       aWinshmmap1
 0001:000FED1C       aWinunmapfile1
 0001:000FED2C       aWinshmmap3
 0001:000FED38       aWinopen
 0001:000FED40       aWingettempna_3
 0001:000FED50       aWindelete
 0001:000FED5C       aPsow
 0001:000FED64       aWingettempna_1
 0001:000FED74       aWingettempname
 0001:000FED84       aWingettempna_2
 0001:000FED94       aWingettempna_0
 0001:000FEDA4       aBindOnABusyPre
 0001:000FEDCC       aCannotOpenSave
 0001:000FEE00       aAbortAtDInSS
 0001:000FEE18       aCannotReleaseS
 0001:000FEE50       aNoSuchSavepoin
 0001:000FEE68       aZS_0
 0001:000FEE70       aSConstraintFai
 0001:000FEE88       aSMjxxxxxx9xxz
 0001:000FEE98       a_15g
 0001:000FEEA0       aCannotLimitWal
 0001:000FEEBC       a@_0
 0001:000FEEC0       aApiCalledWithN
 0001:000FEEE8       aApiCalledWithF
 0001:000FEF18       aStringOrBlobTo
 0001:000FEF30       aMjCollideS
 0001:000FEF40       aMjDeleteS
 0001:000FEF50       aNonDetermini_0
 0001:000FEF94       aMj06x902x
 0001:000FEFA4       aSS_S
 0001:000FEFB0       aSS_S_S
 0001:000FEFC0       aPartialIndexWh
 0001:000FEFDC       aRowValueMisuse
 0001:000FEFF0       aMisuseOfAliase
 0001:000FF010       aAmbiguousColum
 0001:000FF028       aNoSuchColumn
 0001:000FF038       aNonDeterminist
 0001:000FF058       aSecondArgument
 0001:000FF0A0       aNoSuchFunction
 0001:000FF0B8       aMisuseOfAggr_0
 0001:000FF0DC       aCheckConstrain
 0001:000FF0F0       aIndexExpressio
 0001:000FF104       aThe_Operator
 0001:000FF118       aSProhibitedInS
 0001:000FF12C       aDatabaseSchema
 0001:000FF148       aTooManyLevelsO
 0001:000FF170       aSelectNameRo_0
 0001:000FF1B0       aCannotStartATr
 0001:000FF1E0       aCannotCommitTr
 0001:000FF218       aCannotCommitNo
 0001:000FF244       aCannotRollback
 0001:000FF270       aOutOfMemory
 0001:000FF280       aStatementAbort
 0001:000FF2A0       aOld
 0001:000FF2A4       aNew_1
 0001:000FF2A8       aOutOf
 0001:000FF2B0       aInto
 0001:000FF2B8       aS_3
 0001:000FF2C0       aCannotChangeSW
 0001:000FF2F4       aHexLiteralTooB
 0001:000FF310       a0x_1
 0001:000FF314       aUnknownFunctio
 0001:000FF32C       aMisuseOfAggreg
 0001:000FF348       aSubSelectRetur
 0001:000FF374       aOid
 0001:000FF378       aSOrNameQ
 0001:000FF388       aNameQ
 0001:000FF390       aTbl_nameQ
 0001:000FF39C       aTypeTriggerA_0
 0001:000FF3B4       aRaiseMayOnlyBe
 0001:000FF3E8       aOrder
 0001:000FF3F0       aTooManyTerms_1
 0001:000FF414       aTooManyTermsIn
 0001:000FF434       aROrderByTermDo
 0001:000FF474       aSubqueries
 0001:000FF480       aWrongNumberOfA
 0001:000FF4B0       aRSByTermOutOfR
 0001:000FF4E8       aParameters
 0001:000FF4F4       aDColumnsAssign
 0001:000FF514       aTooManySqlVari
 0001:000FF52C       aBinary_1
 0001:000FF534       aTooManyColum_0
 0001:000FF54C       aGroup
 0001:000FF554       aAGroupByClause
 0001:000FF580       aVariableNumber
 0001:000FF5AC       aAggregateFunct
 0001:000FF5E8       aCreateTableQ_S
 0001:000FF600       aDeleteFromQ__0
 0001:000FF620       aSqlite_alterta
 0001:000FF634       aBbb
 0001:000FF638       aSqlite__0
 0001:000FF644       aTbl
 0001:000FF648       aIdx
 0001:000FF650       aUpdateQ_SSetSq
 0001:000FF7D0       aUpdateSqlite_t
 0001:000FF82C       aUpdateW_sqlite
 0001:000FF868       aTableSMayNot_2
 0001:000FF884       aViewSMayNotBeA
 0001:000FF8A0       aThereIsAlrea_1
 0001:000FF8E0       aUpdateW_SSetSq
 0001:000FF950       aCannotAddACo_0
 0001:000FF980       aCannotAddAColu
 0001:000FF9A0       aVirtualTable_0
 0001:000FF9C4       aCannotAddAUniq
 0001:000FF9E0       aCannotAddAPrim
 0001:000FFA00       aCannotAddANotN
 0001:000FFA38       aCannotAddARefe
 0001:000FFA74       aNoSuchView
 0001:000FFA84       aCorruptDatabas
 0001:000FFA98       aSTCannotRefere
 0001:000FFAC8       aSCannotUseVari
 0001:000FFAE0       aTooManyColum_1
 0001:000FFAF8       aThereIsAlready
 0001:000FFB1C       aDefaultValueOf
 0001:000FFB4C       aDuplicateColum
 0001:000FFB68       aObjectNameRese
 0001:000FFB94       aUnknownDatabas
 0001:000FFBA8       aTableTAlreadyE
 0001:000FFBC0       aDatabaseSIsAlr
 0001:000FFBE0       aTooManyAttache
 0001:000FFC08       aSelectTblIdxSt
 0001:000FFC38       aAttachedDataba
 0001:000FFC7C       aDatabaseIsAlre
 0001:000FFC9C       aUnableToOpenDa
 0001:000FFCB8       aInvalidKeyValu
 0001:000FFCCC       aViewSIsCircula
 0001:000FFCEC       aParametersAreN
 0001:000FFD10       aDeleteFromQ_sq
 0001:000FFD40       aSqlite_statD
 0001:000FFD50       aUpdateQ_SSetTy
 0001:000FFDA8       aCreateS_S
 0001:000FFDB8       aTbl_nameQAndTy
 0001:000FFDDC       aCreateTableQ_s
 0001:000FFE08       aCannotCreateAT
 0001:000FFE3C       aUseDropViewToD
 0001:000FFE5C       aTableSMayNotBe
 0001:000FFE78       aAltertab_
 0001:000FFE84       aSqlite_stat
 0001:000FFE90       aDeleteFromQ__1
 0001:000FFEC8       aUseDropTableTo
 0001:000FFEEC       aTableSMayNot_1
 0001:000FFF14       aCreateTable
 0001:000FFF24       aTableSHasMoreT
 0001:000FFF54       aAutoincrementI
 0001:000FFF8C       aTable_0
 0001:000FFF94       aPrimaryKeyMiss
 0001:000FFFB4       aView_0
 0001:000FFFBC       aView
 0001:000FFFC4       aAutoincrementN
 0001:000FFFF8       aNoSuchCollatio
 0001:00100018       aDuplicateWithT
 0001:00100038       aCannotModifySB
 0001:00100060       aTableSMayNot_0
 0001:00100080       aIndexQ
 0001:00100090       aUnableToOpenAT
 0001:001000D8       aUnableToIdenti
 0001:00100108       aS_rowid
 0001:00100114       aRowsDeleted
 0001:00100124       aExpressionsPro
 0001:00100164       aSqlite_autoind
 0001:0010017C       aConflictingOnC
 0001:001001A8       aVirtualTablesM
 0001:001001CC       aViewsMayNotBeI
 0001:001001E8       aIndexSAlreadyE
 0001:00100200       aThereIsAlrea_0
 0001:00100224       aDeleteFromQ_SW
 0001:00100258       aIndexAssociate
 0001:001002A4       aAJoinClauseIsR
 0001:001002C8       aUsing
 0001:001002D0       aNoSuchIndexS_0
 0001:001002E4       aTableSHasDColu
 0001:00100318       aTableSHasNoCol
 0001:00100338       aGlob
 0001:00100340       aLike
 0001:00100348       aRowid
 0001:00100350       aPk
 0001:00100354       aRowsInserted
 0001:00100364       aDValuesForDCol
 0001:00100380       aHexkey
 0001:00100388       aSafetyLevelMay
 0001:001003C0       aNotAWritableDi
 0001:001003DC       aIisx
 0001:001003E4       aIssisi
 0001:001003EC       aTruncate
 0001:001003F8       aFast
 0001:00100400       aT
 0001:00100404       aIs_0
 0001:00100408       aC_11
 0001:0010040C       aIsix
 0001:00100414       aIss
 0001:00100418       aIsisi
 0001:00100420       aTemporaryStora
 0001:00100460       aExclusive
 0001:0010046C       aInvalidRootpag
 0001:00100480       aUnsupportedFil
 0001:00100498       aMalformedDatab
 0001:001004B8       aZS
 0001:001004C0       aCannotHaveBoth
 0001:001004F8       aANaturalJoinMa
 0001:0010052C       aUnionAll
 0001:00100538       aCannotJoinUsin
 0001:00100578       aStatementTooLo
 0001:0010058C       aRightAndFullOu
 0001:001005C4       aUnknownOrUnsup
 0001:001005F0       aUnsupportedEnc
 0001:0010060C       aAnalyzeW_W
 0001:00100620       aFull
 0001:00100628       aNoSuchTableS
 0001:0010063C       aS_S_S
 0001:00100648       aTooManyColumns
 0001:00100668       aNoTablesSpecif
 0001:0010067C       aRecursiveRefer
 0001:001006A4       aMultipleRecurs
 0001:001006C8       aTooManyReferen
 0001:001006F0       aSubquery_P
 0001:001006FC       aCannotCreateTr
 0001:00100728       aCannotCreate_0
 0001:00100750       aTriggerTAlread
 0001:0010076C       aExpectedDColum
 0001:00100794       aDistinctAggreg
 0001:001007C8       aTemporaryTrigg
 0001:001007F8       aRecursiveAggre
 0001:00100824       a_ZU
 0001:0010082C       aLimit
 0001:00100834       aOrderBy
 0001:00100840       aExcept
 0001:00100848       aIntersect
 0001:00100854       aColumnD
 0001:00100860       aUnion
 0001:00100868       aMultipleRefere
 0001:00100894       aSIsNotAFunctio
 0001:001008AC       aTableSHasDValu
 0001:001008D4       aCircularRefere
 0001:001008EC       aAllValuesMustH
 0001:0010091C       aSClauseShouldC
 0001:00100948       aNoSuchIndexS
 0001:00100960       aSelectsToTheLe
 0001:001009B4       aNameQAndTypeTa
 0001:001009D0       aUpdateQ_SSet_0
 0001:00100A28       aVtableConstr_0
 0001:00100A48       aVtableConstruc
 0001:00100A78       aSelectInsertIn
 0001:00100B10       aSelectSqlFro_0
 0001:00100B5C       aCreateVirtualT
 0001:00100B78       aInsertIntoVacu
 0001:00100BFC       aNocase
 0001:00100C04       aOnClauseRefere
 0001:00100C30       aAutomaticIndex
 0001:00100C4C       aTooManyArgumen
 0001:00100C70       aHidden
 0001:00100C78       aVtableConstr_1
 0001:00100CA8       aNoSuchModuleS
 0001:00100CBC       aDeleteFromQ__2
 0001:00100CF0       aNoSuchTriggerS
 0001:00100D04       aAfter
 0001:00100D0C       aBefore
 0001:00100D14       aCannotCreateIn
 0001:00100D44       aCannotCreateST
 0001:00100D6C       aAttachAsVacuum
 0001:00100D84       aCannotVacuumSq
 0001:00100DB0       aSelectSqlFromW
 0001:00100E1C       aBegin
 0001:00100E24       aNoSuchColumnS
 0001:00100E38       aTriggerS
 0001:00100E48       aCannotVacuumFr
 0001:00100E70       aRowsUpdated
 0001:00100E80       aUnableToCloseD
 0001:00100EC4       aSyntaxErrorAft
 0001:00100EEC       aTooManyTerms_0
 0001:00100F10       aUnknownTableOp
 0001:00100F2C       aParserStackOve
 0001:00100F44       aS_xbestindexMa
 0001:00100F60       aAutoIndex
 0001:00100F6C       aAtMostDTablesI
 0001:00100F88       aNoQuerySolutio
 0001:00100FA0       aTheNotIndexedC
 0001:00100FF8       aTheIndexedByCl
 0001:0010104C       aUnrecognizedTo
 0001:00101068       aIncompleteInpu
 0001:0010107C       aNearTSyntaxErr
 0001:00101094       aSetList
 0001:001010A0       aQualifiedTable
 0001:00101100       aTooManyArgum_0
 0001:00101124       aMisuse
 0001:0010112C       aDatabaseCorrup
 0001:00101140       aCannotOpenFile
 0001:00101154       aTemp_0
 0001:0010115C       aRtrim
 0001:00101164       aSAtLineDOf_10s
 0001:00101180       aAnotherRowAvai
 0001:00101198       aAbortDueToRoll
 0001:001011B0       aUnableToDele_0
 0001:001011F0       aNoMoreRowsAvai
 0001:00101208       aUnknownDatab_0
 0001:00101234       a4bb2294022060e
 0001:00101278       a__10
 0001:00101288       aReindexedescap
 0001:001014B8       aC_12
 0001:001014C0       a4
 0001:001014C8       aC_13
 0001:001014EC       aOnoffalseyestr
 0001:00101548       a0123456789abcd
 0001:0010162C       aNaturaleftoute
 0001:00101660       aAmcoreMpeng_10
 0001:0010169C       aI8Cdigits
 0001:001016B0       aNullPnewparser
 0001:001016C4       a0Unreachable
 0001:001016D8       a0CidsNullRgids
 0001:001016F4       aCidsSize_t1Siz
 0001:00101718       aTagAsn1utctime
 0001:001017A0       aAcos_0
 0001:001017B0       aAsin_0
 0001:001017C0       aAtan
 0001:001017D0       aCos
 0001:001017E0       aLog
 0001:001017F0       aPow_0
 0001:00101810       aSqrt_0
 0001:00101820       aTan
 0001:00109C70       aCuuV?uuuuuu?
 0001:0010B240       aAccessViolatio
 0001:0010B264       aBadDynamic_cas
 0001:0010B400       aDevice
 0001:0010B638       aPragmaNamespac
 0001:0010B850       aOrgid_0
 0001:0010B85C       aAllusersprof_0
 0001:0010B880       aPersonal
 0001:0010B898       aProgramfilesCo
 0001:0010B8C4       aProgram_filesc
 0001:0010B8F0       aProgramfilesX8
 0001:0010B918       aProgram_filesx
 0001:0010B940       aCsidlpersonal
 0001:0010B960       aWindirResource
 0001:0010B988       aCsidlresources
 0001:0010B9AC       aCdBurning
 0001:0010B9C8       aCd_burn
 0001:0010B9DC       aCommonvideo
 0001:0010B9F8       aCommon_video
 0001:0010BA18       aCommonpictures
 0001:0010BA3C       aCommon_picture
 0001:0010BA60       aCommonmusic
 0001:0010BA7C       aCommon_music
 0001:0010BA9C       aAdministrative
 0001:0010BACC       aAdmin_tools
 0001:0010BAE8       aCommonAdminist
 0001:0010BB24       aCommon_admin_t
 0001:0010BB50       aCommonDocument
 0001:0010BB78       aCommon_documen
 0001:0010BBA0       aCommonTemplate
 0001:0010BBC8       aCommon_templat
 0001:0010BBF0       aMyPictures
 0001:0010BC0C       aMypictures
 0001:0010BC28       aWindows_3
 0001:0010BC3C       aProgramdata_1
 0001:0010BC58       aProgramdata_0
 0001:0010BC74       aCommonAppdata
 0001:0010BC98       aHistory_0
 0001:0010BCAC       aHistory
 0001:0010BCC0       aCookies_0
 0001:0010BCD4       aCookies
 0001:0010BCE8       aCache_1
 0001:0010BCF8       aInternet_cache
 0001:0010BD1C       aCommonFavorite
 0001:0010BD44       aCommon_favorit
 0001:0010BD6C       aLocalAppdata_0
 0001:0010BD8C       aLocalappdata
 0001:0010BDAC       aPrinthood_0
 0001:0010BDC4       aPrinthood
 0001:0010BDDC       aAppdata_1
 0001:0010BDF0       aCommonDesktop
 0001:0010BE14       aCommonStartup
 0001:0010BE38       aCommon_startup
 0001:0010BE5C       aCommonPrograms
 0001:0010BE80       aCommon_program
 0001:0010BEA4       aCommonStartMen
 0001:0010BECC       aCommon_startme
 0001:0010BEF4       aTemplates_0
 0001:0010BF0C       aTemplates
 0001:0010BF24       aFonts_0
 0001:0010BF34       aFonts
 0001:0010BF44       aNethood_0
 0001:0010BF58       aNethood
 0001:0010BF6C       aDesktop_0
 0001:0010BF80       aDesktopdirecto
 0001:0010BFA8       aMyVideo
 0001:0010BFC0       aMyvideo
 0001:0010BFD4       aMyMusic
 0001:0010BFEC       aMymusic
 0001:0010C000       aStartMenu
 0001:0010C01C       aStartmenu
 0001:0010C034       aSendto_0
 0001:0010C048       aSendto
 0001:0010C05C       aRecent_0
 0001:0010C070       aRecent
 0001:0010C084       aStartup_1
 0001:0010C098       aStartup
 0001:0010C0AC       aFavorites_1
 0001:0010C0C4       aFavorites_0
 0001:0010C0DC       aMydocuments
 0001:0010C0F8       aPrograms_0
 0001:0010C110       aPrograms
 0001:0010C128       aXpcall
 0001:0010C130       aUnpack
 0001:0010C138       aType_2
 0001:0010C140       aTostring_0
 0001:0010C14C       aTonumber
 0001:0010C158       aSetmetatable
 0001:0010C168       aSetfenv
 0001:0010C170       aSelect_0
 0001:0010C178       aRawset
 0001:0010C180       aRawget
 0001:0010C188       aRawequal
 0001:0010C194       aPcall
 0001:0010C19C       aNext
 0001:0010C1A4       aLoadstring
 0001:0010C1B0       aGetmetatable
 0001:0010C1C0       aGetfenv
 0001:0010C1C8       aGcinfo
 0001:0010C1D0       aError_3
 0001:0010C1D8       aCollectgarba_1
 0001:0010C1E8       aAssert
 0001:0010C1F0       aExepack
 0001:0010C1FC       aTinyprog
 0001:0010C208       aIce
 0001:0010C210       aLzexe
 0001:0010C218       aPklite
 0001:0010C224       aCryptcom
 0001:0010C230       aCorruptedcode
 0001:0010C240       aCom2exe
 0001:0010C24C       aUcexe
 0001:0010C254       aPack
 0001:0010C25C       aDossfx
 0001:0010C268       aMacbinary
 0001:0010C274       aMsg
 0001:0010C27C       aXoredpe
 0001:0010C288       aCryptff
 0001:0010C294       aHddImage
 0001:0010C2A0       aSimboot
 0001:0010C2AC       aOledata
 0001:0010C2B8       aActivemime
 0001:0010C2C8       aCom2sys
 0001:0010C2D4       aBadcom
 0001:0010C2E0       aTeledisk
 0001:0010C2EC       aDoompak
 0001:0010C2F8       aEmbeddedcode
 0001:0010C308       aEncscript_0
 0001:0010C314       aDbgscr
 0001:0010C320       aBase64_0
 0001:0010C32C       aRar_0
 0001:0010C334       aZip_0
 0001:0010C33C       aNrgv2
 0001:0010C344       aNrgv1
 0001:0010C34C       aInfopathstream
 0001:0010C360       aWinsfx
 0001:0010C36C       aRpm
 0001:0010C374       aBzip2
 0001:0010C37C       aZlibstrm
 0001:0010C388       aUif
 0001:0010C390       aDaa
 0001:0010C398       aVc4
 0001:0010C3A0       aLz4
 0001:0010C3A8       aGzip
 0001:0010C3B0       aXz
 0001:0010C3B8       aLzma
 0001:0010C3C0       aZcompress
 0001:0010C3CC       aMpcrypt
 0001:0010C3D8       aMsCompress5
 0001:0010C3E8       aRessms
 0001:0010C3F0       aSystemfileca_3
 0001:0010C404       aNetworkhips
 0001:0010C410       aInternalcmdl_0
 0001:0010C420       aCmdline
 0001:0010C428       aBackupstore
 0001:0010C434       aValidatetrust
 0001:0010C444       aFolderguard_0
 0001:0010C450       aQueryfileioa_0
 0001:0010C464       aInternalioav_0
 0001:0010C478       aIoavstream_1
 0001:0010C484       aWmisensorconfi
 0001:0010C494       aMof
 0001:0010C498       aQueryfilewmi
 0001:0010C4A8       aReswmi
 0001:0010C4B0       aDssspynetconte
 0001:0010C4C4       aFilesstash_0
 0001:0010C4D0       aAdvsamplesubmi
 0001:0010C4EC       aAmsisessioncac
 0001:0010C500       aFriendlyhelper
 0001:0010C510       aWindowscontain
 0001:0010C524       aThreathasheven
 0001:0010C534       aRewsigs
 0001:0010C53C       aAppcompatshim
 0001:0010C54C       aQueryfileproce
 0001:0010C564       aAutoconfigurl
 0001:0010C574       aQueryfileregke
 0001:0010C58C       aRegkeyvalue_0
 0001:0010C598       aReplayablecont
 0001:0010C5AC       aHookwow_1
 0001:0010C5B4       aQueryfilebootr
 0001:0010C5C8       aFilteredtrie
 0001:0010C5D8       aFastpath
 0001:0010C5E4       aChromeextensio
 0001:0010C5F8       aChromeinstall
 0001:0010C608       aFirefoxplugins
 0001:0010C618       aFirefoxextensi
 0001:0010C62C       aFirefoxinstall
 0001:0010C63C       aMapistubdefaul
 0001:0010C64C       aMapistub
 0001:0010C658       aMetastorelowfi
 0001:0010C66C       aPersistedsto_0
 0001:0010C67C       aSfcbuild_0
 0001:0010C688       aUnicode
 0001:0010C690       aProcessmemor_0
 0001:0010C6A4       aCleanfiletel_0
 0001:0010C6B8       aCleanstore
 0001:0010C6C4       aBootrecordclea
 0001:0010C6DC       aXar
 0001:0010C6E0       aDzip
 0001:0010C6E8       aMar_0
 0001:0010C6EC       aFsd
 0001:0010C6F0       aMkplboxsfx
 0001:0010C6FC       aMkplbox
 0001:0010C704       aAr_1
 0001:0010C708       aAutoitscan
 0001:0010C714       aAutoit_0
 0001:0010C71C       a7z
 0001:0010C720       aBmcontroller
 0001:0010C730       aBmsignatureloa
 0001:0010C744       aDfsp
 0001:0010C74C       aSft
 0001:0010C750       aWim
 0001:0010C754       aUdf
 0001:0010C758       aBga
 0001:0010C75C       aBh
 0001:0010C760       aPsf
 0001:0010C764       aAsad
 0001:0010C76C       aNbinder
 0001:0010C774       aSymbsis
 0001:0010C77C       aWise
 0001:0010C784       aMachofat
 0001:0010C790       aInstcrea
 0001:0010C79C       aInnoscan
 0001:0010C7A8       aInno_0
 0001:0010C7B0       aNsv1
 0001:0010C7B8       aNsis_0
 0001:0010C7C0       aC2rdat
 0001:0010C7C8       aIshldnew
 0001:0010C7D4       aIshld
 0001:0010C7DC       aQuantum
 0001:0010C7E4       aImage_0
 0001:0010C7EC       aCf
 0001:0010C7F0       aCpt
 0001:0010C7F4       aSit
 0001:0010C7F8       aCpio
 0001:0010C800       aZoo
 0001:0010C804       aHap
 0001:0010C808       aLh
 0001:0010C80C       aAce_0
 0001:0010C810       aArc
 0001:0010C814       aArj
 0001:0010C818       aTar
 0001:0010C81C       aPst
 0001:0010C820       aMbx
 0001:0010C824       aDbx
 0001:0010C828       aTbb
 0001:0010C82C       aTnef
 0001:0010C834       aBinhex
 0001:0010C83C       aMimen
 0001:0010C844       aChmitss
 0001:0010C84C       aChm
 0001:0010C850       aPdf_1
 0001:0010C854       aRtfn
 0001:0010C85C       aOnenote
 0001:0010C864       aOle2
 0001:0010C86C       aEmb1
 0001:0010C874       aRetarget
 0001:0010C880       aEpoc
 0001:0010C888       aElf
 0001:0010C88C       aTest_dt
 0001:0010C894       aDex
 0001:0010C898       aMenuetbin
 0001:0010C8A4       aPalm
 0001:0010C8AC       aLelx
 0001:0010C8B4       aKv16
 0001:0010C8BC       aMacappl
 0001:0010C8C4       aJoy
 0001:0010C8C8       aMacho
 0001:0010C8D0       aAdotout
 0001:0010C8D8       aLmdb
 0001:0010C8E0       aWord2
 0001:0010C8E8       aWpc
 0001:0010C8EC       aMbasic
 0001:0010C8F4       aJava
 0001:0010C8FC       aBoot_2
 0001:0010C904       aSwf
 0001:0010C908       aHlp
 0001:0010C90C       aNscript
 0001:0010C914       aMacro
 0001:0010C91C       aSect
 0001:0010C924       aRootcertuser_0
 0001:0010C934       aRootcert_0
 0001:0010C940       aRemediationc_0
 0001:0010C958       aRootkittelem_0
 0001:0010C96C       aEms_2
 0001:0010C970       aSubsystemtyp_0
 0001:0010C980       aSecprovider_0
 0001:0010C98C       aHiddendriver
 0001:0010C99C       aDumpfile_0
 0001:0010C9A8       aAppmodel
 0001:0010C9B4       aTcg_0
 0001:0010C9B8       aElam_0
 0001:0010C9C0       aAppsecdll
 0001:0010C9CC       aPostsignatur_0
 0001:0010C9E4       aPoststartupsca
 0001:0010C9F4       aSamplefilero_0
 0001:0010CA08       aPendfile
 0001:0010CA14       aAutoruninf_0
 0001:0010CA20       aSamplefilesu_0
 0001:0010CA3C       aSpynetsigloade
 0001:0010CA4C       aSharedtasksc_0
 0001:0010CA60       aInternalbeha_2
 0001:0010CA74       aQueryfileboo_0
 0001:0010CA88       aInternalboot_0
 0001:0010CAA0       aBootsyncbloc_0
 0001:0010CAB0       aQueryfilegen_0
 0001:0010CAC4       aInternalgens_0
 0001:0010CAD8       aGenstream_0
 0001:0010CAE4       aQueryfileams_1
 0001:0010CAF8       aInternalamsi_1
 0001:0010CB08       aAmsiuac_0
 0001:0010CB10       aQueryfileams_0
 0001:0010CB20       aInternalamsi_0
 0001:0010CB30       aAmsi_0
 0001:0010CB38       aQueryfileweb_0
 0001:0010CB4C       aInternalwebs_0
 0001:0010CB60       aWebscript_0
 0001:0010CB6C       aRootkit_0
 0001:0010CB74       aNtappdll
 0001:0010CB80       aSamplefilehi_0
 0001:0010CB94       aHiddenfile_0
 0001:0010CBA0       aSamplefilere_0
 0001:0010CBB4       aAdaptivesyncqu
 0001:0010CBC8       aBondserializer
 0001:0010CBD8       aQueryfilehookw
 0001:0010CBEC       aQueryfilerts_0
 0001:0010CBFC       aAlternateshell
 0001:0010CC0C       aWallpaper
 0001:0010CC18       aThread_1
 0001:0010CC20       aJitdebugger
 0001:0010CC2C       aActivesetupcom
 0001:0010CC44       aPseudorunkey
 0001:0010CC54       aContainerfil_0
 0001:0010CC64       aExtension_1
 0001:0010CC70       aClass
 0001:0010CC78       aPolicyscript
 0001:0010CC88       aDesktopcompone
 0001:0010CC9C       aSamplefileel_0
 0001:0010CCB0       aNcfile
 0001:0010CCB8       aElamfile
 0001:0010CCC4       aWebfile_0
 0001:0010CCCC       aKnowndll16
 0001:0010CCD8       aKnowndll
 0001:0010CCE4       aTsstartup
 0001:0010CCF0       aUserinitmprl_0
 0001:0010CD08       aAutodialdll
 0001:0010CD14       aExpooffload
 0001:0010CD20       aProtocolnamesp
 0001:0010CD3C       aProtocolhand_0
 0001:0010CD54       aProtocolhandle
 0001:0010CD64       aProtocolfilter
 0001:0010CD74       aPrintprovider
 0001:0010CD84       aTransactionfil
 0001:0010CD94       aPrintmonitor
 0001:0010CDA4       aWinlogonuihost
 0001:0010CDB4       aBootverificati
 0001:0010CDC8       aLsapackage
 0001:0010CDD4       aWinlogontaskma
 0001:0010CDE4       aWinlogonsyst_0
 0001:0010CDF4       aRunonceex
 0001:0010CE00       aShellextappr_0
 0001:0010CE14       aUninstall_0
 0001:0010CE20       aWinlogonuserin
 0001:0010CE34       aIepreapproved
 0001:0010CE44       aIeextapproved
 0001:0010CE54       aIeaddon
 0001:0010CE5C       aIedragdrop
 0001:0010CE68       aIeelevationpol
 0001:0010CE7C       aIephishingfilt
 0001:0010CE90       aIesearchscope
 0001:0010CEA0       aPropertyhandle
 0001:0010CEB0       aStructstorag_0
 0001:0010CEC8       aLinkhandler
 0001:0010CED4       aInfotiphandler
 0001:0010CEE4       aThumbnailhandl
 0001:0010CEF8       aIconhandler
 0001:0010CF04       aDrophandler
 0001:0010CF10       aDatahandler
 0001:0010CF1C       aPropertysheeth
 0001:0010CF34       aDragdrophandle
 0001:0010CF44       aFilelocalcopy
 0001:0010CF54       aCopyhookhandle
 0001:0010CF64       aShelliconove_0
 0001:0010CF78       aFindextension
 0001:0010CF88       aShellservice_3
 0001:0010CFA4       aImagefileexeco
 0001:0010CFBC       aBootexec_0
 0001:0010CFC8       aGinadll
 0001:0010CFD0       aShellcolumnh_3
 0001:0010CFE4       aNtrunkey
 0001:0010CFF0       aDriver_1
 0001:0010CFF8       aFirewallport_0
 0001:0010D008       aTypelib
 0001:0010D010       aTypelibversion
 0001:0010D020       aCommandline_2
 0001:0010D02C       aInterface
 0001:0010D038       aSpecialfolde_1
 0001:0010D048       aWinlogonshell
 0001:0010D058       aTaskschedule_0
 0001:0010D068       aStartup_3
 0001:0010D070       aModuleusage
 0001:0010D07C       aBoot_1
 0001:0010D084       aShareddll_0
 0001:0010D090       aIemain
 0001:0010D098       aIeabout
 0001:0010D0A0       aIesearchurl
 0001:0010D0AC       aIesearch
 0001:0010D0B8       aNsp_0
 0001:0010D0BC       aInifilemap
 0001:0010D0C8       aUsershellfol_2
 0001:0010D0D8       aIeurlsearchhoo
 0001:0010D0E8       aIemenuext
 0001:0010D0F4       aSafeboot_1
 0001:0010D100       aFontdriver
 0001:0010D10C       aFirewallokfile
 0001:0010D11C       aIeshellbrowser
 0001:0010D12C       aIewebbrowser
 0001:0010D13C       aIetoolbar
 0001:0010D148       aScreensaver_0
 0001:0010D154       aAutorun
 0001:0010D15C       aShellopencmd_0
 0001:0010D16C       aGpextension
 0001:0010D178       aWinlognotif
 0001:0010D184       aRestrictrun
 0001:0010D190       aIevext
 0001:0010D198       aIeext
 0001:0010D1A0       aIeplugin
 0001:0010D1AC       aAppinitdll_1
 0001:0010D1B8       aRunonce
 0001:0010D1C0       aRunkey
 0001:0010D1C8       aContextmenu
 0001:0010D1D4       aService_1
 0001:0010D1DC       aProcess_4
 0001:0010D1E4       aFolder_1
 0001:0010D1EC       aActivex_0
 0001:0010D1F4       aLsp_2
 0001:0010D1F8       aShellexechoo_0
 0001:0010D208       aIeexplorerbar
 0001:0010D218       aBho_2
 0001:0010D21C       aClsid_0
 0001:0010D224       aRegkey_2
 0001:0010D22C       aResmgr
 0001:0010D234       aTunnel
 0001:0010D23C       aSysclean
 0001:0010D248       aTrojan
 0001:0010D250       aProc_0
 0001:0010D258       aPattmatch
 0001:0010D264       aSigtree
 0001:0010D26C       aVemulib
 0001:0010D274       aNet_il
 0001:0010D27C       aDt_env
 0001:0010D284       aIl_x86
 0001:0010D28C       aX86_il
 0001:0010D294       aSms_0
 0001:0010D298       aLuastandalone
 0001:0010D2A8       aLua_0
 0001:0010D2AC       aNetvm
 0001:0010D2B4       aVlib
 0001:0010D2BC       aTrustedcontent
 0001:0010D2CC       aPayloadmgr_0
 0001:0010D2D8       aLogskip
 0001:0010D2E0       aAggregator
 0001:0010D2EC       aBhourlwl
 0001:0010D2F8       aBadrecs
 0001:0010D300       aFileutils
 0001:0010D30C       aDllimports
 0001:0010D318       aSubmissionrequ
 0001:0010D32C       aMaintenancewin
 0001:0010D344       aSyncquery
 0001:0010D350       aIsu
 0001:0010D354       aEarlyboot
 0001:0010D360       aDiagnosticscan
 0001:0010D370       aAsyncprocesssc
 0001:0010D384       aAsyncresources
 0001:0010D398       aProfilemgr
 0001:0010D3A4       aRegnotemgr
 0001:0010D3B0       aNotemgr
 0001:0010D3B8       aSysio_0
 0001:0010D3C0       aDummybin
 0001:0010D3CC       aSigroutine
 0001:0010D3D8       aAmunpacker
 0001:0010D3E4       aPefile
 0001:0010D3EC       aDatafile
 0001:0010D3F8       aKcrce
 0001:0010D400       aExpk
 0001:0010D408       aRar5
 0001:0010D410       aRar
 0001:0010D414       aZip_1
 0001:0010D418       aCab_0
 0001:0010D41C       aEadata
 0001:0010D424       aStrm
 0001:0010D42C       aSvfolow
 0001:0010D434       aSvfohigh
 0001:0010D440       aCksig
 0001:0010D448       aMagiccode
 0001:0010D454       aUnplib
 0001:0010D45C       aUfs
 0001:0010D460       aBmsearch
 0001:0010D46C       aThreatmgr
 0001:0010D478       aActions
 0001:0010D480       aMetastore
 0001:0010D48C       aSqlitewrapper
 0001:0010D49C       aTaskmanager
 0001:0010D4A8       aUbermgr
 0001:0010D4B0       aDynamicconfig
 0001:0010D4C0       aRemaperrorcode
 0001:0010D4D0       aAsyncwork
 0001:0010D4DC       aKstore
 0001:0010D4E4       aDbload
 0001:0010D4EC       aDbvars
 0001:0010D4F4       aMachine
 0001:0010D508       aUser_0
 0001:0010D514       aSetluainstrlim
 0001:0010D528       aReadu64
 0001:0010D530       aReadu32
 0001:0010D538       aReadu16
 0001:0010D540       aReadu8
 0001:0010D548       aBitnot
 0001:0010D550       aBitxor
 0001:0010D558       aBitor
 0001:0010D560       aBitand
 0001:0010D568       aRegistryMac_10
 0001:0010D5F0       aRegistryUsersC
 0001:0010D620       aRegistryMach_9
 0001:0010D668       aGistryPerforma
 0001:0010D69C       aGistryUsers
 0001:0010D6BC       aGistryMachine
 0001:0010D6DC       aMpmaxspynetfil
 0001:0010D6F0       aSpynetkillswit
 0001:0010D704       aSpynetbondkill
 0001:0010D718       aSpynetbondresp
 0001:0010D734       aCompetitives_2
 0001:0010D750       aAllowedamsiapp
 0001:0010D774       aMpadaptivesync
 0001:0010D790       aMpadaptivesy_0
 0001:0010D8A8       nullsub_21
 0001:0010DB7C       nullsub_20
 0001:0010E858       nullsub_19
 0001:0010ECB8       aFmscls
 0001:0010ECC0       aFilepathscan
 0001:0010ECD0       aCompiler
 0001:0010ECDC       aPebmpat
 0001:0010ECE4       aFop
 0001:0010ECE8       aPef
 0001:0010ECEC       aLshashscan
 0001:0010ECF8       aPestatic
 0001:0010ED04       aVfs_1
 0001:0010ED08       aPeemusig
 0001:0010ED14       aFssupp
 0001:0010ED1C       aDllsup
 0001:0010ED24       aYield
 0001:0010ED2C       aWrap
 0001:0010ED34       aStatus_0
 0001:0010ED3C       aRunning
 0001:0010ED44       aResume
 0001:0010ED4C       aCreate_2
 0001:0010ED54       aShl64
 0001:0010ED5C       aShl32
 0001:0010ED64       aShl16
 0001:0010ED6C       aShl8
 0001:0010ED74       aSar64
 0001:0010ED7C       aSar32
 0001:0010ED84       aSar16
 0001:0010ED8C       aSar8
 0001:0010ED94       aShr64
 0001:0010ED9C       aShr32
 0001:0010EDA4       aShr16
 0001:0010EDAC       aShr8
 0001:0010EDB4       aBswap64
 0001:0010EDBC       aBswap32
 0001:0010EDC4       aBswap16
 0001:0010EDCC       aRor64
 0001:0010EDD4       aRol64
 0001:0010EDDC       aRor32
 0001:0010EDE4       aRol32
 0001:0010EDEC       aRor16
 0001:0010EDF4       aRol16
 0001:0010EDFC       aRor8
 0001:0010EE04       aRol8
 0001:0010EE0C       aCrc32buffer
 0001:0010EE18       aMd5buffer
 0001:0010EE24       aIsfileopenedby
 0001:0010EE3C       aGetfilenamefro
 0001:0010EE54       aGetprocessfrom
 0001:0010EE6C       aDeleteservice
 0001:0010EE7C       aStopservice
 0001:0010EE88       aGetcommandli_0
 0001:0010EEA4       aEnumerateservi
 0001:0010EEB8       aGetlogicaldriv
 0001:0010EECC       aGetlogicaldr_0
 0001:0010EEE4       aFindfolders
 0001:0010EEF0       aFindfiles
 0001:0010EEFC       aDeletereparsep
 0001:0010EF10       aGetfsownersids
 0001:0010EF24       aApplyfssddl
 0001:0010EF30       aTruncatefilera
 0001:0010EF40       aTruncatefile
 0001:0010EF50       aWritefileraw
 0001:0010EF60       aWritefile
 0001:0010EF6C       aReadfileraw
 0001:0010EF78       aReadfile
 0001:0010EF84       aReadpeheaderra
 0001:0010EF94       aReadpeheader
 0001:0010EFA4       aGetfilelastwri
 0001:0010EFBC       aSetfileattribu
 0001:0010EFD0       aGetfileattri_0
 0001:0010EFE8       aGetfileattribu
 0001:0010EFFC       aGetfilesizeraw
 0001:0010F00C       aGetfilesize
 0001:0010F018       aGetfilefsvolum
 0001:0010F034       aGetlastresult
 0001:0010F044       aExpandfilepath
 0001:0010F054       aMovefile
 0001:0010F060       aDeletefile
 0001:0010F06C       aIsfolderexists
 0001:0010F07C       aIsfileexists
 0001:0010F08C       aDrivernamehash
 0001:0010F09C       aRegexpanduserk
 0001:0010F0B0       aRegenumvalues
 0001:0010F0C0       aRegenumkeys
 0001:0010F0CC       aRegqueryinfoke
 0001:0010F0DC       aDeleteregkey
 0001:0010F0EC       aDeleteregvalue
 0001:0010F0FC       aSetregvalueasq
 0001:0010F110       aSetregvalueasd
 0001:0010F124       aSetregvalueasb
 0001:0010F138       aSetregvalueass
 0001:0010F154       aSetregvalueasm
 0001:0010F170       aSetregvaluea_0
 0001:0010F184       aGetregvalueasq
 0001:0010F198       aGetregvalueasd
 0001:0010F1AC       aGetregvalueasb
 0001:0010F1C0       aGetregvalueasm
 0001:0010F1DC       aGetregvalueass
 0001:0010F1F0       aGetregvaluetyp
 0001:0010F200       aRegopensubkey
 0001:0010F210       aRegopenkeydiff
 0001:0010F220       aRegopenkey
 0001:0010F22C       aGetobjectdir
 0001:0010F23C       aFindobjectindi
 0001:0010F24C       aQuerysymbolicl
 0001:0010F264       aRequestsmsonpr
 0001:0010F278       aTurnnrionproce
 0001:0010F28C       aSettaintedproc
 0001:0010F2A0       aNdatregexpma_0
 0001:0010F2B0       aSnidsearch
 0001:0010F2BC       aNid64search
 0001:0010F2C8       aNidsearch
 0001:0010F2D4       aGetfirmwareenv
 0001:0010F2F4       aQuerydynamic_0
 0001:0010F310       aQuerydynamicco
 0001:0010F32C       aQuerydynamic_1
 0001:0010F344       aReportlowfiw
 0001:0010F354       aReportlowfia
 0001:0010F364       aReportlowfi
 0001:0010F370       aGetdiagnosticc
 0001:0010F384       aDiagnosticconf
 0001:0010F39C       aDeleteglobalmp
 0001:0010F3B4       aSetglobalmpatt
 0001:0010F3CC       aGetglobalmpatt
 0001:0010F3E4       aSetglobalmpa_0
 0001:0010F3FC       aGetglobalmpa_0
 0001:0010F414       aGetscantype
 0001:0010F420       aMpresource_t_8
 0001:0010F438       aMpresource_t_7
 0001:0010F450       aMpresource_t_6
 0001:0010F468       aMpresource_t_5
 0001:0010F480       aMpresource_t_4
 0001:0010F4A0       aMpresource_t_3
 0001:0010F4BC       aMpresource_t_2
 0001:0010F4D4       aMpresource_t_1
 0001:0010F4EC       aMpresource_t_0
 0001:0010F508       aMpresource_typ
 0001:0010F520       aVaultrecords_2
 0001:0010F53C       aVaultrecords_1
 0001:0010F55C       aVaultrecords_0
 0001:0010F578       aVaultrecordsta
 0001:0010F590       aVaultrecordp_1
 0001:0010F5B0       aVaultrecordf_5
 0001:0010F5D0       aVaultrecordf_4
 0001:0010F5F8       aVaultrecordp_0
 0001:0010F614       aVaultrecordf_3
 0001:0010F62C       aVaultrecordpro
 0001:0010F64C       aVaultrecordf_2
 0001:0010F668       aVaultrecordf_1
 0001:0010F688       aVaultrecordf_0
 0001:0010F6A8       aVaultrecordfil
 0001:0010F6C8       aVaultrecordeve
 0001:0010F6E0       aScanreason_gen
 0001:0010F6FC       aScanreason_a_0
 0001:0010F710       aScanreason_ams
 0001:0010F720       aScanreason_onv
 0001:0010F73C       aScanreason_v_0
 0001:0010F760       aScanreason_val
 0001:0010F780       aScanreason_inm
 0001:0010F794       aScanreason_m_0
 0001:0010F7B4       aScanreason_m_1
 0001:0010F7CC       aScanreason_o_0
 0001:0010F7F0       aScanreason_onw
 0001:0010F804       aScanreason_onf
 0001:0010F81C       aScanreason_ono
 0001:0010F830       aScanreason_onm
 0001:0010F844       aScanreason_unk
 0001:0010F858       aBm_taint_other
 0001:0010F868       aBm_taint_prote
 0001:0010F87C       aBm_taint_write
 0001:0010F890       aBm_taint_mapvi
 0001:0010F8A4       aBm_taint_alloc
 0001:0010F8D4       aBm_taint_queue
 0001:0010F8EC       aBm_taint_set_t
 0001:0010F908       aBm_taint_remot
 0001:0010F920       aBm_taint_modul
 0001:0010F930       aBm_taint_none
 0001:0010F940       aSms_scan_high
 0001:0010F950       aSms_scan_med
 0001:0010F960       aSms_scan_low
 0001:0010F970       aSms_scan_once
 0001:0010F980       aSort
 0001:0010F988       aSetn
 0001:0010F990       aRemove_1
 0001:0010F998       aInsert_1
 0001:0010F9A0       aMaxn
 0001:0010F9A8       aGetn
 0001:0010F9B0       aForeachi
 0001:0010F9BC       aForeach
 0001:0010F9C4       aConcat
 0001:0010F9CC       aReverse
 0001:0010F9D4       aRep_0
 0001:0010F9D8       aMatch_0
 0001:0010F9E0       aLen
 0001:0010F9E4       aGsub
 0001:0010F9EC       aFind
 0001:0010F9F4       aDump
 0001:0010F9FC       aChar_0
 0001:0010FA04       aByte_1
 0001:0010FA0C       aIsxbacmode
 0001:0010FA18       aIstestsigned
 0001:0010FA28       aGetloadtime
 0001:0010FA34       aIsdevmode
 0001:0010FA40       aIssxspassive_2
 0001:0010FA54       aIsdbdeveloper
 0001:0010FA64       aGetbranchid
 0001:0010FA70       aIspassivemod_0
 0001:0010FA80       aGetmachinegu_0
 0001:0010FA90       aGettestmode
 0001:0010FA9C       aIspusremoval
 0001:0010FAAC       aIsautosubmit
 0001:0010FABC       aIspus
 0001:0010FAC4       aGetflightingle
 0001:0010FAD8       aIsmba
 0001:0010FAE0       aIsseville
 0001:0010FAEC       aIsmsft
 0001:0010FAF4       aIsenterprise
 0001:0010FB04       aIsserver
 0001:0010FB10       aIsembedded
 0001:0010FB1C       aGetcustomset_0
 0001:0010FB2C       aGetosbuildnumb
 0001:0010FB40       aGetosservicepa
 0001:0010FB54       aIsievenabled
 0001:0010FB64       aGetofflineosve
 0001:0010FB78       aIsoffline
 0001:0010FB84       aIsparanoid
 0001:0010FB90       aIsadvanced
 0001:0010FB9C       aGetlocaleident
 0001:0010FBB0       aGetprocessorar
 0001:0010FBCC       aGetosversion
 0001:0010FBDC       aGetplatformver
 0001:0010FBF0       aGetplatform
 0001:0010FBFC       aGetproductvers
 0001:0010FC10       aGetproduct
 0001:0010FC1C       aIsbeta_2
 0001:0010FC24       aGetenginebuild
 0001:0010FC34       aLoaddbvar
 0001:0010FC40       aGet_exports
 0001:0010FC4C       aGet_imports
 0001:0010FC58       aMetadata_decod
 0001:0010FC68       aGet_netmetadat
 0001:0010FC78       aVm_search
 0001:0010FC84       aGet_postemu__1
 0001:0010FCA4       aGet_postemu__0
 0001:0010FCC4       aGet_postemu_si
 0001:0010FCE4       aSet_image_file
 0001:0010FCF8       aGet_api_id
 0001:0010FD04       aIsvdllimage
 0001:0010FD10       aIsvdllbase
 0001:0010FD1C       aGet_versioninf
 0001:0010FD2C       aXray_block
 0001:0010FD38       aSet_peattribut
 0001:0010FD48       aQuery_import
 0001:0010FD58       aMmap_patch_rva
 0001:0010FD68       aMmap_patch_va
 0001:0010FD78       aIstrusted_rva
 0001:0010FD88       aIstrusted_va
 0001:0010FD98       aIsdynamic_rva
 0001:0010FDA8       aIsdynamic_va
 0001:0010FDB8       aIsencrypted_rv
 0001:0010FDC8       aIsencrypted_va
 0001:0010FDD8       aSet_regval
 0001:0010FDE4       aGet_regval
 0001:0010FDF0       aMmap_string_rv
 0001:0010FE00       aMmap_string_va
 0001:0010FE10       aMmap_rva_nofas
 0001:0010FE24       aMmap_va_nofast
 0001:0010FE38       aMmap_rva
 0001:0010FE44       aMmap_va
 0001:0010FE4C       aReemulate
 0001:0010FE58       aContains_rva
 0001:0010FE68       aContains_va
 0001:0010FE74       aFoffset_rva
 0001:0010FE80       aFoffset_va
 0001:0010FE8C       aMoffset_rva
 0001:0010FE98       aMoffset_va
 0001:0010FEA4       aIsknownfriendl
 0001:0010FEB8       aGetprocesscomm
 0001:0010FED0       aAppendpersis_1
 0001:0010FEE8       aQuerypersist_0
 0001:0010FEFC       aSetpersistcont
 0001:0010FF10       aGetpersistcont
 0001:0010FF24       aIshipsruleenab
 0001:0010FF38       aSethipsrule
 0001:0010FF44       aGet_sigattr_ev
 0001:0010FF5C       aGetdnscacherec
 0001:0010FF78       aIoavgeturlpart
 0001:0010FF88       aIoavgetprocess
 0001:0010FF9C       aIoavgetproce_0
 0001:0010FFB0       aIoavgetdownloa
 0001:0010FFC8       aIoavgetdownl_0
 0001:0010FFDC       aGetcustomset
 0001:0010FFEC       aGetexecutables
 0001:0011000C       aGetexecutabl_0
 0001:0011002C       aGetintegrity_0
 0001:00110044       aGetintegrityle
 0001:0011005C       aGetuacmetadata
 0001:0011006C       aTriggerscanres
 0001:00110080       aGetextensioncl
 0001:00110094       aGetnormalizeds
 0001:001100A8       aGetbrutematchd
 0001:001100BC       aContextualexpa
 0001:001100E4       aGetscansource
 0001:001100F4       aGetresmgrbasep
 0001:00110108       aIstrustedfile
 0001:00110118       aGetcertificate
 0001:0011012C       aCheckurlw
 0001:00110138       aCheckurla
 0001:00110144       aCheckurl
 0001:00110150       aReportinternal
 0001:00110168       aGetmachineguid
 0001:00110178       aGetmotwhostu_0
 0001:00110188       aGetmotwzone
 0001:00110194       aPathtowin32p_1
 0001:001101A4       aGetdatefromtim
 0001:001101B8       aGetcurrenttime
 0001:001101C8       aBase64decode
 0001:001101D8       aUfssetmetada_0
 0001:001101F0       aUfssetmetada_1
 0001:00110208       aUfssetmetada_2
 0001:0011021C       aUfssetmetada_3
 0001:00110234       aUfssetmetada_4
 0001:00110248       aUfssetmetada_5
 0001:0011025C       aUfssetmetada_6
 0001:00110270       aUfsgetmetadata
 0001:00110288       aUfsgetmetada_0
 0001:001102A0       aUfsgetmetada_1
 0001:001102B4       aUfsgetmetada_2
 0001:001102CC       aUfsgetmetada_3
 0001:001102E0       aUfsgetmetada_4
 0001:001102F4       aUfsgetmetada_5
 0001:00110308       aHstr_full_log
 0001:00110318       aIspackedwith
 0001:00110328       aIs_handle_nil
 0001:00110338       aReadfile_by_ha
 0001:0011034C       aGet_filesize_b
 0001:00110364       aGet_parent_fil
 0001:0011037C       aGet_detections
 0001:00110390       aGet_contextdat
 0001:001103A0       aScanpage
 0001:001103AC       aWriteu_u32
 0001:001103B8       aWriteu_u16
 0001:001103C4       aWriteu_u8
 0001:001103D0       aReadu_u32
 0001:001103DC       aReadu_u16
 0001:001103E8       aCrc32_0
 0001:001103F0       aBsplit
 0001:001103F8       aUtf16to8
 0001:00110404       aUtf8to16
 0001:00110410       aReadprotection
 0001:00110420       aChangedetectio
 0001:00110434       aGetclassifierp
 0001:0011044C       aGetclassifierc
 0001:00110460       aGetclassifieri
 0001:00110470       aGetclassifiers
 0001:00110484       aIsoffline_0
 0001:00110490       aIsfriendlyscan
 0001:001104A0       aIsparanoid_0
 0001:001104AC       aGethost
 0001:001104B4       aGetwfilename
 0001:001104C4       aGetfilename
 0001:001104D0       aGetfilesize_0
 0001:001104DC       aReadfile_0
 0001:001104E8       aVfo_add_buff_0
 0001:001104F8       aAggregate_mpat
 0001:00110510       aClear_mpattrib
 0001:00110524       aSet_mpattrib_0
 0001:00110538       aSet_mpattribut
 0001:00110548       aEnum_mpattribu
 0001:00110564       aGet_mpattrib_1
 0001:00110580       aGet_mpattrib_0
 0001:00110598       aGet_mpattribut
 0001:001105A8       aSysiofileexi_1
 0001:001105BC       aGetmotwhosturl
 0001:001105D4       aGetmotwzonefor
 0001:001105E8       aGetmotwforfi_1
 0001:001105F8       aIsmotwforfile
 0001:00110608       aIsmotwforfil_2
 0001:00110618       aGetprocedurema
 0001:00110634       aGetsignaturema
 0001:00110650       aRequest_sms
 0001:0011065C       aTurn_nri_on
 0001:00110668       aSet_process_ta
 0001:0011067C       aGet_process_re
 0001:00110698       aGet_process_no
 0001:001106B4       aAdd_threat_pro
 0001:001106C8       aAdd_related_pr
 0001:001106DC       aAdd_threat_fil
 0001:001106EC       aAdd_related_fi
 0001:00110700       aAdd_action
 0001:0011070C       aSet_fidelity_i
 0001:00110724       aSet_scan_param
 0001:00110734       aGet_current_pr
 0001:00110758       aGet_connection
 0001:00110770       aGet_imagepath
 0001:00110780       aVm_search_msil
 0001:00110794       aVm_search_vbfo
 0001:001107A4       aVm_search_fop6
 0001:001107B4       aVm_search_bitm
 0001:001107C8       aVm_search_bm
 0001:001107D8       aVm_search_fop
 0001:001107E8       aImport_direct
 0001:001107F8       aImport_dynamic
 0001:00110808       aImport_static
 0001:00110818       aReg_eflags
 0001:00110824       aReg_gs
 0001:0011082C       aReg_fs
 0001:00110834       aReg_ss
 0001:0011083C       aReg_es
 0001:00110844       aReg_ds
 0001:0011084C       aReg_cs
 0001:00110854       aReg_eip
 0001:0011085C       aReg_edi
 0001:00110864       aReg_esi
 0001:0011086C       aReg_ebp
 0001:00110874       aReg_esp
 0001:0011087C       aReg_ebx
 0001:00110884       aReg_edx
 0001:0011088C       aReg_ecx
 0001:00110894       aReg_eax
 0001:0011089C       aFopclog2_sz
 0001:001108A8       aFopclog_sz
 0001:001108B4       aOpclog_sz
 0001:001108C0       aImage_direc_13
 0001:001108E8       aImage_direc_12
 0001:0011090C       aImage_direc_11
 0001:00110928       aImage_direc_10
 0001:0011094C       aImage_direct_9
 0001:00110970       aImage_direct_8
 0001:0011098C       aImage_direct_7
 0001:001109AC       aImage_direct_6
 0001:001109D0       aImage_direct_5
 0001:001109EC       aImage_direct_4
 0001:00110A0C       aImage_direct_3
 0001:00110A2C       aImage_direct_2
 0001:00110A4C       aImage_direct_1
 0001:00110A6C       aImage_direct_0
 0001:00110A8C       aImage_director
 0001:00110AAC       aNid_enable_eva
 0001:00110ABC       aNdat_dbtag
 0001:00110AC8       aNdat_regexp_ge
 0001:00110ADC       aNdat_include_d
 0001:00110AF8       aNdat_pdbname_r
 0001:00110B0C       aNdat_pdbpath_r
 0001:00110B20       aNdat_ebhashdat
 0001:00110B30       aNdat_rkpat
 0001:00110B3C       aNdat_api_attri
 0001:00110B50       aNdat_vfs_link
 0001:00110B60       aNdat_logskip_e
 0001:00110B74       aNdat_fire_even
 0001:00110B84       aNdat_dontcount
 0001:00110B98       aNdat_projectna
 0001:00110BB0       aNdat_projectpa
 0001:00110BC8       aNid_enable_ext
 0001:00110BE4       aNid_sms_threat
 0001:00110BF4       aNid_enable_lfr
 0001:00110C04       aNid_pdfuri
 0001:00110C10       aNid_versioned_
 0001:00110C28       aNid_enable_fdr
 0001:00110C38       aNid_scriptsrc
 0001:00110C48       aNid_request_ho
 0001:00110C5C       aNid_filequery_
 0001:00110C70       aNid_filter_no_
 0001:00110C84       aNid_report_a_0
 0001:00110CA0       aNid_old_macro_
 0001:00110CB8       aNid_lowfi_cach
 0001:00110CD4       aNid_continue_c
 0001:00110D00       aNid_has_attrma
 0001:00110D1C       aNid_include_dn
 0001:00110D38       aNid_lowfi_fo_1
 0001:00110D50       aNid_lowfi_fo_0
 0001:00110D70       aNid_lowfi_forc
 0001:00110D88       aNid_apiset_red
 0001:00110D9C       aNid_imphash_si
 0001:00110DAC       aNid_imphash_or
 0001:00110DC8       aNid_lowfi_per_
 0001:00110DDC       aNid_telemetry_
 0001:00110DF4       aNid_extended_r
 0001:00110E08       aNid_report_low
 0001:00110E1C       aNid_noncached_
 0001:00110E30       aNid_filter_sig
 0001:00110E44       aNid_filter_t_1
 0001:00110E60       aNid_persist
 0001:00110E6C       aNid_filter_t_0
 0001:00110E8C       aNid_filter_tru
 0001:00110EA8       aNid_bad_machin
 0001:00110EC0       aNid_appx_goo_0
 0001:00110ED4       aNid_appx_bad_p
 0001:00110EE8       aNid_appx_good_
 0001:00110EFC       aNid_appx_bad_i
 0001:00110F0C       aNid_autolowfi_
 0001:00110F24       aNid_fpcheck_ex
 0001:00110F44       aNid_fpcehck_ex
 0001:00110F68       aNid_synclowfi_
 0001:00110F7C       aNid_pdbpcrc
 0001:00110F88       aNid_inet_domai
 0001:00110F98       aNid_enable_vm_
 0001:00110FB0       aNid_enable_ree
 0001:00110FC8       aNid_deep_api_l
 0001:00110FDC       aNid_disable_th
 0001:00110FFC       aNid_special_ma
 0001:00111018       aNid_dt_enabl_0
 0001:00111030       aNid_dt_disab_1
 0001:0011104C       aNid_uninterest
 0001:00111068       aNid_dt_enable_
 0001:00111088       aNid_dt_disab_0
 0001:001110A8       aNid_interest_0
 0001:001110C0       aNid_il_pattern
 0001:001110D0       aNid_report_as_
 0001:001110E8       aNid_lowfi_ty_1
 0001:001110FC       aNid_lowfi_ty_0
 0001:00111110       aNid_lowfi_type
 0001:00111124       aNid_lowfi_sig
 0001:00111134       aNid_disable_dt
 0001:00111154       aNid_dt_conti_0
 0001:0011117C       aNid_cert_thumb
 0001:00111190       aNid_disable_se
 0001:001111A8       aNid_disable_ap
 0001:001111C0       aNid_delayed_re
 0001:001111D8       aNid_sample_onl
 0001:001111EC       aNid_dt_disable
 0001:00111218       aNid_dt_skip_un
 0001:0011123C       aNid_dt_continu
 0001:0011125C       aNid_w6password
 0001:0011126C       aNid_enable_hst
 0001:00111288       aNid_enable_dee
 0001:001112A4       aNid_enable_vmm
 0001:001112B8       aNid_installe_0
 0001:001112CC       aNid_installer_
 0001:001112E0       aNid_sfx_winrar
 0001:001112F0       aNid_interestin
 0001:00111308       aNid_syscalls_0
 0001:00111324       aNid_syscalls_h
 0001:00111338       aNid_emu_hardco
 0001:00111354       aNid_emu_loop_0
 0001:0011136C       aNid_emu_loopa_
 0001:00111384       aNid_x5_skelcrc
 0001:00111394       aNid_vba_srccrc
 0001:001113A4       aNid_vba_pcrc2
 0001:001113B4       aNid_vba_pcrc1
 0001:001113C4       aNid_jetdbcrc
 0001:001113D4       aNid_actions
 0001:001113E0       aNid_javacrc
 0001:001113EC       aNid_elfalgo
 0001:001113F8       aNid_lmdb
 0001:00111404       aNid_word2
 0001:00111410       aNid_api_polyen
 0001:00111420       aNid_newiframe
 0001:00111430       aNid_newcodebas
 0001:00111440       aNid_skip_crc8
 0001:00111450       aNid_algo_nefil
 0001:00111460       aNid_algo_pefil
 0001:00111470       aNid_vname
 0001:0011147C       aNid_skip_first
 0001:0011148C       aNid_skip_crc16
 0001:0011149C       aNid_unreliab_0
 0001:001114B4       aNid_unreliable
 0001:001114D0       aNid_codebase
 0001:001114E0       aNid_vbpcrc
 0001:001114EC       aNid_iframe
 0001:001114F8       aNid_pealg
 0001:00111504       aNid_lamekcrc
 0001:00111514       aNid_formaction
 0001:00111524       aNid_swf
 0001:0011152C       aNid_irc
 0001:00111534       aNid_ini
 0001:0011153C       aNid_scan_lscn_
 0001:00111550       aNid_scan_end
 0001:00111560       aNid_scan_alg
 0001:00111570       aFilepath_que_4
 0001:0011158C       aFilepath_que_3
 0001:001115A8       aFilepath_que_2
 0001:001115C0       aFilepath_que_1
 0001:001115D8       aFilepath_que_0
 0001:001115EC       aFilepath_query
 0001:00111600       aType_xbac
 0001:0011160C       aType_persist
 0001:0011161C       aType_telemetry
 0001:00111630       aType_async_low
 0001:00111644       aType_sync_lowf
 0001:00111654       aScansource_xba
 0001:00111664       aScansource_sen
 0001:00111678       aScansource_rep
 0001:0011169C       aScansource_r_0
 0001:001116B4       aScansource_gen
 0001:001116CC       aScansource_ams
 0001:001116E0       aScansource_add
 0001:00111700       aScansource_sta
 0001:00111714       aScansource_a_0
 0001:00111724       aScansource_mpu
 0001:00111734       aScansource_mai
 0001:0011174C       aScansource_hea
 0001:00111764       aScansource_rem
 0001:00111784       aScansource_loc
 0001:001117A4       aScansource_ela
 0001:001117B4       aScansource_iep
 0001:001117CC       aScansource_unk
 0001:001117E8       aScansource_cac
 0001:001117FC       aScansource_inf
 0001:00111818       aScansource_spy
 0001:00111834       aScansource_rts
 0001:00111848       aScansource_ucl
 0001:00111858       aScansource_cle
 0001:0011186C       aScansource_ioa
 0001:00111884       aScansource_i_0
 0001:00111898       aScansource_rtp
 0001:001118A8       aScansource_ond
 0001:001118BC       aScansource_sch
 0001:001118D4       aScansource_not
 0001:001118EC       aSecurity_manda
 0001:00111918       aSecurity_man_0
 0001:00111938       aSecurity_man_1
 0001:00111954       aSecurity_man_2
 0001:00111978       aSecurity_man_3
 0001:00111998       aSecurity_man_4
 0001:001119B4       aSecurity_man_5
 0001:001119D8       aToken_elevat_1
 0001:001119F8       aToken_elevat_0
 0001:00111A14       aToken_elevatio
 0001:00111A34       aAmsi_uac_msi_5
 0001:00111A54       aAmsi_uac_msi_4
 0001:00111A70       aAmsi_uac_msi_3
 0001:00111A90       aAmsi_uac_msi_2
 0001:00111AAC       aAmsi_uac_tru_2
 0001:00111ACC       aAmsi_uac_tru_1
 0001:00111AEC       aAmsi_uac_tru_0
 0001:00111B0C       aAmsi_uac_req_4
 0001:00111B30       aAmsi_uac_req_3
 0001:00111B4C       aAmsi_uac_req_2
 0001:00111B68       aAmsi_uac_req_1
 0001:00111B84       aAmsi_uac_req_0
 0001:00111BA0       aContext_dat_27
 0001:00111BB8       aContext_dat_26
 0001:00111BD8       aContext_dat_25
 0001:00111BF4       aContext_dat_24
 0001:00111C10       aContext_dat_23
 0001:00111C34       aContext_dat_22
 0001:00111C58       aContext_data_g
 0001:00111C78       aContext_dat_21
 0001:00111CA0       aContext_dat_20
 0001:00111CBC       aContext_dat_19
 0001:00111CD4       aContext_dat_18
 0001:00111CEC       aContext_dat_17
 0001:00111D08       aContext_dat_16
 0001:00111D28       aContext_dat_15
 0001:00111D4C       aContext_data_o
 0001:00111D68       aContext_dat_14
 0001:00111D84       aContext_dat_13
 0001:00111DA4       aContext_data_r
 0001:00111DC0       aContext_dat_12
 0001:00111DD8       aContext_dat_11
 0001:00111DF0       aContext_dat_10
 0001:00111E0C       aContext_data_9
 0001:00111E28       aContext_data_8
 0001:00111E44       aContext_data_7
 0001:00111E64       aContext_data_c
 0001:00111E80       aContext_data_6
 0001:00111E98       aContext_data_h
 0001:00111EB4       aContext_data_u
 0001:00111EC8       aContext_data_d
 0001:00111EE4       aContext_data_n
 0001:00111F04       aContext_data_s
 0001:00111F1C       aContext_data_5
 0001:00111F34       aContext_data_4
 0001:00111F50       aContext_data_3
 0001:00111F68       aScanreason_ioa
 0001:00111F80       aFooterpage_sz
 0001:00111F90       aHeaderpage_sz
 0001:00111FA0       aAdd_vfo_low_pr
 0001:00111FB8       aAdd_vfo_volati
 0001:00111FCC       aAdd_vfo_pepack
 0001:00111FE0       aAdd_vfo_take_a
 0001:00111FFC       aEnginebuild
 0001:00112008       aHost_arm64
 0001:00112014       aHost_arm
 0001:00112020       aHost_ia64
 0001:0011202C       aHost_x64
 0001:00112038       aBlockexecution
 0001:00112048       aBlockaccess
 0001:00112054       aPersist_1
 0001:0011205C       aTelemetryonl_0
 0001:0011206C       aSynclowfisampl
 0001:00112080       aSynclowfi
 0001:0011208C       aLowfisamplereq
 0001:0011209C       aSamplereq_1
 0001:001120A8       aLowfi_1
 0001:001120B0       aInfected_1
 0001:001120BC       aSuspicious_3
 0001:001120C8       aClean_0
 0001:001120D0       aBm_taint_all_0
 0001:001120E8       aBm_taint_que_0
 0001:00112100       aActiontagfileo
 0001:00112114       aActiontagre_11
 0001:00112134       aActiontagdeskt
 0001:0011214C       aActiontagvolum
 0001:00112168       aActiontagre_10
 0001:00112188       aActiontagreg_9
 0001:001121A8       aActiontagreg_8
 0001:001121C4       aActiontagreg_7
 0001:001121E0       aActiontagreg_6
 0001:00112200       aActiontagetwma
 0001:00112214       aActiontaginter
 0001:0011222C       aActiontagreg_5
 0001:0011224C       aActiontagreg_4
 0001:00112268       aActiontagarmat
 0001:0011227C       aActiontagremot
 0001:00112298       aActiontagvbrch
 0001:001122AC       aActiontagmbrch
 0001:001122C0       aActiontagpro_1
 0001:001122D8       aActiontagdrive
 0001:001122EC       aActiontagmodul
 0001:00112300       aActiontagnet_3
 0001:00112318       aActiontagnet_2
 0001:00112330       aActiontagnet_1
 0001:00112348       aActiontagnet_0
 0001:00112360       aActiontagnetwo
 0001:00112378       aActiontagreg_3
 0001:00112398       aActiontagreg_2
 0001:001123B4       aActiontagreg_1
 0001:001123D0       aActiontagreg_0
 0001:001123EC       aActiontagregis
 0001:00112408       aActiontagfiler
 0001:0011241C       aActiontagfiled
 0001:00112430       aActiontagfil_0
 0001:00112444       aActiontagfol_1
 0001:0011245C       aActiontagfol_0
 0001:00112470       aActiontagfolde
 0001:00112488       aActiontagfilec
 0001:0011249C       aActiontagpro_0
 0001:001124B8       aActiontagproce
 0001:001124D0       aActiontagunkno
 0001:001124E8       aRelationship_0
 0001:00112500       aRelationship_i
 0001:00112518       aRelationship_c
 0001:00112530       aRelationship_n
 0001:00112544       aScan_parameter
 0001:00112564       aScan_paramet_0
 0001:00112580       aScan_paramet_1
 0001:001125A0       aScan_paramet_2
 0001:001125B8       aWindirExplorer
 0001:001125E4       aWindirSystem_3
 0001:00112624       aWindirSystem_4
 0001:00112660       aWindirSystem_5
 0001:001126A0       aSoftwarePoli_6
 0001:00112708       aSoftwareMic_18
 0001:00112778       aSoftwarePoli_7
 0001:001127F8       aSenseorgid
 0001:00112810       aWindirExplor_0
 0001:0011283C       aWindirSystem_6
 0001:0011287C       aWindirSystem_7
 0001:001128B8       aWindirSystem_8
 0001:001128F4       aWindirSystem_9
 0001:00112930       aProgramfile_25
 0001:0011298C       aWindirSyste_10
 0001:001129C4       a?Unc_3
 0001:001129EC       a_writelineSe_0
 0001:00112A08       a_writelineSear
 0001:00112A28       a_writelineDefa
 0001:00112A50       a_writelineHkey
 0001:00112AA4       aClsidR
 0001:00112AAC       a_writer
 0001:00112AB4       a_docR
 0001:00112ABC       a_pathR
 0001:00112AEC       aNewEnumeratorr
 0001:00112AFC       aIf_getdateR
 0001:00112B10       aScripting_file
 0001:00112B2C       aRundll32_exeUs
 0001:00112B50       aClsid06290bd54
 0001:00112B80       aNavigator_syst
 0001:00112BC8       aWindowsTempr
 0001:00112BF4       aIfNot0IfExis_0
 0001:00112C20       aIfNot0IfExist0
 0001:00112C48       aIf0PkunzipSr
 0001:00112C68       aSystemroot_7
 0001:00112C84       aBmexclusions
 0001:00112C94       aBmhardenedproc
 0001:00112CA8       aRegistrywhitel
 0001:00112CBC       aVmprocessprote
 0001:00112CD0       aBmeopmonitored
 0001:00112CE8       aBmscriptlist
 0001:00112CF8       aBmnotaintinjec
 0001:00112D0C       aCfaexemptproce
 0001:00112D2C       aBmproxylist
 0001:00112D38       aIsuinterval
 0001:00112D44       aIsulength
 0001:00112D50       aIsuthrottling
 0001:00112D60       aIsucategory
 0001:00112D6C       aDisableisu
 0001:00112D78       aMaxscriptparse
 0001:00112D90       aMinscriptnorma
 0001:00112DA8       aJsemuMaxinstru
 0001:00112DC0       aJsemuMaxinst_0
 0001:00112DE0       aJsemuMaxregexp
 0001:00112DF8       aJsemuDisableem
 0001:00112E10       aJsemuAlwaysemu
 0001:00112E24       aJsemuAlwayse_0
 0001:00112E40       aJsemuEmulatesu
 0001:00112E58       aJsemuHasstring
 0001:00112E7C       aJsemuHasselfmo
 0001:00112E9C       aJsemuHasbigstr
 0001:00112EB8       aJsemuTriggersn
 0001:00112EDC       aJsemuHasnoifst
 0001:00112EFC       aJsemuHeuristic
 0001:00112F1C       aJsemuMaxmemory
 0001:00112F2C       aJsemuMaxgc
 0001:00112F38       aJsemuBigstring
 0001:00112F54       aJsemuLongarray
 0001:00112F6C       aJsemuLongarr_0
 0001:00112F88       aMinbatvarrepla
 0001:00112FA0       aJsemuMaxscript
 0001:00112FB4       aJsemuMinscript
 0001:00112FC8       aJsemuDefaultti
 0001:00112FE0       aScanprocessmod
 0001:00112FF4       aInheritprocess
 0001:0011300C       aScanprocesscom
 0001:00113024       aHtmlparsingsiz
 0001:0011303C       aHtmldomparsing
 0001:00113054       aHtmlparsingcou
 0001:0011306C       aTriggerscan32
 0001:0011307C       aKernelscan32
 0001:0011308C       aRootkitremedia
 0001:001130A4       aTriggerscan64
 0001:001130B4       aKernelscan64
 0001:001130C4       aRootkitremed_0
 0001:001130DC       aPreremediation
 0001:001130EC       aPostremediatio
 0001:001130FC       aDetectionspeci
 0001:00113110       aProcessinspect
 0001:00113124       aFfr
 0001:00113128       aNetwork_0
 0001:00113130       aBootsectors
 0001:0011313C       aProcessblock_0
 0001:0011315C       aDatabase_1
 0001:00113168       aEnd_0
 0001:0011316C       aMonitor_proces
 0001:00113184       aMonitor_proc_0
 0001:0011319C       aMonitor_lsassr
 0001:001131B4       aRuletype_enter
 0001:001131C8       aRuletype_consu
 0001:001135E0       aAppdata_0
 0001:001135F4       aLocalappdata_0
 0001:00113614       aTemp_2
 0001:00113624       aAsengineconfig
 0001:00113634       aAvengineconfig
 0001:00113644       aExpensivefilet
 0001:0011365C       aMinhtmlcontent
 0001:00113670       aMaxhtmlcontent
 0001:00113684       aDisableieprote
 0001:00113698       aMinieprogctrlh
 0001:001136B0       aMaxieprogctrlh
 0001:001136C8       aDisablecontext
 0001:001136DC       aEnablecontextd
 0001:001136F8       aContainerscann
 0001:00113710       aMpmaxgethashes
 0001:00113724       aMpmaxscandepth
 0001:00113734       aLoopilhash
 0001:00113780       aSoftwareMicr_1
 0001:001137B0       aSoftwareMic_46
 0001:001137DC       aSoftwareMic_45
 0001:00113810       aSoftwareClas_3
 0001:00113828       aSoftwareMic_47
 0001:0011383C       aSoftwareClas_5
 0001:00113858       aSoftwareClas_4
 0001:00113874       aSoftwareClas_7
 0001:00113888       aSoftwareClas_6
 0001:001138CC       aSystemCurre_11
 0001:001138E8       aSoftware_1
 0001:001138F4       aRtpcontextuald
 0001:00113918       aRtpnewfilehint
 0001:00113938       aRtpdesiredacce
 0001:0011395C       aRtpprocessfrie
 0001:00113984       aAlnum_0
 0001:00113990       aAlpha_0
 0001:0011399C       aBlank_0
 0001:001139A8       aBlank
 0001:001139B0       aCntrl_0
 0001:001139BC       aD_1
 0001:001139C0       aD_2
 0001:001139C4       aDigit_0
 0001:001139D0       aGraph_0
 0001:001139DC       aLower_0
 0001:001139E8       aPrint_0
 0001:001139F4       aPunct_0
 0001:00113A00       aSpace_0
 0001:00113A0C       aS_6
 0001:00113A10       aS_7
 0001:00113A14       aUpper_0
 0001:00113A20       aW_0
 0001:00113A24       aW_1
 0001:00113A28       aXdigit_0
 0001:00113A38       aSystemdrive
 0001:00113A54       aPublic_0
 0001:00113A68       aOffice
 0001:00113A78       aJscript_1
 0001:00113A88       aCmd_0
 0001:00113A90       aCscript
 0001:00113AA0       aWscript
 0001:00113AB0       aMshta
 0001:00113ABC       aPowershell
 0001:00113AD4       aExcel
 0001:00113AE0       aPowershell_ise
 0001:00113B00       aOutlook
 0001:00113B10       aOnenote_0
 0001:00113B20       aWinword
 0001:00113B30       aPowerpnt
 0001:00113B44       aMsaccess
 0001:00113B58       aLync
 0001:00113B64       aVisio
 0001:00113B70       aMspub
 0001:00113B7C       aCallbackaddres
 0001:00113B9C       aEventmin
 0001:00113BB0       aApiresults
 0001:00113BC8       aThreadid
 0001:00113BDC       aEventmax
 0001:00113BF0       aHandle
 0001:00113C00       aFlags_0
 0001:00113C0C       aDriverpath
 0001:00113C24       aDrivername
 0001:00113C3C       aExploitinfo
 0001:00113C54       a27wUIcHv_0
 0001:00113D38       aCreationtime
 0001:00113D54       aProcessid_0
 0001:00113D68       aName_4
 0001:00113D74       aVmaccessremo_0
 0001:00113D94       aAccessmask_1
 0001:00113DAC       aPath_3
 0001:00113DB8       aRegistryvalu_0
 0001:00113DD4       aSize_2
 0001:00113DE0       aData_1
 0001:00113DEC       aModulename
 0001:00113E04       aDevicename
 0001:00113E1C       aIsinfected
 0001:00113E34       aIshotpluggable
 0001:00113E54       aThreatid_0
 0001:00113E68       aSigseq_0
 0001:00113E80       aModule_2
 0001:00113E90       aFavorites
 0001:00113EA8       aDesktop
 0001:00113EBC       aAppdataLocalTe
 0001:00113EE8       aAppdataLocalMi
 0001:00113F40       aAppdataLocal
 0001:00113F60       aAppdataLocal_0
 0001:00113FD4       aApplicationDat
 0001:00113FF8       aLocalSettingsA
 0001:0011403C       aLocalSettingsT
 0001:00114068       aLocalSetting_0
 0001:001140BC       aArchsizelimit
 0001:001140CC       aSize_0
 0001:001140D8       aAssociatedfile
 0001:00114104       aReporttype
 0001:0011411C       aStartupuserfol
 0001:00114140       aTaskscheduler
 0001:0011415C       aSuspicious
 0001:00114174       aActive
 0001:00114184       aActivereason
 0001:001141A0       aCsrepos
 0001:001141B0       aCscleanhash
 0001:001141C8       aCsremoteresult
 0001:001141E8       aRootkitthreatr
 0001:00114210       aAremsprocnames
 0001:00114220       aErrorremaps
 0001:0011422C       aStudyid_0
 0001:0011423C       aUnimplemented
 0001:0011424C       aDefender_eng_0
 0001:0011426C       aError_2
 0001:00114278       aDefender_engin
 0001:00114298       aMpclosedatabas
 0001:001142B0       aMpusesandbox
 0001:001142C0       aEnable
 0001:001142D0       aDisable
 0001:001142E0       aComputerdnsn_0
 0001:00114300       aComputernetb_0
 0001:00114328       aMapsgenerate_1
 0001:00114350       aMapssendlate_1
 0001:00114370       aMapsclientla_1
 0001:00114394       aMapshttpstat_1
 0001:001143B4       aMapsreportgu_1
 0001:001143D4       aMapsparselat_1
 0001:001143F8       aMapshresult_1
 0001:00114410       aMapssendover_1
 0001:0011443C       aMapssendurla_1
 0001:00114464       aMapscreateco_1
 0001:00114498       aMapssendrequ_1
 0001:001144C0       aMapsonresolv_2
 0001:001144F0       aMapsonresolv_3
 0001:00114520       aMapsreceiver_1
 0001:00114550       aMapsonsendst_1
 0001:00114578       aMapsonfirsts_1
 0001:001145A8       aMapsonfirstr_1
 0001:001145DC       aMapsonconnec_2
 0001:00114608       aMapsonconnec_3
 0001:00114630       aMapsonsenden_1
 0001:00114654       aMapsreadresp_1
 0001:00114684       aFtwareMicrosof
 0001:001146FC       aFtwarePolicies
 0001:00114780       aMpgearversion
 0001:0011479C       aMpgearversio_0
 0001:001147B8       aSigupdatessi_0
 0001:001147E4       aSigupdatessinc
 0001:00114810       aMinutessincesy
 0001:00114840       aMinutessince_1
 0001:00114870       aMinutessincese
 0001:001148A4       aMinutessince_0
 0001:001148D8       aPartnerguid
 0001:001148F0       aPartnerguid_0
 0001:00114908       aCurrenttimesta
 0001:0011492C       aCurrenttimes_0
 0001:00114950       aSigbackupdis_0
 0001:00114974       aSigbackupdisab
 0001:00114998       aOldmachineguid
 0001:001149B8       aOldmachinegu_0
 0001:001149D8       aSignatureupd_0
 0001:00114A00       aSignatureupdat
 0001:00114A28       aAsimovdeviceti
 0001:00114A50       aAsimovdevice_0
 0001:00114A78       aScanconfigfl_0
 0001:00114A98       aScanconfigflag
 0001:00114AB8       aMpfilterheartb
 0001:00114AE8       aMpfilterhear_0
 0001:00114B18       aUimode_0
 0001:00114B28       aUimode
 0001:00114B38       aRtpconfigflags
 0001:00114B58       aRtpconfigfla_0
 0001:00114B78       aParentprocess
 0001:00114B94       aParentproces_0
 0001:00114BB0       aFilterdriversl
 0001:00114BD4       aLockingprocess
 0001:00114BF8       aInfectedrpfscs
 0001:00114C28       aRpfscsirewblob
 0001:00114C48       aArscanstatus_0
 0001:00114C64       aMftshadowfilec
 0001:00114C98       aSdnrevisionnew
 0001:00114CB8       aThreatnotfound
 0001:00114CD8       aResourceschema
 0001:00114CF8       aSignaturetimes
 0001:00114D20       aIsesusig
 0001:00114D34       aIscloudsignatu
 0001:00114D58       aNewsha1
 0001:00114D68       aNewsha256
 0001:00114D7C       aFilestillexist
 0001:00114D9C       aNewsize
 0001:00114DAC       aDisableblob
 0001:00114DC4       aSignaturematch
 0001:00114DE4       aEnableblob
 0001:00114E04       aScenario_0
 0001:00114E18       aUrl
 0001:00114E20       aIeieversion
 0001:00114E38       aReferrer_0
 0001:00114E4C       aIectrlversion
 0001:00114E68       aIectrlpath
 0001:00114E80       aIeurlzone
 0001:00114E94       aIectrlguid
 0001:00114EAC       aIeframehtml
 0001:00114EC4       aIectrlhtml
 0001:00114EDC       aIeframeurl
 0001:00114EF4       aAmsicontentnam
 0001:00114F14       aAmsiredirectch
 0001:00114F38       aAmsiapp
 0001:00114F48       aAmsisession
 0001:00114F60       aGenstreamapp
 0001:00114F7C       aGenstreamconte
 0001:00114FA0       aGenstreamsessi
 0001:00114FC4       aMoacenabledver
 0001:00114FD8       aSfcextensions
 0001:00114FE8       aMapsurl_0
 0001:00114FF0       aFiltertimeoutl
 0001:00115004       aFiltertimeoutn
 0001:0011501C       aMpmapswdodet_0
 0001:00115044       aMprtpturnoni_0
 0001:00115058       aAdlerrorigno_0
 0001:0011506C       aMpssloptions_0
 0001:0011507C       aMpbatchsampl_0
 0001:00115090       aMpdeviceidth_0
 0001:001150B4       aMpadlfallbac_0
 0001:001150D0       aMpusesha1onl_0
 0001:001150F0       aMpmapsnumthr_1
 0001:00115104       aMpmapsnumthr_2
 0001:00115118       aMpenableback_0
 0001:00115140       aMpenablemaps_0
 0001:0011515C       aMpsamplesubm_4
 0001:00115180       aMpsamplesubm_5
 0001:001151A8       aMpsamplesubm_6
 0001:001151CC       aMpsamplesubm_7
 0001:001151F8       aMpdisablesxs_0
 0001:00115210       aMpdisablesig_0
 0001:00115230       aMpsamplebloc_0
 0001:00115250       aMprecapinter_0
 0001:00115268       aMpdisablenet_1
 0001:00115284       aMpcatchupqui_1
 0001:001152A0       aMpdisablewdo_0
 0001:001152BC       aMpdisablexbo_0
 0001:001152D4       aMpdisablemap_0
 0001:00115300       aMpfastsigupd_0
 0001:00115318       aMpcatchupqui_2
 0001:00115338       aMpdisableadv_0
 0001:00115350       aMpdisablenet_2
 0001:00115368       aFolderguarddis
 0001:00115384       aFolderguardd_0
 0001:001153A0       aProgramfiles_1
 0001:001153C0       aMpbhominsizesc
 0001:001153D4       aMpbhomaxcached
 0001:001153E4       aMpbhodisable
 0001:001153F4       aEndoflifeplat
 0001:00115404       aEndoflifenote
 0001:00115414       aMpbhomaxsizeca
 0001:00115428       aEndoflifesigs
 0001:0011543C       aNtainertype
 0001:00115454       aDefender_eng_2
 0001:00115478       aDefender_eng_1
 0001:00115498       aDefender_eng_3
 0001:001154C0       aDefender_eng_4
 0001:001154EC       aDefender_eng_5
 0001:00115518       aDriver_0
 0001:00117529       aBcdefghijklmno
 0001:0011756C       aAlpha_1
 0001:00117578       aAlpha_2
 0001:00117584       aAlnum_1
 0001:00117590       aAlnum_2
 0001:0011759C       aCntrl_1
 0001:001175A8       aCntrl_2
 0001:001175B4       aBlank_1
 0001:001175C0       aBlank_2
 0001:001175CC       aGraph_1
 0001:001175D8       aGraph_2
 0001:001175E4       aDigit_1
 0001:001175F0       aDigit_2
 0001:001175FC       aPrint_1
 0001:00117608       aPrint_2
 0001:00117614       aLower_1
 0001:00117620       aLower_2
 0001:0011762C       aSpace_1
 0001:00117638       aSpace_2
 0001:00117644       aPunct_1
 0001:00117650       aPunct_2
 0001:0011765C       aXdigit_1
 0001:00117668       aXdigit_2
 0001:00117674       aUpper_1
 0001:00117680       aUpper_2
 0001:0011768C       aNoSuchProcess
 0001:0011769C       aInvalidArgumen
 0001:001176B0       aDeviceOrResour
 0001:001176C8       aResourceUnavai
 0001:001176E8       aResourceDeadlo
 0001:00117708       aOperationNotPe
 0001:0011773C       aInterrupted
 0001:00117748       aId_4
 0001:00117750       aBootimgs
 0001:0011775C       aVfsparams
 0001:001177A8       a_mpclassifierd
 0001:001177BC       a_mpclassifie_0
 0001:001177D0       a_mpclassifie_1
 0001:001177E4       a_mpclassifie_2
 0001:001177F8       aCWindowsSyst_1
 0001:0011782C       aCWindows_1
 0001:00117844       aCWindowsSyst_0
 0001:00117870       aPe_damaged_mac
 0001:00117884       aPe_damaged_sec
 0001:001178A0       aPe_damaged_fil
 0001:001178BC       aPe_damaged_poi
 0001:001178D8       aPe_not_damaged
 0001:001178E8       aPe_damaged_rel
 0001:00117900       aPe_damaged_ove
 0001:00117920       aPe_damaged_opt
 0001:0011793C       aPe_damaged_siz
 0001:00117958       aPe_damaged_vir
 0001:00117974       aPe_damaged_tru
 0001:0011798C       aPe_damaged_spe
 0001:001179A8       aPe_damaged_not
 0001:001179C4       aPe_damaged_inv
 0001:001179DC       aPe_damaged_dec
 0001:001179F4       aPe_damaged_v_0
 0001:00117A0C       aPe_damaged_n_0
 0001:00117A2C       aPe_damaged_ima
 0001:00117A44       aPe_damaged_i_0
 0001:00117A5C       aPe_damaged_uns
 0001:00117A74       aPe_damaged_imp
 0001:00117A88       aPe_damaged_r_1
 0001:00117AA4       aPe_damaged_r_2
 0001:00117AC4       aPe_damaged_ver
 0001:00117ADC       aPe_damaged_r_3
 0001:00117AF0       aPe_damaged_ent
 0001:00117B08       aPe_damaged_s_0
 0001:00117B24       aPe_damaged_res
 0001:00117B40       aPe_damaged_r_0
 0001:00117B5C       aPe_overlapping
 0001:00117B6C       aPe_read
 0001:00117B74       aPe_write
 0001:00117B80       aPe_file
 0001:00117B88       aPe_success
 0001:00117B94       aPe_end_enumera
 0001:00117BA8       aPe_nomemory
 0001:00117BB4       aPe_invalid_opt
 0001:00117BD0       aPe_invalid_s_0
 0001:00117BE8       aPe_invalid_ima
 0001:00117C00       aPe_invalid_sec
 0001:00117C1C       aPe_decompress_
 0001:00117C30       aPe_notimplemen
 0001:00117C44       aPe_unsupported
 0001:00117C68       aPe_invalid_siz
 0001:00117C88       aPe_invalid_s_1
 0001:00117CA4       aPe_invalid_arg
 0001:00117CBC       aPe_invalid_vir
 0001:00117CD4       aPe_invalid_v_0
 0001:00117CF0       aPe_invalid_fil
 0001:00117D0C       aPe_invalid_dos
 0001:00117D28       aPe_invalid_e_l
 0001:00117D3C       aPe_invalid_nt_
 0001:00117D54       aPe_invalid_dat
 0001:00117D64       aPe_error_reser
 0001:00117D78       aPe_invalid_raw
 0001:00117D90       aPe_invalid_r_0
 0001:00117DA4       aPe_invalid_rva
 0001:00117DB4       aPe_invalid_exp
 0001:00117DC8       aMpmaxstaticfil
 0001:00117DDC       aMpmaxcontainer
 0001:00117DFC       aAi
 0001:0011D6A8       aJWNOVOOSACBB_E
 0001:0011D79E       aA_12
 0001:00123D20       aM_m_m_m_x___d_
 0001:0012C514       a789?@
 0001:0012C550       aQC
 0001:0012C564       aPpnp
 0001:0012C56C       aIJKC
 0001:0012C5B0       aNM
 0001:0012C63C       aUCpqp
 0001:0012C64C       aOpd
 0001:0012C6C0       aUnfoem
 0001:0012C73C       aN_9
 0001:0012C764       aPupxpduUcn
 0001:0012C86C       aC_14
 0001:0012C9B6       a_0123D
 0001:0012D1FC       aVRSF
 0001:0012D2B5       a_0123F
 0001:0012DB74       aJKLMNOPQRS
 0001:0012DB8E       aTU
 0001:0012E4E6       a_0N
 0001:0012E578       aBCDEFGHI
 0001:0012E7B0       aL_m_n_o_p_q_r_
 0001:0012EA38       a66789?@ABD
 0001:0012ED30       aA0b0c0d0e0f0g0
 0001:0012EF74       aI1j1k1l1m1n1o1
 0001:0012F1E8       a222_22021222o
 0001:0012F1FA       aE_19
 0001:0012F268       aT2u2v2w2x2o
 0001:0012F340       aS2s22i22a2u2q2
 0001:0012F354       aB2v2g2d2
 0001:0012F35E       aE2j2z22i2
 0001:0012F3B8       a222222222
 0001:0012F430       aT2u2f2x2c2c2s2
 0001:00130030       aB_1
 0001:00130438       a9
 0001:001304A0       aRrrr
 0001:0014C9A0       aS_17
 0001:0014C9A6       aI_5
 0001:0014CBE0       aAaaa
 0001:00150FB8       aSssssssss
 0001:00151558       aSssssssss_0
 0001:00151858       aSsssssssss
 0001:00152538       aPpppppppp
 0001:00152A28       aWwwwwwww
 0001:00153738       aIiiiiiiiii
 0001:00153BBC       aP_8
 0001:00163518       aEeeee
 0001:00165878       aFfff
 0001:00166318       aEeee
 0001:00167818       aYyff1
 0001:0016F5D8       aGgg
 0001:0016F7F8       aGgg_0
 0001:0016F978       aGggg
 0001:0016FE00       aPppp
 0001:0016FEF8       aGhh
 0001:0016FF5C       aBbb_0
 0001:0016FF78       aCddd
 0001:0016FFF8       a_X
 0001:001700DC       aUuu
 0001:001700F8       aVwww
 0001:00170138       aTuuuz
 0001:00170144       aUuusjvv
 0001:00170178       aRss
 0001:00170180       aJssssqDd
 0001:001701B8       aPqqq
 0001:001701C4       aQqqoall
 0001:001701F8       aNoooaooo
 0001:0017024C       aMbb
 0001:001703D8       a1222
 0001:00170418       aJkkkakkkkiV
 0001:00170AF8       aYzzz
 0001:00170B1C       aIii
 0001:00170CA0       aOooo
 0001:00170D38       aEfffiffff
 0001:00171098       aEfff
 0001:001713EC       aY_2
 0001:001715F8       a7eeeueeee6
 0001:00171BE0       aYyyy
 0001:001736C0       aFfff_0
 0001:001744FC       aBbbbb
 0001:00175478       a?ppp
 0001:00175858       aIjj
 0001:0017725C       aSss
 0001:001772DC       aUuu_0
 0001:00177CFC       aUuu_1
 0001:00178998       aIjjj
 0001:001789BC       a555
 0001:001789D8       aUvvv
 0001:00179E58       aIjjj_0
 0001:0017C5E8       aKkkkkkkk
 0001:0017CF88       aAAAAAAAA
 0001:00181ED8       aSs
 0001:00181FB8       aSs_0
 0001:00183278       aIjjj_1
 0001:001910E0       aSsss
 0001:0019C578       aTolocalestring
 0001:0019C588       aTofixed
 0001:0019C590       aToexponential
 0001:0019C5A0       aToprecision
 0001:0019C5AC       aHasownproperty
 0001:0019C5BC       aPropertyisenum
 0001:0019C5D4       aIsprototypeof
 0001:0019C5E4       aLocalecompare
 0001:0019C5F4       aLastindexof
 0001:0019C600       aReplace_1
 0001:0019C608       aCharcodeat
 0001:0019C614       aCharat
 0001:0019C61C       aIndexof
 0001:0019C624       aTolocalelowerc
 0001:0019C638       aTolowercase
 0001:0019C644       aTolocaleupperc
 0001:0019C658       aTouppercase
 0001:0019C664       aSlice
 0001:0019C66C       aSearch
 0001:0019C674       aSubstring
 0001:0019C680       aSplit
 0001:0019C688       aSubstr
 0001:0019C690       aFromcharcode
 0001:0019C6A0       aApply
 0001:0019C6A8       aPush
 0001:0019C6B0       aJoin
 0001:0019C6B8       aUnshift
 0001:0019C6C0       aShift
 0001:0019C6C8       aSplice
 0001:0019C6D0       aAtan2
 0001:0019C6D8       aAtan_0
 0001:0019C6E0       aCos_0
 0001:0019C6E4       aCeil
 0001:0019C6EC       aAbs
 0001:0019C6F0       aAsin
 0001:0019C6F8       aAcos
 0001:0019C700       aPow
 0001:0019C704       aRound
 0001:0019C70C       aRandom
 0001:0019C714       aFloor
 0001:0019C71C       aExp
 0001:0019C720       aLog_0
 0001:0019C724       aSqrt
 0001:0019C72C       aSin
 0001:0019C730       aTan_0
 0001:0019C734       aGetfullyear
 0001:0019C740       aGettime
 0001:0019C748       aGetmonth
 0001:0019C754       aGetutcfullyear
 0001:0019C764       aTotimestring
 0001:0019C774       aTodatestring
 0001:0019C784       aTolocaletimest
 0001:0019C798       aTolocaledatest
 0001:0019C7AC       aGethours
 0001:0019C7B8       aGetutcday
 0001:0019C7C4       aGetminutes
 0001:0019C7D0       aGetutchours
 0001:0019C7DC       aGetdate
 0001:0019C7E4       aGetutcmonth
 0001:0019C7F0       aGetday
 0001:0019C7F8       aGetutcdate
 0001:0019C804       aGettimezoneoff
 0001:0019C818       aGetutcmillisec
 0001:0019C82C       aSetmillisecond
 0001:0019C83C       aSettime
 0001:0019C844       aGetseconds
 0001:0019C850       aGetutcminutes
 0001:0019C860       aGetmillisecond
 0001:0019C870       aGetutcseconds
 0001:0019C880       aSethours
 0001:0019C88C       aSetutcminutes
 0001:0019C89C       aSetdate
 0001:0019C8A4       aSetutchours
 0001:0019C8B0       aSetseconds
 0001:0019C8BC       aSetutcmillisec
 0001:0019C8D0       aSetminutes
 0001:0019C8DC       aSetutcseconds
 0001:0019C8EC       aToutcstring
 0001:0019C8F8       aSetutcfullyear
 0001:0019C908       aSetyear
 0001:0019C910       aGetyear
 0001:0019C918       aSetmonth
 0001:0019C924       aSetutcdate
 0001:0019C930       aSetfullyear
 0001:0019C93C       aSetutcmonth
 0001:0019C948       aUtc_0
 0001:0019C94C       aParse
 0001:0019C954       aExec_0
 0001:0019C95C       aTest
 0001:0019C964       aItem
 0001:0019C96C       aName_1
 0001:0019C974       aJavaenabled
 0001:0019C980       aTaintenabled
 0001:0019C991       a123456789abc_0
 0001:0019C9B8       aSystemCurre_14
 0001:0019CA10       aSystemCurre_15
 0001:0019CA64       aEarlybootsigna
 0001:0019CA80       aCleanstoreloca
 0001:0019CA94       aOsver_1
 0001:0019CAEC       aMpurldata8
 0001:0019CAF8       aDetermination
 0001:0019CB14       aActionstatus
 0001:0019CB30       aCollectreason
 0001:0019CB4C       aTokenelevation
 0001:0019CB74       aTokenelevati_0
 0001:0019CB94       aProcessstartup
 0001:0019CBC0       aIntegritylevel
 0001:0019CBE0       a_remnants
 0001:0019CBED       aPnmoMoacrevoca
 0001:0019CC0C       aMoacrevocation
 0001:0019CC20       aBm_gif_file
 0001:0019CC2C       aBm_bmp_file
 0001:0019CC38       aBm_jpg_file
 0001:0019CC44       aBm_png_file
 0001:0019CC50       aFlush
 0001:0019CC58       aCertsigseq
 0001:0019CC64       aNone_1
 0001:0019CC6C       aOem
 0001:0019CC70       aMpfastkcrcex_0
 0001:0019CC84       aMpfastkcrcfi_0
 0001:0019CC98       aMpwstrimtimein
 0001:0019CCC4       aHasdeclsecurit
 0001:0019CCE0       aHasfieldmarsha
 0001:0019CCF8       aHassemantic
 0001:0019CD0C       aMemberrefparen
 0001:0019CD28       aTypedeforref
 0001:0019CDD4       aHascustomattri
 0001:0019CE48       aHasconstant
 0001:0019CE54       aTypeormethodde
 0001:0019CE6C       aResolutionscop
 0001:0019CEC8       aMemberforwarde
 0001:0019CEE0       aMethoddeforref
 0001:0019CF00       aCustomattribut
 0001:0019CF28       aImplementati_0
 0001:0019CF38       aA_1
 0001:0019D124       a_com
 0001:0019D130       a_bat
 0001:0019D13C       a_cmd
 0001:0019D148       a_dll_1
 0001:0019D158       aSoftwareMic_49
 0001:0019D1DC       aEnvironment
 0001:0019D1F4       aProgramfiles_0
 0001:0019D224       aProgramfilesdi
 0001:0019D248       aCommonfilesdir
 0001:0019D270       aSoftwareMic_48
 0001:0019D2C8       aSystemCurre_12
 0001:0019D338       aSystemCurrentc
 0001:0019D3B4       aVolatileEnviro
 0001:0019D3E0       aProman_updatet
 0001:0019D3F8       aSystemdriveDoc
 0001:0019D444       aProfilesdire_0
 0001:0019D470       aSourceip
 0001:0019D484       aSourceport
 0001:0019D4A0       aHeartbeaterr_2
 0001:0019D4CC       aHeartbeaterr_1
 0001:0019D4F8       aExclusionvalue
 0001:0019D518       aExclusiontype
 0001:0019D534       aExclusion_0
 0001:0019D548       aExclusions
 0001:0019D560       aHeartbeatfunct
 0001:0019D590       aHeartbeatfeatu
 0001:0019D5BC       aHeartbeaterr_0
 0001:0019D5DC       aHeartbeaterror
 0001:0019D5FC       aSampletype
 0001:0019D614       aSample
 0001:0019D624       aSamples
 0001:0019D634       aSampleparamete
 0001:0019D654       aSampledata
 0001:0019D66C       aProxyserver
 0001:0019D684       aCachedaccess_0
 0001:0019D6A8       aCachedaccessty
 0001:0019D6CC       aCachedproxys_0
 0001:0019D6F0       aLastquickscana
 0001:0019D714       aProxypacurl_0
 0001:0019D72C       aProxypacurl
 0001:0019D744       aProxyserver_0
 0001:0019D75C       aCachedproxyser
 0001:0019D780       aBmstarttime
 0001:0019D798       aBmnotification
 0001:0019D7C0       aMachinename
 0001:0019D7D8       aRtpstate_0
 0001:0019D7EC       aLastfullscan_0
 0001:0019D80C       aLastfullscanag
 0001:0019D82C       aLastquicksca_0
 0001:0019D850       aHasavcompatval
 0001:0019D874       aValuehash
 0001:0019D888       aValuesize
 0001:0019D89C       aBiosreleased_0
 0001:0019D8BC       aBiosversion_0
 0001:0019D8D4       aValuestart
 0001:0019D8EC       aVariableattrib
 0001:0019D914       aVariablename
 0001:0019D930       aFirmwareenvi_0
 0001:0019D968       aNamespaceguid
 0001:0019D984       aFirmwareenviro
 0001:0019D9C0       aReswin32action
 0001:0019D9EC       aWin32actionsta
 0001:0019DA10       aRemediationche
 0001:0019DA3C       aRpfremediation
 0001:0019DA68       aConnectedtoi_0
 0001:0019DA90       aRemoteport
 0001:0019DAA8       aRemoteip
 0001:0019DABC       aProtocol
 0001:0019DAD0       aLocalport_1
 0001:0019DAE4       aPreference
 0001:0019DAFC       aMxname
 0001:0019DB0C       aIpv6datahigh
 0001:0019DB28       aIpv6datalow
 0001:0019DB40       aDnscache
 0001:0019DB54       aPointerdata
 0001:0019DB6C       aText_0
 0001:0019DB78       aTxtrecord
 0001:0019DB8C       aIpv4data
 0001:0019DBA0       aRecordname
 0001:0019DBB8       aDnsname
 0001:0019DBC8       aDnsrecord
 0001:0019DBDC       aPrevalentfiler
 0001:0019DC10       aPrevalenturlre
 0001:0019DC38       aPrevalentfil_0
 0001:0019DC60       aCorereport
 0001:0019DC78       aOriginalsha1_0
 0001:0019DC94       aOriginalsigs_1
 0001:0019DCB4       aLoopilhash_1
 0001:0019DCCC       aScanmode
 0001:0019DCE0       aSigsha_0
 0001:0019DCE8       aOriginalsha2_1
 0001:0019DD08       aOriginalsize_0
 0001:0019DD24       aTriggersigseqs
 0001:0019DD4C       aThreatidex
 0001:0019DD64       aContainertype
 0001:0019DD80       aFileaccess
 0001:0019DD98       aIsincontainer
 0001:0019DDB4       aAllsigshas_0
 0001:0019DDCC       aAllsigseqs_0
 0001:0019DDE4       aFriendlysigseq
 0001:0019DE10       aFriendlysuppre
 0001:0019DE38       aIscontainer
 0001:0019DE50       aChecksum
 0001:0019DE64       aCpuarch
 0001:0019DE74       aIsruntimepacke
 0001:0019DE94       aSubtype
 0001:0019DEA4       aFiledevicetype
 0001:0019DEC4       aFilesystem
 0001:0019DEDC       aVal
 0001:0019DEE4       aTargetdiskfree
 0001:0019DF04       aTargetdisksize
 0001:0019DF24       aFiledevicechar
 0001:0019DF58       aBinaryurl
 0001:0019DF6C       aCrc32
 0001:0019DF78       aOwnersid
 0001:0019DF8C       aLastmodifiedti
 0001:0019DFB0       aSigningtime
 0001:0019DFC8       aCertinvaliddet
 0001:0019DFF0       aLastaccessedti
 0001:0019E014       aTobesignedhash
 0001:0019E034       aIscatalogsigne
 0001:0019E054       aDsssource
 0001:0019E068       aScansource
 0001:0019E080       aSignaturereque
 0001:0019E0A4       aRtsd
 0001:0019E0B0       aRttimehistory
 0001:0019E0CC       aRttimestddev
 0001:0019E0E8       aAveragerttime
 0001:0019E104       aSdn
 0001:0019E10C       aReportquery
 0001:0019E124       aIpv4source
 0001:0019E13C       aUri
 0001:0019E144       aProtocolid
 0001:0019E15C       aIpv6sourcehigh
 0001:0019E17C       aIpv6sourcelow
 0001:0019E198       aDestinationpor
 0001:0019E1B8       aIpv4destinatio
 0001:0019E1D8       aTimestamp
 0001:0019E1EC       aNetworkconnect
 0001:0019E220       aIpv6destinat_0
 0001:0019E248       aIpv6destinatio
 0001:0019E270       aRealpath_scr_0
 0001:0019E294       aResearchdata_1
 0001:0019E2C0       aWebfileurl_s_0
 0001:0019E2E8       aVpath_scrubb_0
 0001:0019E308       aLowintegrity_0
 0001:0019E32C       aMotwhosturl__0
 0001:0019E358       aClassifiersc_4
 0001:0019E378       aVsssnapshottim
 0001:0019E398       aQuarantinesize
 0001:0019E3B8       aSystemdiskfree
 0001:0019E3D8       aSystemdisksize
 0001:0019E3F8       aVsspathscount
 0001:0019E414       aVsssnapshotcou
 0001:0019E438       aVsssnapshoterr
 0001:0019E45C       aActionname
 0001:0019E474       aAutomaticstep
 0001:0019E490       aRemediationsta
 0001:0019E4C0       aCompetitivesec
 0001:0019E4FC       aAdditionalfail
 0001:0019E528       aErrorcode
 0001:0019E53C       aMultiprocess
 0001:0019E558       aProcesstaintin
 0001:0019E57C       aProcesstainted
 0001:0019E59C       aEnforcerestric
 0001:0019E5D0       aBmeventids
 0001:0019E5E8       aBehaviorreport
 0001:0019E608       aLevel
 0001:0019E614       aSignature
 0001:0019E628       aScore
 0001:0019E634       aRegistryvalue
 0001:0019E650       aRegvaluename
 0001:0019E66C       aReghive
 0001:0019E67C       aTablehook
 0001:0019E690       aParticipatingm
 0001:0019E6B8       aBehavior_0
 0001:0019E6CC       aTo_0
 0001:0019E6D4       aFrom
 0001:0019E6E0       aRegistrymanipu
 0001:0019E70C       aDeviation
 0001:0019E720       aOffset
 0001:0019E730       aProcessmodifie
 0001:0019E750       aDescription_0
 0001:0019E768       aFunctionname
 0001:0019E784       aFunctionindex
 0001:0019E7A0       aTablename
 0001:0019E7B4       aTableid
 0001:0019E7C4       aAddress_0
 0001:0019E7D4       aHookchain
 0001:0019E7E8       aSensorid
 0001:0019E7FC       aFeatureid
 0001:0019E810       aInternalinfo
 0001:0019E82C       aArdata
 0001:0019E83C       aArscore
 0001:0019E84C       aBehaviorvalue
 0001:0019E868       aBehaviorname
 0001:0019E884       aInternalbeha_0
 0001:0019E8A8       aSignatureid
 0001:0019E8C0       aNetworkaccess
 0001:0019E8DC       aSourceaddress
 0001:0019E8F8       aDestinationadd
 0001:0019E920       aNridata
 0001:0019E930       aDetectionnam_0
 0001:0019E94C       aArsigid
 0001:0019E95C       aAntirootkit_0
 0001:0019E974       aNrisigid
 0001:0019E988       aDesktopaccess
 0001:0019E9A4       aIskernel
 0001:0019E9B8       aIsduplicate
 0001:0019E9D0       aDesktopname
 0001:0019E9E8       aAccessmask
 0001:0019EA00       aTargetimage
 0001:0019EA18       aTargetpid
 0001:0019EA2C       aOpenprocessbeh
 0001:0019EA54       aDevicename_0
 0001:0019EA6C       aVolumemountbeh
 0001:0019EA94       aModulelist
 0001:0019EAAC       aBehaviordetail
 0001:0019EACC       aDesktopbehavio
 0001:0019EAEC       aBootsectorbase
 0001:0019EB1C       aIsinfected_0
 0001:0019EB34       aIshotpluggab_0
 0001:0019EB54       aVmaccessremove
 0001:0019EB74       aFullpath_0
 0001:0019EB88       aDependentfile
 0001:0019EBA4       aMpmapsdependen
 0001:0019EBC8       aDynamicloaded
 0001:0019EBE4       aFilelocation
 0001:0019EC00       aDefender_eng_7
 0001:0019EC1C       aDefender_eng_6
 0001:0019EC44       aDefender_en_10
 0001:0019EC60       aDefender_en_11
 0001:0019EC7C       aRawscanlocatio
 0001:0019EC90       aDefender_eng_9
 0001:0019ECB0       aDefender_eng_8
 0001:0019ECD0       aRtf1AnsiMacDef
 0001:001A104C       aJ_1
 0001:001A1054       aJJ
 0001:001A105E       aR_9
 0001:001A1060       aVyBaddjghijkko
 0001:001A1854       a102030322
 0001:001A1A34       aOptTTaTRT
 0001:001A2750       aFastpathconfig
 0001:001A2760       aDefender_en_13
 0001:001A2784       aDefender_en_12
 0001:001A27A0       aMpcampgradua_0
 0001:001A27B8       aMppayloaddata
 0001:001A27C8       aMpgradualeng_0
 0001:001A27E0       aProgramfilesWi
 0001:001A2818       aWindirAssembly
 0001:001A2858       aProduct_epp
 0001:001A2864       aProduct_mpsc_0
 0001:001A287C       aProduct_campas
 0001:001A2890       aProduct_system
 0001:001A28A8       aProduct_sco
 0001:001A28B4       aProduct_fep
 0001:001A28C0       aProduct_mpscan
 0001:001A28D0       aProduct_scep
 0001:001A28E0       aProduct_defe_0
 0001:001A28F4       aProduct_wdo
 0001:001A2900       aProduct_stirli
 0001:001A2914       aProduct_mse
 0001:001A2920       aProduct_unknow
 0001:001A2930       aProduct_ver_11
 0001:001A2948       aProduct_ver_12
 0001:001A2960       aProduct_ver_13
 0001:001A297C       aProduct_ver_14
 0001:001A2998       aProduct_vers_7
 0001:001A29B8       aProduct_vers_8
 0001:001A29D8       aProduct_vers_9
 0001:001A29F8       aProduct_ver_10
 0001:001A2A14       aProduct_vers_3
 0001:001A2A28       aProduct_vers_4
 0001:001A2A48       aProduct_vers_5
 0001:001A2A68       aProduct_vers_6
 0001:001A2A88       aProduct_msrt
 0001:001A2A98       aProduct_msert
 0001:001A2AA8       aProduct_mpgear
 0001:001A2ABC       aProduct_mpge_0
 0001:001A2AD8       aPlatform_ver_1
 0001:001A2AF0       aPlatform_ver_2
 0001:001A2B08       aPlatform_ver_3
 0001:001A2B20       aPlatform_ver_4
 0001:001A2B38       aPlatform_torin
 0001:001A2B48       aPlatform_camp
 0001:001A2B58       aPlatform_versi
 0001:001A2B6C       aPlatform_ver_0
 0001:001A2B88       aPlatform_old
 0001:001A2B98       aPlatform_atlan
 0001:001A2BAC       aPlatform_nagan
 0001:001A2BBC       aPlatform_slc
 0001:001A2BCC       aProduct_ver_15
 0001:001A2BE8       aProduct_ver_16
 0001:001A2C04       aProduct_ver_17
 0001:001A2C20       aPlatform_na
 0001:001A2C2C       aPlatform_ve_13
 0001:001A2C44       aPlatform_ver_9
 0001:001A2C5C       aPlatform_ve_10
 0001:001A2C74       aPlatform_ve_11
 0001:001A2C8C       aPlatform_ve_12
 0001:001A2CA4       aPlatform_ver_5
 0001:001A2CBC       aPlatform_ver_6
 0001:001A2CD4       aPlatform_ver_7
 0001:001A2CEC       aPlatform_ver_8
 0001:001A2D04       aDbvar_b
 0001:001A2D0C       aDbvar_raw
 0001:001A2D18       aDbvar_array_wi
 0001:001A2D30       aDbvar_array__0
 0001:001A2D44       aDbvar_array__1
 0001:001A2D5C       aDbvar_widestri
 0001:001A2D70       aDbvar_stringn
 0001:001A2D80       aDbvar_array_st
 0001:001A2D94       aDbvar_widest_0
 0001:001A2DA8       aDbvar_array_dw
 0001:001A2DB8       aDbvar_array_w
 0001:001A2DC8       aDbvar_string
 0001:001A2DD8       aDbvar_array_qw
 0001:001A2DE8       aDbvar_dw
 0001:001A2DF4       aDbvar_w
 0001:001A2DFC       aDbvar_array_b
 0001:001A2E0C       aDbvar_qw
 0001:001A2E18       aHttp_get
 0001:001A2E24       aHttp_options
 0001:001A2E34       aHttp_post
 0001:001A2E40       aHttp_head
 0001:001A2E4C       aGetrawresponse
 0001:001A2E60       aGetrawrequestb
 0001:001A2E74       aAddtelemetry
 0001:001A2E84       aGetsslcertific
 0001:001A2E98       aGethttpcommand
 0001:001A2EA8       aGethttprespons
 0001:001A2EC0       aGethttpstatusc
 0001:001A2ED4       aGethttpversion
 0001:001A2EE4       aIsresponse
 0001:001A2EF0       aGethttprequest
 0001:001A2F08       aGeturi
 0001:001A2F10       aTelemetry_host
 0001:001A2F24       aHttp_search
 0001:001A2F30       aTelemetry_quer
 0001:001A2F40       aTelemetry_path
 0001:001A2F50       aHttp_mkcol
 0001:001A2F5C       aHttp_proppatch
 0001:001A2F6C       aHttp_unlock
 0001:001A2F78       aHttp_lock
 0001:001A2F84       aHttp_move
 0001:001A2F90       aHttp_track
 0001:001A2F9C       aHttp_propfind
 0001:001A2FAC       aHttp_copy
 0001:001A2FB8       aHttp_delete
 0001:001A2FC4       aHttp_put
 0001:001A2FD0       aHttp_connect
 0001:001A2FE0       aHttp_trace
 0001:001A2FEC       aTelemetry_refe
 0001:001A3000       aCount
 0001:001A3008       a__sub
 0001:001A3010       a__add
 0001:001A3018       a(double,int,void)
 0001:001A3020       a__mul
 0001:001A3028       a__eq
 0001:001A3030       a(long,...)
 0001:001A3038       a__lt
 0001:001A3040       a__call
 0001:001A3048       a__concat
 0001:001A3054       a__pow
 0001:001A305C       a__mod
 0001:001A3064       a__len
 0001:001A306C       a__unm
 0001:001A30A8       aMp_force_mai_0
 0001:001A30DC       aMp_disable_m_0
 0001:001A3114       aMp_force_maint
 0001:001A3150       aMpforcemaint_0
 0001:001A3184       aMp_disable_mai
 0001:001A31C4       aMpdisablemaint
 0001:001A31FC       aContext_dat_29
 0001:001A3238       aContext_dat_28
 0001:001A3268       aContext_dat_42
 0001:001A32A0       aContext_dat_44
 0001:001A32E8       aContext_dat_43
 0001:001A331C       aContext_dat_39
 0001:001A334C       aContext_dat_38
 0001:001A3380       aContext_dat_41
 0001:001A33B4       aContext_dat_40
 0001:001A33E4       aContext_dat_35
 0001:001A3420       aContext_dat_34
 0001:001A3454       aContext_dat_37
 0001:001A3488       aContext_dat_36
 0001:001A34BC       aContext_dat_31
 0001:001A34E0       aContext_dat_30
 0001:001A3518       aContext_dat_33
 0001:001A3544       aContext_dat_32
 0001:001A357C       aContext_data_2
 0001:001A35A8       aContext_dat_56
 0001:001A35E8       aContext_dat_53
 0001:001A3630       aContext_dat_52
 0001:001A3674       aContext_dat_55
 0001:001A36AC       aContext_dat_54
 0001:001A36E0       aContext_dat_49
 0001:001A3714       aContext_dat_51
 0001:001A3758       aContext_dat_50
 0001:001A37A4       aContext_dat_46
 0001:001A37D8       aContext_dat_45
 0001:001A3814       aContext_dat_48
 0001:001A3844       aContext_dat_47
 0001:001A3874       aProcessid_1
 0001:001A3888       aPersisteventst
 0001:001A38AC       aProcessfileful
 0001:001A38D4       aProcessstartti
 0001:001A38F8       aPersistedtime
 0001:001A3914       aPersistguid
 0001:001A392C       aPersistevent
 0001:001A3948       aModifications
 0001:001A3964       aIsinheritedmot
 0001:001A3984       aPersistedinfo
 0001:001A39A0       aProcesstokenel
 0001:001A39CC       aPersistscanrea
 0001:001A39F0       aProcessintegri
 0001:001A3A1C       aProcesstoken_0
 0001:001A3A50       aRemoteproces_1
 0001:001A3A7C       aRemoteproces_0
 0001:001A3AA8       aProgenitorpers
 0001:001A3AD8       aRemoteprocesss
 0001:001A3B14       aParentfilename
 0001:001A3B34       aParentfilefull
 0001:001A3B5C       aRemoteprocessf
 0001:001A3B90       aParentfilepath
 0001:001A3BB0       aProcessfilepat
 0001:001A3BD0       aProcessfilenam
 0001:001A3BF0       aParentevent
 0001:001A3C08       aProcessstartpa
 0001:001A3C38       aRelatedto
 0001:001A3C4C       aChildindices
 0001:001A3C68       aAllsiblingsha1
 0001:001A3C88       aAllancestrysha
 0001:001A3CA8       aParentindices
 0001:001A3CC4       aAllchildrensha
 0001:001A3CE8       aRemoteproces_2
 0001:001A3D28       aRemoteprocesst
 0001:001A3D60       aAllsha1
 0001:001A3D70       aRemoteprocessi
 0001:001A3DA8       aSchema_2
 0001:001A3DB8       aHkey_unknown
 0001:001A41D8       aParentpath_1
 0001:001A41F0       aBafsextendedti
 0001:001A4224       aMpcmdrunspinup
 0001:001A424C       aEndtoendticks
 0001:001A4268       aMapsroundtript
 0001:001A4290       aFilereadticks
 0001:001A42AC       aCompressiontic
 0001:001A42D0       aQueuedticks
 0001:001A42E8       aFilecopyticks
 0001:001A4304       aRescanineligib
 0001:001A4334       aConsentticks
 0001:001A4350       aSubmissiontype
 0001:001A4370       aSubstatus
 0001:001A4384       aStatus
 0001:001A4394       aChangedsha1
 0001:001A43AC       aRemainingholdt
 0001:001A43D0       aChangedsha256
 0001:001A43EC       aSizeondisk
 0001:001A4404       aSystemcachefil
 0001:001A4424       aSystemfileca_0
 0001:001A444C       aVal_0
 0001:001A4474       aDt_params
 0001:001A4494       aFound
 0001:001A4534       aWin95
 0001:001A453C       aWinnt
 0001:001A4544       aDos
 0001:001A4548       aLinux
 0001:001A4550       aWin16
 0001:001A4558       aMacos
 0001:001A4560       aJava_0
 0001:001A4568       aW97m
 0001:001A4570       aX97m
 0001:001A4578       aPp97m
 0001:001A4580       aFreebsd
 0001:001A4588       aOs2
 0001:001A458C       aWin98
 0001:001A4594       a_pak
 0001:001A459C       a_worm
 0001:001A45A4       a@m
 0001:001A45A8       a_ldr
 0001:001A45B0       a_kit
 0001:001A45B8       aWin2k
 0001:001A45C0       aAutoit_1
 0001:001A45C8       aWince
 0001:001A45D0       aSymbos
 0001:001A45D8       aWinhlp
 0001:001A45E0       aMsil
 0001:001A45E8       aInf_2
 0001:001A45EC       aSunos
 0001:001A45F4       aNetware
 0001:001A45FC       aDos32
 0001:001A4604       aMacos_x
 0001:001A460C       aApplescript
 0001:001A4618       a_intd
 0001:001A4620       a@mm
 0001:001A4624       a_dam
 0001:001A462C       a_plugin
 0001:001A4634       aActivex
 0001:001A4644       aT_12
 0001:001A5F40       aTaR
 0001:001A71B0       a8g
 0001:001AF140       aPdfparams
 0001:001B2DD0       aUnicode_0
 0001:001B2DD8       aLarge
 0001:001B2DE0       aExttime
 0001:001B2DE8       aSalt
 0001:001B2DF0       aSkipifunknown
 0001:001B2E00       aExtflags
 0001:001B2E0C       a64kb
 0001:001B2E14       aLongblock
 0001:001B2E20       a256kb
 0001:001B2E28       a128kb
 0001:001B2E30       a1mb
 0001:001B2E34       a512kb
 0001:001B2E3C       a4mb
 0001:001B2E40       a2mb
 0001:001B2E44       aSplitbefore
 0001:001B2E50       aDirectory_0
 0001:001B2E5C       aPassword
 0001:001B2E68       aSplitafter
 0001:001B2E74       aSolid
 0001:001B2E7C       aComment_0
 0001:001B2E84       aEncoding_0
 0001:001B2E90       aVhostbin
 0001:001B4890       aIi
 0001:001B4896       aO_6
 0001:001B489C       a9i
 0001:001B5F2D       aWCWCWCWCWCWCWW
 0001:001B607C       aTtttttt
 0001:001B6558       aYxxxx
 0001:001B6564       aXxxxu
 0001:001B6598       aWvv
 0001:001B65A0       aVvvvvvs
 0001:001B6698       aFfff_1
 0001:001B6C98       a76666
 0001:001B6CA4       a66663
 0001:001B6CF8       a544
 0001:001B6D00       a4444441
 0001:001B6D38       aDccccccccc
 0001:001B7898       aNnnn
 0001:001B78D8       aKkkk
 0001:001B88B8       aLlll
 0001:001B8A18       aFffff
 0001:001B9458       aNnnnn
 0001:001C11B8       aSsssssssss_0
 0001:001C1878       aXxxxxxxxxx
 0001:001C2158       aSsswssssss
 0001:001C5230       aAction_2
 0001:001C5240       aFlags_1
 0001:001C524C       aRestoretype
 0001:001C5264       aTarget_2
 0001:001C5274       aMediatype
 0001:001C5288       aTrackspercylin
 0001:001C52AC       aCylinders
 0001:001C52C0       aDisksize
 0001:001C52D4       aSectorspertrac
 0001:001C52F4       aSurplussectors
 0001:001C5314       aVersion_2
 0001:001C5324       aTimestamp_3
 0001:001C5338       aGroup_2
 0001:001C5344       aKillrawwrite
 0001:001C5354       aBmregistrypath
 0001:001C538C       aLsp
 0001:001C5394       aMemorythreatre
 0001:001C53BC       aSystemrootSy_4
 0001:001C53EC       aService_0
 0001:001C53FC       aDisplayname_0
 0001:001C5414       aGroup_1
 0001:001C5420       aHkcuSoftwar_51
 0001:001C54C0       aHklmSoftwar_72
 0001:001C5560       aInprocserver_0
 0001:001C5594       aTreatas
 0001:001C55AC       aHklmSoftwareCl
 0001:001C55D8       aHklmSoftwar_71
 0001:001C5670       aHkcuSoftwar_52
 0001:001C56E0       aHklmSoftwar_73
 0001:001C5750       aHkcuSoftwar_45
 0001:001C57C8       aHklmSoftwar_63
 0001:001C5840       aShellexContext
 0001:001C587C       aHkcuSoftwar_10
 0001:001C58A8       aHkcuSoftwar_47
 0001:001C5938       aHklmSoftwar_65
 0001:001C59C8       aHkcuSoftwar_46
 0001:001C5A30       aHklmSoftwar_64
 0001:001C5A98       aHkcuSoftwar_53
 0001:001C5AD0       aHklmSoftwar_74
 0001:001C5B08       aInprochandler3
 0001:001C5B30       aInprochandler
 0001:001C5B54       aAutotreatas
 0001:001C5B74       aAutoconvertto
 0001:001C5B98       aLocalserver32
 0001:001C5BBC       aLocalserver
 0001:001C5BDC       aInprocserver32
 0001:001C5C00       aInprocserver
 0001:001C5C20       aHklmSoftwar_57
 0001:001C5CA0       aExec_3
 0001:001C5CB0       aScript_3
 0001:001C5CC4       aBandclsid
 0001:001C5CDC       aDllpath
 0001:001C5CF0       aHkcuSoftwar_50
 0001:001C5D28       aHklmSoftwar_70
 0001:001C5D60       aHkcuSoftwar_40
 0001:001C5DE0       aHklmSoftwar_68
 0001:001C5E30       aDllname
 0001:001C5E48       aHklmSoftwar_69
 0001:001C5ECC       aDllpathex
 0001:001C5EE4       aShellOpenasCom
 0001:001C5F14       aShellConfigCom
 0001:001C5F44       aShellRunasComm
 0001:001C5F74       aShellOpenComma
 0001:001C5FA0       aHkcuSoftwar_24
 0001:001C6018       aHklmSoftwar_35
 0001:001C6090       aHkcuSoftwar_48
 0001:001C6180       aHklmSoftwar_66
 0001:001C6270       aHkcuSoftwar_43
 0001:001C62F0       aHklmSoftwar_60
 0001:001C6370       aHkcuSoftwar_42
 0001:001C63E0       aHklmSoftwar_59
 0001:001C6450       aLocation_2
 0001:001C6468       aHklmSoftwar_62
 0001:001C64E0       aHkcuSoftwar_44
 0001:001C65D8       aHklmSoftwar_61
 0001:001C66D0       aClsidextension
 0001:001C66F4       aClsid_6
 0001:001C6708       aHkcuSoftwar_41
 0001:001C6778       aHklmSoftwar_58
 0001:001C67E8       aHkcuSoftwar_39
 0001:001C6850       aHklmSystemC_12
 0001:001C68C0       aHklmSystemC_11
 0001:001C6930       aHklmSystemC_10
 0001:001C6A28       aHklmSoftwar_55
 0001:001C6AA0       aHklmSoftwar_54
 0001:001C6B18       aHkcuSoftwar_38
 0001:001C6B90       aHklmSoftwar_56
 0001:001C6C08       aHkcuSoftwar_30
 0001:001C6C48       aHklmSoftwar_41
 0001:001C6C88       aContainsFiles
 0001:001C6CA8       aHklmSoftwar_53
 0001:001C6D28       aHklmSoftwar_40
 0001:001C6D64       aBaseinterface
 0001:001C6D88       aProxystubcls_0
 0001:001C6DB0       aProxystubclsid
 0001:001C6DD8       aHkcuControlP_2
 0001:001C6E30       aHkcuSoftwar_49
 0001:001C6E98       aHklmSoftwar_67
 0001:001C6F00       aIsolatedcomman
 0001:001C6F20       aHklmSoftwar_51
 0001:001C6FA0       aHkcuSoftwar_37
 0001:001C7008       aHklmSoftwar_52
 0001:001C7070       aHkcuSoftwar_36
 0001:001C7110       aHklmSoftwar_48
 0001:001C71C8       aHkcuSoftwar_34
 0001:001C7248       aHklmSoftwar_50
 0001:001C72C8       aHkcuSoftwar_35
 0001:001C7348       aHklmSystemCu_9
 0001:001C7438       aHkcuSoftwar_33
 0001:001C74F8       aHklmSoftwar_49
 0001:001C75B8       aHkcuSoftwar_32
 0001:001C7670       aShellexIconhan
 0001:001C76A0       aShellexDrophan
 0001:001C76D0       aShellexDatahan
 0001:001C7700       aShellexPrope_0
 0001:001C7740       aShellex000214f
 0001:001C77A8       aShellex000214e
 0001:001C7810       aShellex0002150
 0001:001C7878       aShellexBb2e617
 0001:001C78E0       aHklmSoftwar_39
 0001:001C7960       aHklmSoftwar_33
 0001:001C79EC       aShellexPropert
 0001:001C7A28       aShellex0000000
 0001:001C7A90       aHklmSoftwar_37
 0001:001C7B08       aHklmSoftwar_38
 0001:001C7B88       aHkcuSoftwar_28
 0001:001C7C00       aHkcuSoftwar_27
 0001:001C7C74       aHkcuSoftwar_29
 0001:001C7CB0       aDebugger_2
 0001:001C7CC8       aHklmSoftwar_46
 0001:001C7D68       aHklmSoftwar_47
 0001:001C7DF0       aShellexColumnh
 0001:001C7E20       aHklmSoftwar_44
 0001:001C7EC0       aHkcuSoftwar_31
 0001:001C7F58       aHklmSoftwar_43
 0001:001C7FF0       aVerifierdlls
 0001:001C8010       aShellexDragdro
 0001:001C8044       aShellexCopyhoo
 0001:001C8078       aHklmSoftwar_42
 0001:001C8120       aHklmSoftwar_45
 0001:001C81B0       aHkcuSoftwar_21
 0001:001C8200       aHklmSoftwar_31
 0001:001C8250       aHkcuSoftwar_19
 0001:001C82A0       aHklmSoftwar_27
 0001:001C82F0       aHkcuSoftwar_20
 0001:001C8370       aHklmSystemCu_8
 0001:001C83F0       aHkcuSoftwar_22
 0001:001C8458       aHklmSoftwar_32
 0001:001C84C0       aHklmSoftwarePo
 0001:001C8540       aHkcuSoftwar_11
 0001:001C85C0       aHkcuSoftwarePo
 0001:001C863C       aSource_3
 0001:001C8650       aHklmSoftwar_22
 0001:001C86E8       aHkcuSoftwar_13
 0001:001C8780       aHkcuSoftwar_12
 0001:001C8818       aHklmSoftwar_21
 0001:001C889C       aUninstallpath
 0001:001C88BC       aQuietuninstall
 0001:001C88EC       aUninstallstrin
 0001:001C8910       aHkcuSoftwar_26
 0001:001C8988       aHkcuSoftwar_23
 0001:001C8A20       aHklmSoftwar_34
 0001:001C8AB4       aDisplayicon
 0001:001C8AD0       aModifypath
 0001:001C8AF0       aHklmSystemCu_7
 0001:001C8B88       aHklmSoftwar_30
 0001:001C8C10       aHkcuSoftwar_25
 0001:001C8D10       aHklmSoftwar_36
 0001:001C8E0C       aDriver_2
 0001:001C8E20       aHklmSystemCu_6
 0001:001C8E90       aHklmSoftwar_29
 0001:001C8F20       aHklmSoftwar_28
 0001:001C8FA8       aHklmSoftwar_24
 0001:001C9040       aHkcuSoftwar_16
 0001:001C90B8       aHklmSoftwar_26
 0001:001C9130       aHkcuSoftwar_15
 0001:001C91A8       aHklmSoftwar_11
 0001:001C91F8       aHklmSystemCu_3
 0001:001C9280       aHklmSystemCu_4
 0001:001C9308       aHkcuSoftwar_14
 0001:001C93A0       aHklmSoftwareMo
 0001:001C93CC       aHkcuSoftwareMo
 0001:001C93F8       aMainInstallDir
 0001:001C9430       aHklmSoftwar_12
 0001:001C9490       aExtensionsPlug
 0001:001C94BC       aExtensionsComp
 0001:001C94EC       aHklmSoftwareFi
 0001:001C9518       aHkcuSoftwareFi
 0001:001C9544       aClsid_5
 0001:001C9558       aHklmSoftwar_23
 0001:001C95F8       aHklmSoftwar_18
 0001:001C9680       aStubpath
 0001:001C9698       aHkcuSoftware_9
 0001:001C9710       aHklmSoftwar_20
 0001:001C9788       aHkcuControlP_1
 0001:001C97D8       aHkcuControlP_0
 0001:001C9838       aHkcuControlPan
 0001:001C9898       aHklmSoftwar_19
 0001:001C9910       aHklmSoftwar_25
 0001:001C9988       aHklmSystemCu_5
 0001:001C9A08       aHkcuSoftwar_18
 0001:001C9A98       aHkcuSoftwar_17
 0001:001C9B30       aHklmSystemCu_2
 0001:001C9BA0       aHkcuSoftware_5
 0001:001C9C20       aHklmSoftware_8
 0001:001C9CA0       aHklmSoftware_7
 0001:001C9D30       aHkcuEnvironmen
 0001:001C9D88       aHklmSystemCu_1
 0001:001C9E18       aHklmSoftware_6
 0001:001C9E8C       aName_5
 0001:001C9E9C       aHklmSoftwar_10
 0001:001C9ED8       aHkcuSoftware_6
 0001:001C9F14       aPlugins_0
 0001:001C9F28       aComponents
 0001:001C9F48       aHkcuSoftware_8
 0001:001C9F98       aInstalllocatio
 0001:001C9FC0       aHklmSoftware_9
 0001:001CA050       aPath_4
 0001:001CA060       aHklmSoftwar_16
 0001:001CA0F0       aHklmSoftwar_15
 0001:001CA190       aHkcuSoftware_7
 0001:001CA230       aHklmSoftwareGo
 0001:001CA280       aHklmSoftwar_13
 0001:001CA300       aHklmSoftwar_14
 0001:001CA3C8       aDatabasepath
 0001:001CA3E8       aHklmSoftwar_17
 0001:001CA484       aReg
 0001:001CA48C       aContextmenuh_0
 0001:001CA4B4       aShellexecute_0
 0001:001CA4D8       aBho
 0001:001CA4E0       aProgid_1
 0001:001CA4F0       aScript_2
 0001:001CA500       aIeplugin_0
 0001:001CA514       aRegvaluedata_0
 0001:001CA530       aGuid_2
 0001:001CA53C       aExec_2
 0001:001CA548       aLastmodified_1
 0001:001CA564       aActivex_1
 0001:001CA574       aCodebase_1
 0001:001CA588       aInstalledver_0
 0001:001CA5AC       aIeurlsearchh_1
 0001:001CA5CC       aShellcolumnh_0
 0001:001CA5F4       aInf_1
 0001:001CA5FC       aDebugger_1
 0001:001CA610       aImagefileexe_1
 0001:001CA638       aIeexplorerba_0
 0001:001CA654       aIeextension
 0001:001CA66C       aMenutext_0
 0001:001CA680       aIeshellbrows_1
 0001:001CA6A0       aIetoolbar_0
 0001:001CA6B4       aExtension
 0001:001CA6C8       aFirewallappr_0
 0001:001CA6F4       aShellopencom_0
 0001:001CA718       aIewebbrowser_0
 0001:001CA734       aIemenuextens_0
 0001:001CA754       aProfiletype_1
 0001:001CA76C       aShellservice_0
 0001:001CA7A4       aSafeboot
 0001:001CA7B8       aGinadll_1
 0001:001CA7C8       aUrl_2
 0001:001CA7D0       aActivedeskto_0
 0001:001CA7EC       aStartupregis_0
 0001:001CA814       aIevext_1
 0001:001CA824       aScreensaver
 0001:001CA83C       aAutorun_0
 0001:001CA84C       aRegkeylastwr_0
 0001:001CA878       aHklmSoftwar_82
 0001:001CA8F8       aHkcuSoftwar_58
 0001:001CA978       aHklmSoftwar_81
 0001:001CA9F8       aHklmSoftwar_75
 0001:001CAA88       aHklmSystemC_16
 0001:001CAB30       aHklmSystemC_15
 0001:001CABD8       aHklmSystemC_14
 0001:001CAC48       aHklmSystemC_25
 0001:001CACF0       aHklmSystemC_22
 0001:001CAD88       aHklmSystemC_21
 0001:001CAE20       aHklmSystemC_13
 0001:001CAEB8       aHklmSoftwar_77
 0001:001CAF40       aHklmSystemC_24
 0001:001CAFC8       aHklmSystemC_23
 0001:001CB050       aHkcuSoftwar_59
 0001:001CB0D0       aHklmSoftwar_79
 0001:001CB160       aHkcuSoftwar_55
 0001:001CB1F0       aHklmSoftwar_78
 0001:001CB280       aHkcuSoftwar_54
 0001:001CB308       aHklmSoftwar_76
 0001:001CB390       aHkcuSoftwar_57
 0001:001CB428       aHklmSoftwar_80
 0001:001CB4C0       aHkcuSoftwar_56
 0001:001CB550       aHklmSystemC_20
 0001:001CB5E0       aHklmSystemC_19
 0001:001CB660       aHklmSystemC_18
 0001:001CB6E8       aHklmSystemC_17
 0001:001CB770       aBootexec
 0001:001CB784       aAppinitdll
 0001:001CB79C       aCommand_0
 0001:001CB7DC       aSectorsize
 0001:001CB7F4       aIsactive_0
 0001:001CB808       aCurrentlba_0
 0001:001CB820       aBootsigoffse_0
 0001:001CB83C       aBootthreatrepo
 0001:001CB860       aStreamip
 0001:001CB874       aReferrerurl
 0001:001CB88C       aFramehtml_0
 0001:001CB8A0       aControlhtml
 0001:001CB8B8       aUrlzone
 0001:001CB8C8       aHostappversion
 0001:001CB8E8       aFrameip
 0001:001CB8F8       aControlpath
 0001:001CB910       aAmsiappid
 0001:001CB924       aAmsiredirect_0
 0001:001CB948       aAmsicontentn_0
 0001:001CB968       aAmsisessionid
 0001:001CB984       aAutoelevate_0
 0001:001CB99C       aIdentifier_1
 0001:001CB9B4       aAmsiuacidentif
 0001:001CB9D8       aBlocked
 0001:001CB9E8       aBlockingtrigge
 0001:001CBA14       aTrustedstate
 0001:001CBA30       aAmsiuacinfo
 0001:001CBA48       aPkappappid
 0001:001CBA60       aPkappfamilynam
 0001:001CBA80       aPkappcommandli
 0001:001CBAA4       aRequestorname
 0001:001CBAC0       aRequestorsha1
 0001:001CBADC       aExedllparamete
 0001:001CBAFC       aExecommandline
 0001:001CBB1C       aExeappname
 0001:001CBB34       aRequestoril
 0001:001CBB4C       aComclsid
 0001:001CBB60       aComserverbinar
 0001:001CBB80       aComrequestor
 0001:001CBB9C       aExeappsha1
 0001:001CBBB4       aPkappappname
 0001:001CBBD0       aAxurl
 0001:001CBBDC       aMsipackagepath
 0001:001CBBFC       aMsiaction
 0001:001CBC10       aGenericstreams
 0001:001CBC40       aGenericstreamc
 0001:001CBC74       aGenericstreama
 0001:001CBCA0       aIschanged
 0001:001CBCB4       aOriginalthreat
 0001:001CBCD8       aRemediationc_2
 0001:001CBD14       aLastofflinetim
 0001:001CBD34       aLastchangetime
 0001:001CBD54       aNewthreatid
 0001:001CBD6C       aData_3
 0001:001CBD78       aCheckpointre_0
 0001:001CBD9C       aLaststartuptim
 0001:001CBDBC       aRemediationc_1
 0001:001CBDF4       aChangevalida_0
 0001:001CBE14       aValidationtype
 0001:001CBE34       aStreamtype
 0001:001CBE4C       aScanreason
 0001:001CBE64       aIsautoruninf
 0001:001CBE80       a0a2627d95f143c
 0001:001CBED0       a0a107d5c9d8c38
 0001:001CBF20       a614e7eab80293e
 0001:001CBF70       a5ec45c42Adb033
 0001:001CBFC0       a1ffcef37828937
 0001:001CC010       a1e744ff4De5d39
 0001:001CC060       a1d1ab8694b1534
 0001:001CC0B0       a16890b7d3d4a33
 0001:001CC100       a69aee54a62583d
 0001:001CC150       a609fbf8aB5fa31
 0001:001CC1A0       a373e01f7123834
 0001:001CC1F0       a26ec7410A6ca37
 0001:001CC240       a92b7a3e7844b3a
 0001:001CC290       a8456c0450f2a36
 0001:001CC2E0       a7d22c47aE2d033
 0001:001CC330       a6b1a02eaB07a3d
 0001:001CC380       a820441c5167b32
 0001:001CC3D0       aEab45146B5b53e
 0001:001CC420       aC91e9d2f3ffc40
 0001:001CC470       aE2736fc5467138
 0001:001CC4C0       aC94838f5Eef03b
 0001:001CC510       a9ae87afb2a7e30
 0001:001CC560       a13271ff542263e
 0001:001CC5B0       aFcd32ce7D85e30
 0001:001CC600       a096e8331Fd9d39
 0001:001CC650       aF32085776b5e33
 0001:001CC6A0       a8246d85727003d
 0001:001CC6F0       a25289fc1686a3a
 0001:001CC740       a7f2b33c742c43e
 0001:001CC790       aC5a5995603d430
 0001:001CC7E0       a905f1be7F4c13f
 0001:001CC830       aAppmodelmoni_0
 0001:001CC850       aAppmodeldevelo
 0001:001CC878       aC4061b56459e34
 0001:001CC8C8       aC31e591dC5bb3a
 0001:001CC918       aB10ec3c5Dbd234
 0001:001CC968       a936fb0553d8b33
 0001:001CC9B8       a0de71d28D9f837
 0001:001CCA08       aF4524e74E49232
 0001:001CCA58       aD5346b0e15fd38
 0001:001CCAA8       aC863e59c3d2334
 0001:001CCAF8       a9932cb7a346d33
 0001:001CCB48       a9598b4cb2b7f39
 0001:001CCB98       a879ac348417339
 0001:001CCBE8       a7cf428e41fb332
 0001:001CCC38       a0d7f244bE6143c
 0001:001CCC88       a5fb7e5ab31bc30
 0001:001CCCD8       a83068f56D87133
 0001:001CCD28       a9cc7b653B51635
 0001:001CCD78       aNotaftertimest
 0001:001CCD9C       aNotbeforetimes
 0001:001CCDC4       aRootcertreport
 0001:001CCDE4       aSigseqstring
 0001:001CCE00       aWmithreatrep_1
 0001:001CCE20       aWmipath_0
 0001:001CCE30       aThreadthreat_1
 0001:001CCE58       aBootremoval
 0001:001CCE70       aActionid
 0001:001CCE84       aRegvalue
 0001:001CF400       aFailedDecompre
 0001:001CF420       aFailedToReadLo
 0001:001CF444       aFoundInvalidLo
 0001:001CF45C       aFailedToReadGe
 0001:001CF480       aSucc
 0001:001CF488       aFailedToFixCod
 0001:001CF49C       aFailedToMoveCl
 0001:001CF4B4       aFailedToMakeJu
 0001:001CF4D4       aFailedToRebuil
 0001:001CF4F4       aFoundInvalidPl
 0001:001CF510       aFailedToCopyEp
 0001:001CF538       aFailedToDecomp
 0001:001CF550       aFailedToAllo_1
 0001:001CF574       aFailedToFixPe
 0001:001CF588       aFailedToRestor
 0001:001CF5A0       aFailedToBurnSi
 0001:001CF5BC       aPasswordProtec
 0001:001CF5D0       aLayer2
 0001:001CF5D8       aLayer1
 0001:001CF5E0       aLayer4
 0001:001CF5E8       aLayer3
 0001:001CF5F0       aLayer0
 0001:001CF5F8       aFailedToRetrie
 0001:001CF61C       aLayer9
 0001:001CF624       aFailedToInit_0
 0001:001CF648       aFailedToInitDe
 0001:001CF66C       aLayer6
 0001:001CF674       aLayer5
 0001:001CF67C       aLayer8
 0001:001CF684       aLayer7
 0001:001CF68C       aFailedToRest_0
 0001:001CF6AC       aInt_1
 0001:001CF6B4       aIndex_2
 0001:001CF6C0       aDisable_1
 0001:001CF6D0       aEnable_0
 0001:001CF6E0       aSha1_3
 0001:001CF6E8       aList_0
 0001:001CF6F4       aSignaturemat_1
 0001:001CF718       aDisableblob_0
 0001:001CF730       aEnableblob_0
 0001:001CF748       aRequestguid_0
 0001:001CF760       aNothing
 0001:001CF770       aString_2
 0001:001CF780       aCompression_0
 0001:001CF798       aUlong
 0001:001CF7A4       aHold_0
 0001:001CF7B0       aSha1_2
 0001:001CF7BC       aTtl_0
 0001:001CF7C4       aBlobsasuri_1
 0001:001CF7DC       aSignaturepat_1
 0001:001CF800       aSamplerequest
 0001:001CF810       aRevision_0
 0001:001CF824       aSignaturemat_0
 0001:001CF834       aSamplerequests
 0001:001CF854       aSamplerate_1
 0001:001CF86C       aSubmitspynet_1
 0001:001CF888       aXmlns_0
 0001:001CF894       aSignaturepat_0
 0001:001CF8A4       aSpynetreport_0
 0001:001CF8BC       aProtocol_0
 0001:001CF8D0       aUshort
 0001:001CF8E0       aRemoteport_0
 0001:001CF8F8       aRemoteip_0
 0001:001CF90C       aLocalport
 0001:001CF920       aCommandline__0
 0001:001CF94C       aCommandline_sc
 0001:001CF978       aFullcommandl_0
 0001:001CF998       aFullcommandlin
 0001:001CF9B8       aDomainname_scr
 0001:001CF9E0       aDomainname_0
 0001:001CF9F8       aCommandline_3
 0001:001CFA10       aDomainname_s_0
 0001:001CFA38       aFullcommandl_2
 0001:001CFA6C       aFullcommandl_1
 0001:001CFAA0       aTokenelevati_2
 0001:001CFAC0       aTokenelevati_1
 0001:001CFAE8       aState_2
 0001:001CFAF4       aUsername_scr_1
 0001:001CFB18       aUsername
 0001:001CFB2C       aDomainname
 0001:001CFB44       aUsername_scrub
 0001:001CFB68       aIntegritylev_0
 0001:001CFB88       aBool_0
 0001:001CFB94       aUsername_2
 0001:001CFBA8       aUint
 0001:001CFBB4       aVa_0
 0001:001CFBBC       aModule
 0001:001CFBCC       aVa_1
 0001:001CFBD4       aTotalfilecou_0
 0001:001CFBF4       aNotfoundcoun_0
 0001:001CFC10       aFirstfiletim_0
 0001:001CFC2C       aCollectionty_1
 0001:001CFC4C       aDriverlog_0
 0001:001CFC60       aExpensivefil_0
 0001:001CFC88       aCodebase
 0001:001CFC9C       aCodebase_scr_0
 0001:001CFCC0       aCodebase_scrub
 0001:001CFCE4       aSigner_0
 0001:001CFCF4       aInstalledversi
 0001:001CFD18       aInf_0
 0001:001CFD20       aLastmodified
 0001:001CFD3C       aIssuer_1
 0001:001CFD4C       aKcrc3n_0
 0001:001CFD5C       aKcrc3_0
 0001:001CFD68       aPetimestampori
 0001:001CFD90       aDeprecatedtime
 0001:001CFDB8       aKcrc1_0
 0001:001CFDC4       aPublisher_0
 0001:001CFDD8       aKcrc2_0
 0001:001CFDE4       aEntities
 0001:001CFDF8       aPearch_0
 0001:001CFE08       aNewfiletype_0
 0001:001CFE20       aHashedpath_0
 0001:001CFE38       aPetype_0
 0001:001CFE48       aFiletype
 0001:001CFE5C       aMarkoftheweb_0
 0001:001CFE78       aShort_1
 0001:001CFE84       aFiletype_0
 0001:001CFE98       aSelectionrat_1
 0001:001CFEB4       aLastfiletime_0
 0001:001CFED0       aReportlimit_0
 0001:001CFEE8       aPath_scrubbe_0
 0001:001CFF04       aPath_scrubbed
 0001:001CFF20       aOriginalname_0
 0001:001CFF3C       aDesc_0
 0001:001CFF48       aSha256_1
 0001:001CFF58       aSha256_2
 0001:001CFF60       aSigseq_2
 0001:001CFF68       aClassificati_0
 0001:001CFF88       aSampleconsen_0
 0001:001CFFB4       aSignerhash_0
 0001:001CFFCC       aAuthenticode_5
 0001:001CFFF8       aSamplesubmis_0
 0001:001D003C       aIssuerhash_0
 0001:001D0054       aDesc_1
 0001:001D005C       aVal_scrubbed
 0001:001D0078       aVal_scrubbed_0
 0001:001D0094       aDisplayname_1
 0001:001D00AC       aAvproduct_0
 0001:001D00B8       aReghive_0
 0001:001D00C8       aSectornumber_0
 0001:001D00E4       aSectornumber_1
 0001:001D0100       aCommand_1
 0001:001D0110       aCommand_scru_0
 0001:001D0134       aCommand_scrubb
 0001:001D0158       aUptodate_1
 0001:001D016C       aEnabled_2
 0001:001D017C       aProductexpir_0
 0001:001D019C       aProductexpired
 0001:001D01BC       aSigsha_1
 0001:001D01CC       aIsprimary_1
 0001:001D01E0       aWscservice_0
 0001:001D01F8       aAvproducts
 0001:001D0210       aProduct_0
 0001:001D0220       aReporttype_0
 0001:001D0238       aDisksize_0
 0001:001D024C       aBootsamplesu_1
 0001:001D0284       aBootsamplesu_0
 0001:001D02C0       aTrackspercyl_0
 0001:001D02E4       aMediatype_0
 0001:001D02F8       aSurplussecto_1
 0001:001D0318       aSectorspertr_1
 0001:001D0338       aFilterdriver_0
 0001:001D035C       aRpfscsirewbl_0
 0001:001D037C       aSuspicious_2
 0001:001D0394       aArscanstatus_1
 0001:001D03B0       aInfectedrpfs_0
 0001:001D03E0       aOriginalsigs_0
 0001:001D0400       aWin32actions_0
 0001:001D0424       aOriginalsigs_2
 0001:001D0444       aOriginalsigsha
 0001:001D0464       aActionstatus_1
 0001:001D0480       aSource_2
 0001:001D0490       aDeterminatio_0
 0001:001D04AC       aVpath_1
 0001:001D04B8       aIsactive
 0001:001D04CC       aCylinders_0
 0001:001D04E0       aVpath_scrubbed
 0001:001D0500       aBootsigoffset
 0001:001D051C       aRpfremediati_0
 0001:001D0548       aSectorsize_1
 0001:001D0560       aCurrentlba
 0001:001D0578       aRegkey_0
 0001:001D0588       aUrl_3
 0001:001D0590       aOrder_1
 0001:001D059C       aUrl_scrubbed
 0001:001D05B8       aUrl_scrubbed_0
 0001:001D05D4       aRegvaluedata_s
 0001:001D0600       aRegvaluedata
 0001:001D061C       aRegvaluename_0
 0001:001D0638       aRegvaluedata_1
 0001:001D0664       aBootsamplesubm
 0001:001D0680       aBehaviordeta_1
 0001:001D06A0       aBehaviorvalu_1
 0001:001D06D0       aBehaviorname_0
 0001:001D06EC       aBehaviorvalue_
 0001:001D071C       aBehaviorvalu_0
 0001:001D0738       aThreadid_0
 0001:001D074C       aApiresults_0
 0001:001D0764       aDriverpath_0
 0001:001D077C       aDrivername_1
 0001:001D0794       aCallbackaddr_0
 0001:001D07B4       aEtwid_0
 0001:001D07C0       aArsigid_0
 0001:001D07D0       aDetectionnam_2
 0001:001D07EC       aArdata_1
 0001:001D07FC       aSensorid_0
 0001:001D0810       aDescription_2
 0001:001D0828       aFeatureid_0
 0001:001D083C       aSignatureid_2
 0001:001D0854       aArscore_0
 0001:001D0864       aDevicename_s_0
 0001:001D088C       aDevicename_scr
 0001:001D08B4       aCveid_0
 0001:001D08C0       aHandle_0
 0001:001D08D0       aExploitinfo_0
 0001:001D08E8       aExploitmode_0
 0001:001D0900       aTarget_scrub_0
 0001:001D0920       aTarget_scrubbe
 0001:001D0940       aEventmax_0
 0001:001D0954       aEventmin_0
 0001:001D0968       aOperationmet_0
 0001:001D0990       aTargetimage__0
 0001:001D09BC       aTargetimage_sc
 0001:001D09E8       aAudits
 0001:001D09F8       aNamedattribu_1
 0001:001D0A18       aPartialcrc2_0
 0001:001D0A30       aPartialcrc1_0
 0001:001D0A48       aActionid_0
 0001:001D0A5C       aPeattributes_1
 0001:001D0A78       aAuthenticode_6
 0001:001D0A9C       aIsduplicate_0
 0001:001D0AB4       aDesktopname_0
 0001:001D0ACC       aBootsectorba_1
 0001:001D0AFC       aTargetimage_0
 0001:001D0B14       aTargetpid_0
 0001:001D0B28       aDesktopacces_1
 0001:001D0B44       aIskernel_0
 0001:001D0B58       aRtpscanreaso_0
 0001:001D0B74       aClusterhash_0
 0001:001D0B8C       aFilequeryonl_0
 0001:001D0BA8       aPeheader_0
 0001:001D0BBC       aCrc16_0
 0001:001D0BC8       aImphash_0
 0001:001D0BD8       aWebfileurl_scr
 0001:001D0C00       aWebfileurl_0
 0001:001D0C18       aRealpath_1
 0001:001D0C2C       aRtpprocessna_1
 0001:001D0C4C       aMotwhosturl_0
 0001:001D0C64       aRealpath_scrub
 0001:001D0C88       aResearchdata_s
 0001:001D0CB4       aResearchdata_0
 0001:001D0CD0       aHoldineligib_0
 0001:001D0CFC       aWebfileip_0
 0001:001D0D10       aCtph_0
 0001:001D0D1C       aClassifiersc_5
 0001:001D0D40       aHitcount_1
 0001:001D0D54       aClassifiersc_6
 0001:001D0D78       aFilesize_1
 0001:001D0D8C       aPartialcrc3_0
 0001:001D0DA4       aClassifiersc_3
 0001:001D0DC4       aLong_1
 0001:001D0DD0       aExtendedkcrc_0
 0001:001D0DEC       aHashedfullpa_0
 0001:001D0E0C       aIsvfz_0
 0001:001D0E18       aSigattrevent_0
 0001:001D0E34       aTelemetryonl_2
 0001:001D0E50       aFilechanged_0
 0001:001D0E68       aLshashs_0
 0001:001D0E78       aLshash_0
 0001:001D0E88       aAgent_1
 0001:001D0E94       aWebfilebrows_0
 0001:001D0EB4       aExcludedthre_0
 0001:001D0ED4       aMotwhostip_0
 0001:001D0EEC       aMotwhosturl_sc
 0001:001D0F18       aRequeryineli_0
 0001:001D0F48       aLowintegrityle
 0001:001D0F6C       aOffset_0
 0001:001D0F7C       aFileindex_0
 0001:001D0F90       aApielements
 0001:001D0FA8       aRam_1
 0001:001D0FB0       aRam
 0001:001D0FB8       aAddress_1
 0001:001D0FC8       aNames_1
 0001:001D0FD4       aExec_scrubbed
 0001:001D0FF0       aExec_1
 0001:001D0FFC       aApis
 0001:001D1008       aApi
 0001:001D1010       aNames_0
 0001:001D101C       aApi_0
 0001:001D1020       aRtpscanreaso_1
 0001:001D1030       aTo_1
 0001:001D1038       aFrom_0
 0001:001D1044       aTo_2
 0001:001D1048       aFrom_1
 0001:001D1050       aAudit_2
 0001:001D1058       aProfiletype
 0001:001D1070       aApplicationp_0
 0001:001D1098       aApplicationpro
 0001:001D10C0       aDestinationa_1
 0001:001D10F8       aDestinationa_0
 0001:001D1120       aWmipath_scru_0
 0001:001D1144       aWmipath_scrubb
 0001:001D1168       aSourceaddres_2
 0001:001D1198       aSourceaddres_3
 0001:001D11B4       aSourcenetwor_1
 0001:001D11D0       aSourceaddress_
 0001:001D1200       aDestinationnet
 0001:001D1228       aDestinationa_2
 0001:001D1260       aDestinationp_0
 0001:001D1280       aDestinationn_0
 0001:001D12A8       aDebugger
 0001:001D12BC       aMenutext
 0001:001D12D0       aExec_scrubbe_0
 0001:001D12EC       aScript_5
 0001:001D12FC       aSigseqstring_0
 0001:001D1318       aWmipath
 0001:001D1328       aInvalid_2
 0001:001D1338       aConnectedtoi_2
 0001:001D1364       aConnectedtoi_1
 0001:001D139C       aProcessstart_1
 0001:001D13B4       aConnectedtoint
 0001:001D13C8       aRegvalue_scr_0
 0001:001D13EC       aCheckpoint_0
 0001:001D1404       aProgid
 0001:001D1414       aRegvalue_scrub
 0001:001D1438       aRegvalue_0
 0001:001D144C       aRegistryvalu_1
 0001:001D147C       aRegistryvalue_
 0001:001D14AC       aFrom_scrubbe_0
 0001:001D14C8       aFrom_scrubbed
 0001:001D14E4       aTo_scrubbed_0
 0001:001D14FC       aTo_scrubbed
 0001:001D1514       aAction_3
 0001:001D151C       aSourceport_0
 0001:001D1534       aSourcenetwork
 0001:001D1550       aNridata_0
 0001:001D1560       aNrisigid_0
 0001:001D1574       aFilename_scr_0
 0001:001D1598       aFilename_scrub
 0001:001D15BC       aSigrev_1
 0001:001D15CC       aHookchain_0
 0001:001D15D8       aAccountid_1
 0001:001D15EC       aAccountid
 0001:001D1600       aAccountid_sc_0
 0001:001D1628       aAccountid_scru
 0001:001D1650       aSigrev_0
 0001:001D1660       aManipulation_0
 0001:001D1684       aRegkeyvalue__0
 0001:001D16B0       aRegkeyvalue_sc
 0001:001D16DC       aRegkeylastwrit
 0001:001D1704       aRegkeyvalue_2
 0001:001D171C       aTableid_0
 0001:001D172C       aFunctionname_0
 0001:001D1748       aTablename_0
 0001:001D175C       aFunctioninde_1
 0001:001D1778       aHookchains
 0001:001D1790       aDesktopbehav_0
 0001:001D17A0       aAntirootkit_1
 0001:001D17AC       aDesktopbehav_1
 0001:001D17D0       aVolumemountb_1
 0001:001D17FC       aBehaviortime_1
 0001:001D1818       aOpenprocessb_1
 0001:001D1844       aOpenprocessb_0
 0001:001D1858       aNetworkacces_0
 0001:001D1868       aRegistrymani_0
 0001:001D1880       aProcessmodif_0
 0001:001D1890       aEtwbehavior_0
 0001:001D189C       aDeviation_0
 0001:001D18A8       aInternalinfo_0
 0001:001D18B8       aInternalbeha_3
 0001:001D18CC       aProcessmodif_1
 0001:001D18F0       aNetworkaccesss
 0001:001D1910       aTablehooks
 0001:001D1928       aRegistrymani_1
 0001:001D1954       aNetworkaccesse
 0001:001D1980       aDeviations
 0001:001D1998       aInternalinfos
 0001:001D19B4       aAntirootkits
 0001:001D19D0       aEtwbehaviors
 0001:001D19EC       aInternalbeha_4
 0001:001D1A10       aUnknownfilem_0
 0001:001D1A44       aThreatfilema_1
 0001:001D1A74       aPartialsigna_0
 0001:001D1A98       aPartialsignatu
 0001:001D1ABC       aActivexelement
 0001:001D1ADC       aRegistry_1
 0001:001D1AE8       aBhoelements
 0001:001D1B00       aActivexs
 0001:001D1B14       aFileelements
 0001:001D1B30       aParticipatin_1
 0001:001D1B44       aRegistryelemen
 0001:001D1B68       aItems
 0001:001D1B74       aParticipatin_0
 0001:001D1BA0       aBehaviors
 0001:001D1BB4       aLevel_0
 0001:001D1BC0       aEnforcerestr_0
 0001:001D1BF4       aThreatfilema_0
 0001:001D1C0C       aTablehook_0
 0001:001D1C18       aVolumemountb_0
 0001:001D1C2C       aUnknownfilem_1
 0001:001D1C44       aMultiprocesss
 0001:001D1C60       aBmeventids_1
 0001:001D1C78       aProcesstaint_1
 0001:001D1C9C       aSignature_3
 0001:001D1CB0       aScore_1
 0001:001D1CBC       aProcesstaint_0
 0001:001D1CDC       aModulelist_0
 0001:001D1CF4       aIeurlsearchh_2
 0001:001D1D04       aIetoolbar_1
 0001:001D1D10       aReg_0
 0001:001D1D14       aIewebbrowser_1
 0001:001D1D24       aIeexplorerba_1
 0001:001D1D34       aContextmenuh_1
 0001:001D1D48       aIeshellbrows_2
 0001:001D1D58       aIeextension_0
 0001:001D1D64       aRtpprocessfr_0
 0001:001D1D8C       aRtpnewfilehi_0
 0001:001D1DAC       aShellexecute_1
 0001:001D1DC0       aShellcolumnh_1
 0001:001D1DD4       aRtpdesiredac_1
 0001:001D1DF8       aShellservice_1
 0001:001D1E14       aIeurlsearchh_0
 0001:001D1E38       aIetoolbars
 0001:001D1E50       aRegelements
 0001:001D1E68       aIewebbrowsers
 0001:001D1E84       aContextmenuhan
 0001:001D1EAC       aBhos
 0001:001D1EB8       aIeshellbrows_0
 0001:001D1ED8       aIeexplorerbars
 0001:001D1EF8       aClsid_3
 0001:001D1F04       aShellserviceob
 0001:001D1F40       aBho_0
 0001:001D1F44       aIeextensions
 0001:001D1F60       aRegs
 0001:001D1F6C       aShellexecuteho
 0001:001D1F90       aShellcolumnhan
 0001:001D1FB8       aDeprecatedip_0
 0001:001D1FEC       aIpv4destinat_2
 0001:001D2020       aIpv4source_0
 0001:001D2038       aDeprecatedip_1
 0001:001D206C       aRawtimestamp
 0001:001D2088       aIpv4destinat_1
 0001:001D20BC       aIpv4destinat_0
 0001:001D20DC       a6_0
 0001:001D20E0       aProtocolid_0
 0001:001D20F8       aIpv6destinat_2
 0001:001D2130       aIpv6destinat_1
 0001:001D2158       aIpv4source_s_0
 0001:001D2180       aIpv4source_scr
 0001:001D21A8       aDeprecatedip_3
 0001:001D21D4       aDeprecatedip_2
 0001:001D2200       aSourceip_1
 0001:001D2214       aDestinationi_2
 0001:001D2244       aSourceip_scrub
 0001:001D2268       aSourceip_scr_1
 0001:001D228C       aDestinationi_0
 0001:001D22A8       aDestinationip_
 0001:001D22D8       aDestinationi_1
 0001:001D22F4       aUri_scrubbed_0
 0001:001D2310       aUri_1
 0001:001D2318       aUri_scrubbed
 0001:001D2334       aFullpath_scr_0
 0001:001D2358       aFullpath_scrub
 0001:001D237C       aDynamicloade_1
 0001:001D2398       aFilename_1
 0001:001D23AC       aFullpath_1
 0001:001D23C0       aFilelocation_0
 0001:001D23DC       aIpv6sourcelow_
 0001:001D240C       aIpv6sourcelo_0
 0001:001D2428       aIpv6sourcehi_0
 0001:001D2448       aIpv6sourcelo_1
 0001:001D2478       aIpv6destinat_4
 0001:001D24A0       aIpv6destinat_3
 0001:001D24D8       aIpv6destinat_6
 0001:001D2514       aIpv6destinat_5
 0001:001D2550       aIpv6sourcehi_2
 0001:001D2580       aIpv6sourcehi_1
 0001:001D25B0       aAutomaticste_2
 0001:001D25D0       aCompetitives_0
 0001:001D260C       aSystemcachef_0
 0001:001D2630       aSystemfileca_5
 0001:001D2658       aQuarantinesi_0
 0001:001D2678       aSystemdiskfr_1
 0001:001D2698       aAutomaticste_1
 0001:001D26C0       aDeprecatedauto
 0001:001D26FC       aAdditionalfa_0
 0001:001D2728       aErrorcode_1
 0001:001D273C       aActionname_0
 0001:001D2754       aVsssnapshotc_0
 0001:001D2778       aVsssnapshote_0
 0001:001D279C       aSystemdisksi_1
 0001:001D27BC       aVsspathscoun_0
 0001:001D27D8       aSizeondisk_1
 0001:001D27F0       aVsssnapshott_0
 0001:001D2810       aInstallutcti_0
 0001:001D2830       aInstallutctime
 0001:001D2850       aInstallerr_0
 0001:001D2868       aInstallerr
 0001:001D2880       aDownloadutct_0
 0001:001D28A0       aDownloadutctim
 0001:001D28C0       aDownloaderr_0
 0001:001D28D8       aDownloaderr
 0001:001D28F0       aIpv6low_0
 0001:001D2900       aIpv4_0
 0001:001D290C       aDefaultbrows_0
 0001:001D291C       aDefaultbrowser
 0001:001D293C       aIsuser_0
 0001:001D294C       aIsuser
 0001:001D295C       aSystemcachef_1
 0001:001D296C       aAutomaticste_0
 0001:001D297C       aDetectutctim_0
 0001:001D2998       aDetectutctime
 0001:001D29B4       aDetecterr_1
 0001:001D29C8       aDetecterr_0
 0001:001D29DC       aFileassociat_0
 0001:001D29EC       aFileassociatio
 0001:001D2A0C       aClsids
 0001:001D2A1C       aClsidelements
 0001:001D2A38       aContainerref_0
 0001:001D2A5C       aContainerrefer
 0001:001D2A84       aStartupregistr
 0001:001D2ABC       aSubtype_2
 0001:001D2ACC       aBootexecs
 0001:001D2AE0       aBinaryurls
 0001:001D2AF8       aIeplugins
 0001:001D2B0C       aIemenuextensio
 0001:001D2B30       aServices_0
 0001:001D2B44       aImagefileexe_0
 0001:001D2B70       aFirewallapprov
 0001:001D2B9C       aDrivers_0
 0001:001D2BAC       aForwardrefer_0
 0001:001D2BCC       aForwardreferra
 0001:001D2BF0       aFilesystem_0
 0001:001D2C08       aDnsserver_0
 0001:001D2C14       aAdapterindex_1
 0001:001D2C30       aIpv6high
 0001:001D2C44       aFileaccess_0
 0001:001D2C5C       aIsruntimepac_0
 0001:001D2C7C       aRemediationc_3
 0001:001D2CA8       aActive_1
 0001:001D2CB8       aCertinvalidd_0
 0001:001D2CE0       aMd5_1
 0001:001D2CE8       aChecksum_1
 0001:001D2CFC       aCpuarch_0
 0001:001D2D0C       aIsautoruninf_0
 0001:001D2D28       aCsremoteresu_0
 0001:001D2D48       aLastaccessed_0
 0001:001D2D6C       aLastmodified_0
 0001:001D2D90       aThreatidex_0
 0001:001D2DA8       aIevext_0
 0001:001D2DB8       aCsrepos_0
 0001:001D2DC8       aCscleanhash_0
 0001:001D2DE0       aScanreason_1
 0001:001D2DF8       aStreamtype_1
 0001:001D2E10       aStreamurl_sc_0
 0001:001D2E38       aStreamurl_0
 0001:001D2E4C       aUsntimestamp
 0001:001D2E68       aUsntimestamp_1
 0001:001D2E84       aOriginalsha2_0
 0001:001D2EA4       aOriginalsha1_1
 0001:001D2EC0       aCrc8_0
 0001:001D2ECC       aCrc8
 0001:001D2ED8       aPartial_0
 0001:001D2EE8       aPartial
 0001:001D2EF8       aAppmodelmonike
 0001:001D2F18       aShellopencomma
 0001:001D2F3C       aCrc4_0
 0001:001D2F48       aCrc4
 0001:001D2F54       aStartupuserf_1
 0001:001D2F78       aLsp_0
 0001:001D2F80       aWinlogontask_0
 0001:001D2FA0       aWinlogonsyst_1
 0001:001D2FC0       aSha512
 0001:001D2FD0       aSha512_1
 0001:001D2FE0       aGinadll_0
 0001:001D2FF0       aBootverifica_0
 0001:001D3014       aActivedesktops
 0001:001D3034       aActivedesktope
 0001:001D3060       aFrameip_0
 0001:001D3070       aStreamip_1
 0001:001D3084       aIscontainer_0
 0001:001D309C       aIsincontaine_0
 0001:001D30B8       aIscloudsigna_0
 0001:001D30DC       aScanmode_1
 0001:001D30F0       aActivereason_0
 0001:001D310C       aNetworkconne_4
 0001:001D3144       aAuthenticode_4
 0001:001D3168       aLoopilhash_0
 0001:001D3180       aNetworkconne_1
 0001:001D31B0       aNetworkconne_0
 0001:001D31F0       aNetworkconne_3
 0001:001D3234       aNetworkconne_2
 0001:001D3268       aControlversi_0
 0001:001D3288       aHostappversi_0
 0001:001D32A8       aControlhtml_0
 0001:001D32C0       aControlpath_0
 0001:001D32D8       aReferrerurl_0
 0001:001D32F0       aStreamurl_scru
 0001:001D3318       aReferrerurl__0
 0001:001D3344       aReferrerurl_sc
 0001:001D3370       aFramehtml_1
 0001:001D3384       aFrameurl_scr_0
 0001:001D33A8       aControlguid_0
 0001:001D33C0       aUrlzone_1
 0001:001D33D0       aPagecontext_0
 0001:001D33E8       aPagecontext
 0001:001D3400       aFrameurl_scrub
 0001:001D3424       aFrameurl_0
 0001:001D3438       aAmsicontentn_1
 0001:001D3458       aAmsiuacident_0
 0001:001D347C       aAmsicontentn_3
 0001:001D34B0       aAmsicontentn_2
 0001:001D34E4       aGenericstrea_0
 0001:001D3510       aTobesignedha_0
 0001:001D3530       aGenericstrea_2
 0001:001D3560       aGenericstrea_1
 0001:001D3594       aFriendlysigsha
 0001:001D35B4       aFriendlysigs_1
 0001:001D35D4       aFriendlysigs_3
 0001:001D3600       aFriendlysigs_2
 0001:001D3620       aLockingproce_0
 0001:001D3644       aResourcesche_0
 0001:001D3664       aFriendlysigs_0
 0001:001D3698       aFriendlysupp_0
 0001:001D36C0       aTriggersigseq
 0001:001D36DC       aTriggersigseqd
 0001:001D370C       aTriggersigsha
 0001:001D3728       aTriggersigse_0
 0001:001D3744       aAllsigseqs_1
 0001:001D375C       aSigningtime_1
 0001:001D3774       aDependentfiles
 0001:001D3794       aAllsigshas_1
 0001:001D37AC       aAmsiappid_0
 0001:001D37C0       aTargetdiskfr_0
 0001:001D37E0       aCrc32_1
 0001:001D37EC       aAmsisessioni_0
 0001:001D3808       aFiledevicety_0
 0001:001D3828       aTriggersigsh_0
 0001:001D3844       aTargetdisksi_0
 0001:001D3864       aFiledevicech_0
 0001:001D3898       aAmsiredirect_1
 0001:001D38BC       aMftshadowfil_0
 0001:001D38F0       aOriginalsize
 0001:001D390C       aIsinheritedm_0
 0001:001D392C       aOwnersid_0
 0001:001D3940       aIscatalogsig_0
 0001:001D3960       aIsmplcencode_0
 0001:001D397C       aIsmplcencoded
 0001:001D3998       aSignaturetim_0
 0001:001D39C0       aReswin32acti_0
 0001:001D39EC       aIsesusig_0
 0001:001D3A00       aRestoretype_0
 0001:001D3A18       aMd5_2
 0001:001D3A1C       aPartial_1
 0001:001D3A24       aShellopencom_1
 0001:001D3A38       aRtpcontextua_0
 0001:001D3A4C       aPersistedtim_0
 0001:001D3A68       aStartupregis_1
 0001:001D3A7C       aImagefileexe_2
 0001:001D3A90       aIeplugin_1
 0001:001D3A9C       aNetworkconne_6
 0001:001D3AB8       aNetworkconne_5
 0001:001D3AD0       aProcessstart_2
 0001:001D3AF4       aPersistevent_0
 0001:001D3B10       aProcessstart_4
 0001:001D3B50       aProcessstart_3
 0001:001D3B80       aSigversion_0
 0001:001D3B98       aEngineversio_3
 0001:001D3BB4       aModification_0
 0001:001D3BD0       aAvsigversion_1
 0001:001D3BEC       aActivedesktop
 0001:001D3BFC       aFirewallappr_1
 0001:001D3C14       aDependentfil_0
 0001:001D3C24       aIemenuextens_1
 0001:001D3C34       aForwardrefer_1
 0001:001D3C44       aBootexec_1
 0001:001D3C50       aBinaryurl_0
 0001:001D3C5C       aContainerref_1
 0001:001D3C70       aClsid_4
 0001:001D3C78       aRemoteprocesse
 0001:001D3CA8       aRemoteproce_12
 0001:001D3CF4       aProcessfilef_0
 0001:001D3D1C       aRemoteproce_13
 0001:001D3D4C       aRemoteproces_9
 0001:001D3D8C       aRemoteproces_8
 0001:001D3DD0       aRemoteproce_11
 0001:001D3E1C       aRemoteproce_10
 0001:001D3E58       aProcesselevati
 0001:001D3E7C       aProcessfilep_4
 0001:001D3EB0       aPersistguid_0
 0001:001D3EC8       aProcesseleva_0
 0001:001D3EEC       aProcessfilef_2
 0001:001D3F28       aProcessfilef_1
 0001:001D3F64       aProcessfilep_3
 0001:001D3F98       aProcessfilep_2
 0001:001D3FB8       aParentfilefu_1
 0001:001D3FF0       aParentfilefu_0
 0001:001D4018       aParentfilena_0
 0001:001D4038       aParentfilefu_2
 0001:001D4070       aProcessfilen_0
 0001:001D4090       aProcessstart_5
 0001:001D40D0       aParentevent_0
 0001:001D40E8       aPersistevent_1
 0001:001D4110       aRemoteproces_5
 0001:001D4158       aRemoteproces_4
 0001:001D41A0       aRemoteproces_7
 0001:001D41CC       aRemoteproces_6
 0001:001D41F8       aParentfilepa_1
 0001:001D4228       aParentfilepa_0
 0001:001D4248       aRemoteproces_3
 0001:001D427C       aParentfilepa_2
 0001:001D42AC       aProcesstoken_2
 0001:001D42D8       aProcesstoken_1
 0001:001D4310       aRemoteproce_14
 0001:001D4350       aProcessinteg_0
 0001:001D437C       aProgenitorpe_1
 0001:001D43AC       aProgenitorpe_0
 0001:001D43DC       aPersistscanr_0
 0001:001D4400       aProgenitorpe_2
 0001:001D4430       aAllchildrengsh
 0001:001D4454       aAllsiblingsh_0
 0001:001D4474       aRemoteproce_16
 0001:001D44AC       aRemoteproce_15
 0001:001D44E4       aAllancestrys_1
 0001:001D4504       aAllsha1_0
 0001:001D4514       aDeepscan_0
 0001:001D4528       aContentsha1_1
 0001:001D4540       aContentsha25_0
 0001:001D455C       aHooked_0
 0001:001D456C       aHookedelements
 0001:001D458C       aMemoryelements
 0001:001D45AC       aHookeds
 0001:001D45BC       aSegments
 0001:001D45D0       aPrevalenturl_0
 0001:001D45E4       aSegment
 0001:001D45EC       aSegment_0
 0001:001D45FC       aHooked
 0001:001D4604       aUniversalquery
 0001:001D4624       aMemory_1
 0001:001D462C       aMemorys
 0001:001D463C       aMemory_2
 0001:001D464C       aRkhash_0
 0001:001D465C       aRkhash
 0001:001D466C       aAssociatedfi_1
 0001:001D4698       aChildindices_0
 0001:001D46B4       aCollectreaso_0
 0001:001D46D0       aCorereportelem
 0001:001D46F4       aParentindice_0
 0001:001D4710       aRelatedto_0
 0001:001D4724       aPersistedinf_0
 0001:001D4734       aCorereport_0
 0001:001D4740       aPrevalentfil_2
 0001:001D475C       aPrevalentfil_1
 0001:001D4770       aReportquery_0
 0001:001D477C       aFilequery_0
 0001:001D4788       aFirewallports
 0001:001D47A4       aUniversalque_0
 0001:001D47B4       aIeurls
 0001:001D47C4       aIeurl
 0001:001D47D0       aInifilemappi_0
 0001:001D47F0       aInifilemapping
 0001:001D4810       aHostsfiles
 0001:001D4828       aFirewallport_1
 0001:001D4844       aIeurlelements
 0001:001D4860       aHostsfile
 0001:001D4874       aReportquerys
 0001:001D4890       aReportqueries
 0001:001D48AC       aAveragerttim_1
 0001:001D48C8       aDsssource_0
 0001:001D48DC       aSdn_1
 0001:001D48E4       aRtsd_1
 0001:001D48F0       aFilequerys
 0001:001D4908       aFilequeries
 0001:001D4920       aScansource_1
 0001:001D4938       aRttimestddev_0
 0001:001D4954       aLowficount_0
 0001:001D496C       aRttimehistor_0
 0001:001D4988       aLastchangeti_0
 0001:001D49A8       aNewthreatid_0
 0001:001D49C0       aIschanged_0
 0001:001D49D4       aChangevalida_1
 0001:001D49F4       aData_scrubbed
 0001:001D4A10       aValidationty_0
 0001:001D4A30       aData_scrubbe_0
 0001:001D4A4C       aUsershellfol_3
 0001:001D4A6C       aUsershellfolde
 0001:001D4A90       aHostsfile_0
 0001:001D4A9C       aFirewallport
 0001:001D4AAC       aNameserverpr_0
 0001:001D4AD8       aNameserverprot
 0001:001D4B04       aRestrictrun_0
 0001:001D4B1C       aRestrictruns
 0001:001D4B38       a_schema
 0001:001D4B48       aUsershellfol_0
 0001:001D4B58       aOriginalthre_0
 0001:001D4B7C       aFound_0
 0001:001D4B88       aInifilemappi_1
 0001:001D4B98       aIeurl_0
 0001:001D4BA0       aRestrictrun_1
 0001:001D4BAC       aNameserverpr_1
 0001:001D4BC4       aSample_0
 0001:001D4BCC       aHeartbeatfun_0
 0001:001D4BFC       aHeartbeatfea_0
 0001:001D4C28       aSampleparame_1
 0001:001D4C48       aSampledata_1
 0001:001D4C60       aExclusiontyp_0
 0001:001D4C7C       aHeartbeaterr_4
 0001:001D4C8C       aHeartbeaterr_7
 0001:001D4CB8       aHeartbeaterr_6
 0001:001D4CE4       aRemediationc_5
 0001:001D4D04       aCheckpointregk
 0001:001D4D18       aLaststartupt_0
 0001:001D4D38       aLastofflinet_0
 0001:001D4D58       aCheckpointre_1
 0001:001D4D7C       aRemediationc_7
 0001:001D4DBC       aSpyneterrors
 0001:001D4DD8       aSampletype_1
 0001:001D4DF0       aSpyneterror_0
 0001:001D4DFC       aFunction_3
 0001:001D4E10       aErrorfield_0
 0001:001D4E28       aHresult_1
 0001:001D4E38       aRequestorganiz
 0001:001D4E68       aRequestcity
 0001:001D4E80       aWcdmachineid
 0001:001D4E9C       aMatcheddsbstor
 0001:001D4ED0       aMatchedpreproc
 0001:001D4F08       aExclusionval_1
 0001:001D4F38       aExclusionval_0
 0001:001D4F58       aExclusionval_2
 0001:001D4F88       aUnused_0
 0001:001D4F98       aContenttype_0
 0001:001D4FB0       aRequestcountry
 0001:001D4FD0       aDeploymentunit
 0001:001D4FF0       aRegion
 0001:001D5000       aGeo
 0001:001D5008       aProductversi_0
 0001:001D5028       aInstanceid
 0001:001D5040       aHighpriority
 0001:001D505C       aEndtime_1
 0001:001D506C       aMputdatapoints
 0001:001D508C       aHighpriority_0
 0001:001D50A8       aStarttime_1
 0001:001D50BC       aEndtime_0
 0001:001D50CC       aStarttime
 0001:001D50E0       aProcessname_0
 0001:001D50F8       aIsprocessfri_0
 0001:001D511C       aIsprocessfrien
 0001:001D5140       aMputdatapoin_0
 0001:001D515C       aMputdatapoint
 0001:001D516C       aLastupdatedtim
 0001:001D518C       aDatamode_1
 0001:001D51A0       aStringvalue_1
 0001:001D51B8       aLastupdatedt_0
 0001:001D51D8       aDatatype
 0001:001D51EC       aDatamode_0
 0001:001D5200       aDatatype_0
 0001:001D5214       aId_5
 0001:001D5218       aIntegralvalue
 0001:001D5234       aStringvalue
 0001:001D524C       aIntegralvalu_0
 0001:001D5268       aHashedfilepa_0
 0001:001D5288       aHashedfilepath
 0001:001D52A8       aProcesssha1_0
 0001:001D52C0       aProcesssha1
 0001:001D52D8       aRealfilepath_1
 0001:001D5304       aRealfilepath_s
 0001:001D5330       aHashedproces_0
 0001:001D5354       aHashedprocessp
 0001:001D5378       aFilesha1_0
 0001:001D538C       aFilesha1
 0001:001D53A0       aClosescansco_1
 0001:001D53C0       aClosescansco_0
 0001:001D53E0       aMinimumfiles_0
 0001:001D540C       aMinimumfilesiz
 0001:001D5438       aScantimems
 0001:001D5450       aScantimems_0
 0001:001D5468       aOpenscanscou_0
 0001:001D5488       aOpenscanscount
 0001:001D54A8       aRealprocessp_2
 0001:001D54DC       aRealprocessp_1
 0001:001D5510       aRealfilepath_0
 0001:001D552C       aRealfilepath
 0001:001D5548       aMaximumfiles_0
 0001:001D5574       aMaximumfilesiz
 0001:001D55A0       aRealprocessp_0
 0001:001D55C0       aRealprocesspat
 0001:001D55E0       aQueueerrorscou
 0001:001D5604       aLostfiletime_0
 0001:001D5624       aProcesserrorsc
 0001:001D564C       aQueueerrorsc_0
 0001:001D5670       aLostprocesstim
 0001:001D5694       aTotaltimems_0
 0001:001D56AC       aLostfiletimems
 0001:001D56CC       aLostprocesst_0
 0001:001D56F0       aRtpprocessinfo
 0001:001D5710       aProcessfilep_1
 0001:001D5730       aTelemetryerror
 0001:001D575C       aProcesserror_0
 0001:001D5784       aProcessfilep_0
 0001:001D57A8       aTelemetryerr_0
 0001:001D57D4       aTotalrtpevents
 0001:001D57FC       aEndtimefilet_1
 0001:001D581C       aTotaltimems
 0001:001D5834       aTotalrtpeven_0
 0001:001D585C       aStarttimefil_1
 0001:001D5880       aEndtimefilet_0
 0001:001D58A0       aStarttimefilet
 0001:001D58C4       aText_1
 0001:001D58D0       aDnsname_scrubb
 0001:001D58F4       aDnsname_1
 0001:001D5904       aNotbeforetim_0
 0001:001D592C       aNotaftertime_0
 0001:001D5950       aPointerdata_0
 0001:001D5968       aIpv6datahigh_0
 0001:001D5984       aPointerdata__0
 0001:001D59B0       aPointerdata_sc
 0001:001D59DC       aRecordname_1
 0001:001D59F4       aDnsname_scru_0
 0001:001D5A18       aIpv6datalow_0
 0001:001D5A30       aIpv4data_0
 0001:001D5A44       aProcessfilepai
 0001:001D5A54       aNewsha256_0
 0001:001D5A68       aFilestillexi_0
 0001:001D5A88       aRtpprocessin_0
 0001:001D5A98       aNewsha1_0
 0001:001D5AA8       aNewsize_0
 0001:001D5AB8       aRequestornam_0
 0001:001D5AD4       aTrustedstate_0
 0001:001D5AF0       aRequestornam_1
 0001:001D5B20       aRequestorname_
 0001:001D5B50       aDnsrecords
 0001:001D5B68       aTxtrecord_0
 0001:001D5B74       aBlocked_0
 0001:001D5B84       aDnsrecord_0
 0001:001D5B90       aExeappname_s_0
 0001:001D5BB8       aExeappname_scr
 0001:001D5BE0       aExecommandli_0
 0001:001D5C00       aExeappsha1_0
 0001:001D5C18       aRequestoril_0
 0001:001D5C30       aRequestorsha_0
 0001:001D5C4C       aExeappname_0
 0001:001D5C64       aAutoelevate_2
 0001:001D5C7C       aTxtrecords
 0001:001D5C94       aMxname_scrubbe
 0001:001D5CB4       aMxname_0
 0001:001D5CC4       aPreference_0
 0001:001D5CDC       aMxname_scrub_0
 0001:001D5CFC       aPkappappid_0
 0001:001D5D14       aPkappfamilyn_0
 0001:001D5D34       aPkappcommand_0
 0001:001D5D58       aPkappappname_0
 0001:001D5D74       aPkappcommand_2
 0001:001D5DA8       aPkappcommand_1
 0001:001D5DDC       aComclsid_0
 0001:001D5DF0       aComserverbin_0
 0001:001D5E10       aMsipackagepa_0
 0001:001D5E30       aMsiaction_0
 0001:001D5E44       aExecommandli_2
 0001:001D5E74       aExecommandli_1
 0001:001D5EA4       aComrequestor_0
 0001:001D5EC0       aExedllparame_0
 0001:001D5EE0       aBlockingtrig_0
 0001:001D5F0C       aAxurl_scrubb_0
 0001:001D5F2C       aBlockingtrig_2
 0001:001D5F58       aBlockingtrig_1
 0001:001D5F84       aMsipackagepa_2
 0001:001D5FB4       aMsipackagepa_1
 0001:001D5FE4       aAxurl_scrubbed
 0001:001D6004       aAxurl_0
 0001:001D6010       aCompletionti_1
 0001:001D6030       aCompletionti_0
 0001:001D6050       aRsignalcode_0
 0001:001D6068       aRsignalcode
 0001:001D6080       aScanid_0
 0001:001D6090       aScanid_2
 0001:001D60A0       aCurrentsha1_0
 0001:001D60B8       aCurrentsha1
 0001:001D60D0       aRsignalresul_0
 0001:001D60EC       aRsignalresult
 0001:001D6108       aResourceresu_0
 0001:001D6128       aResourceresult
 0001:001D6148       aValuesize_0
 0001:001D615C       aVariableattr_0
 0001:001D6184       aValuehash_0
 0001:001D6198       aValuestart_0
 0001:001D61B0       aMapsgenerate_0
 0001:001D61D8       aMapsclientla_0
 0001:001D61FC       aMapsparselat_0
 0001:001D6220       aMapssendlate_0
 0001:001D6240       aFirmwareenvi_1
 0001:001D625C       aFirmwareenvi_2
 0001:001D6298       aResourcecrea_0
 0001:001D62C0       aThreattrack_12
 0001:001D62E4       aTriggeringproc
 0001:001D6310       aResourcecrea_1
 0001:001D6338       aRsignallog
 0001:001D6344       aNamespacegui_0
 0001:001D6360       aVariablename_0
 0001:001D637C       aRsignallogs
 0001:001D6394       aTriggeringpr_0
 0001:001D63C0       aRsignallog_0
 0001:001D63D8       aMapsreadresp_0
 0001:001D6404       aMapssendover_0
 0001:001D6430       aMapssendrequ_0
 0001:001D6458       aMapsreceiver_0
 0001:001D6488       aMapssendurla_0
 0001:001D64B0       aMapshttpstat_0
 0001:001D64D0       aMapshresult_0
 0001:001D64E8       aMapscreateco_0
 0001:001D651C       aMapsreportgu_0
 0001:001D653C       aMapsonfirsts_0
 0001:001D656C       aMapsonconnec_1
 0001:001D6594       aMapsonsenden_0
 0001:001D65B8       aMapsonfirstr_0
 0001:001D65EC       aMapsonresolv_0
 0001:001D661C       aMapsonsendst_0
 0001:001D6644       aMapsonconnec_0
 0001:001D6670       aMapsonresolv_1
 0001:001D66A0       aSubmissionty_1
 0001:001D66C0       aChangedsha25_0
 0001:001D66DC       aBafsextended_1
 0001:001D6710       aMapsroundtri_0
 0001:001D6738       aChangedsha1_0
 0001:001D6750       aRemaininghol_0
 0001:001D6774       aSubstatus_1
 0001:001D6788       aStatus_1
 0001:001D6798       aCompressiont_0
 0001:001D67BC       aFilereadtick_0
 0001:001D67D8       aEndtoendtick_0
 0001:001D67F4       aMpcmdrunspin_0
 0001:001D681C       aConsentticks_0
 0001:001D6838       aRescaninelig_0
 0001:001D6868       aFilecopytick_0
 0001:001D6884       aQueuedticks_0
 0001:001D689C       aMachineguid_sc
 0001:001D68C8       aMachineguid_1
 0001:001D68E0       aAssigversion_0
 0001:001D68FC       aMachineguid__0
 0001:001D6928       aReporttime
 0001:001D6940       aTargetpath_0
 0001:001D694C       aDatetime
 0001:001D6960       aReporttime_0
 0001:001D6978       aDep
 0001:001D6980       aStringreport
 0001:001D699C       aIever_0
 0001:001D69A8       aDep_0
 0001:001D69B0       aNrienginever_0
 0001:001D69D4       aNrisigversio_0
 0001:001D69F0       aMemoryreport_0
 0001:001D6A0C       aIsheartbeat_0
 0001:001D6A24       aRuleid_0
 0001:001D6A34       aInheritancef_1
 0001:001D6A58       aIsaudit_1
 0001:001D6A68       aParentpath_0
 0001:001D6A74       aIsaudit_0
 0001:001D6A7C       aRuletype_0
 0001:001D6A88       aRuleid_1
 0001:001D6A90       aRuletype_1
 0001:001D6AA4       aTargetpath_1
 0001:001D6ABC       aInheritancef_0
 0001:001D6AD0       aUnint
 0001:001D6ADC       aQueryonly_0
 0001:001D6AF0       aQueryonly
 0001:001D6B04       aLocation_0
 0001:001D6B18       aSpynetreportgu
 0001:001D6B3C       aSysmfg
 0001:001D6B4C       aSysmfg_1
 0001:001D6B5C       aSysmodel
 0001:001D6B70       aSysmodel_1
 0001:001D6B84       aVia
 0001:001D6B8C       aIp_address_scr
 0001:001D6BB4       aFilereportelem
 0001:001D6BDC       aVia_0
 0001:001D6BE4       aIpaddress
 0001:001D6BF8       aLocation_1
 0001:001D6C0C       aIpaddress_scru
 0001:001D6C34       aIp_address
 0001:001D6C4C       aProcessor_0
 0001:001D6C60       aLcid_0
 0001:001D6C6C       aUacluaenable_1
 0001:001D6C88       aOsmetrics_0
 0001:001D6C9C       aOssuite_0
 0001:001D6CAC       aOsbuild_0
 0001:001D6CBC       aGeoid_0
 0001:001D6CC8       aOstype_1
 0001:001D6CD8       aAppversion_1
 0001:001D6CF0       aMembership_0
 0001:001D6D08       aSysmarker
 0001:001D6D1C       aSysmarker_1
 0001:001D6D30       aUacconsentus_1
 0001:001D6D50       aUacconsentad_1
 0001:001D6D70       aProductguid_0
 0001:001D6D88       aUacdesktoppr_1
 0001:001D6DAC       aUsers_0
 0001:001D6DB8       aUniqueid_scrub
 0001:001D6DDC       aIsmsftintern_0
 0001:001D6DFC       aUser_2
 0001:001D6E08       aUniqueid_1
 0001:001D6E1C       aEkpub_0
 0001:001D6E28       aUniqueid_scr_1
 0001:001D6E4C       aUniqueid
 0001:001D6E60       aTpmuniqueid_0
 0001:001D6E78       aMsamachineid_1
 0001:001D6EA4       aTpmuniqueid__0
 0001:001D6ED0       aTpmuniqueid_sc
 0001:001D6EFC       aMsamachineid
 0001:001D6F18       aTesthook
 0001:001D6F2C       aMsamachineid_s
 0001:001D6F58       aMsamachineid_0
 0001:001D6F74       aMemorythreat_1
 0001:001D6FAC       aBootthreatre_1
 0001:001D6FE0       aAvstates
 0001:001D6FF4       aRootkitthrea_1
 0001:001D702C       aHardwareelemen
 0001:001D704C       aSignaturereq_0
 0001:001D7070       aBootremovalele
 0001:001D7098       aHardware_0
 0001:001D70AC       aAik
 0001:001D70B4       aAunotificati_0
 0001:001D70D4       aEkpub
 0001:001D70E0       aAik_0
 0001:001D70E8       aNonce_0
 0001:001D70F4       aNonce
 0001:001D7100       aFirewall_0
 0001:001D7114       aSmartscreen_1
 0001:001D712C       aCachedtpmid__0
 0001:001D7158       aCachedtpmid_sc
 0001:001D7184       aOldmachinegu_2
 0001:001D71B4       aOldmachinegu_1
 0001:001D71E4       aPartnerguid__0
 0001:001D7210       aPartnerguid_sc
 0001:001D723C       aCachedtpmid_0
 0001:001D7254       aCachedtpmid
 0001:001D726C       aOwnerauthful_0
 0001:001D7288       aOwnerauthfull
 0001:001D72A4       aOwnerauthadm_0
 0001:001D72C4       aOwnerauthadmin
 0001:001D72E4       aTpmready_0
 0001:001D72F8       aTpmready
 0001:001D730C       aTpmmanufactu_0
 0001:001D7330       aTpmmanufacture
 0001:001D7354       aMachinename__0
 0001:001D7380       aMachinename_sc
 0001:001D73AC       aWdolastrun_0
 0001:001D73C4       aPbrdata_0
 0001:001D73D4       aWuuniqueid_scr
 0001:001D73FC       aWuuniqueid_0
 0001:001D7414       aMachinename_0
 0001:001D742C       aWuuniqueid_s_0
 0001:001D7454       aSigneddigest
 0001:001D7470       aSigneddigest_1
 0001:001D748C       aAutosampleop_1
 0001:001D74AC       aAutosampleop_0
 0001:001D74CC       aServicestate_1
 0001:001D74E8       aOsupgraded_0
 0001:001D7500       aOsproducttyp_0
 0001:001D751C       aMapsorigin_0
 0001:001D7534       aEngineloadfile
 0001:001D755C       aBackendmetad_0
 0001:001D757C       aDeviceid
 0001:001D7590       aThreadthreat_0
 0001:001D75B8       aRemediations_1
 0001:001D75F8       aEnginereport_0
 0001:001D761C       aDefaultbrows_2
 0001:001D763C       aRemediations_2
 0001:001D7670       aMputdata_0
 0001:001D7684       aBmprocessarg_0
 0001:001D76B4       aRtpscantelem_0
 0001:001D76D8       aFileassociat_2
 0001:001D76FC       aDeviceid_scrub
 0001:001D7720       aDeviceid_0
 0001:001D7734       aBmprocessargum
 0001:001D7764       aDeviceid_scr_0
 0001:001D7788       aBmstarttime_0
 0001:001D77A0       aBmnotificati_0
 0001:001D77C8       aIsbeta_0
 0001:001D77D8       aRemediationc_6
 0001:001D7814       aSystemmanufact
 0001:001D783C       aSystemmanufa_1
 0001:001D7864       aSystemproductn
 0001:001D7888       aSystemproduc_1
 0001:001D78AC       aRtphresult_0
 0001:001D78C4       aRtpstatebitf_0
 0001:001D78E8       aBmhresult_0
 0001:001D78FC       aOahresult_0
 0001:001D7910       aHeartbeatcon_0
 0001:001D793C       aStillalivehe_1
 0001:001D7964       aDeprecatedrtps
 0001:001D798C       aUefisecurebo_2
 0001:001D79B8       aDssrecoveryr_0
 0001:001D79EC       aDssrecoveryrep
 0001:001D7A20       aRecoveredres_1
 0001:001D7A44       aRecoveredres_0
 0001:001D7A6C       aAmsiuacinfos
 0001:001D7A88       aIssevilleena_0
 0001:001D7AAC       aAutosampleop_2
 0001:001D7AD8       aTestsignings_0
 0001:001D7AFC       aComputerdnsn_4
 0001:001D7B24       aFirmwareenvi_4
 0001:001D7B60       aOrgid_scrubbed
 0001:001D7B80       aOrgid_1
 0001:001D7B8C       aIesmartscree_0
 0001:001D7BA8       aGradualrelea_0
 0001:001D7BC8       aMapslatencies
 0001:001D7BE4       aIsmanaged_0
 0001:001D7BF8       aComputerdnsn_3
 0001:001D7C2C       aComputerdnsn_2
 0001:001D7C60       aComputernetb_1
 0001:001D7C9C       aComputernetbio
 0001:001D7CC4       aMachinesqmid_s
 0001:001D7CF0       aMachinesqmid_0
 0001:001D7D0C       aComputerdnsn_1
 0001:001D7D2C       aMachinesqmid_1
 0001:001D7D58       aWerconsentva_0
 0001:001D7D78       aOsbuildlab_0
 0001:001D7D90       aRootcertrepo_2
 0001:001D7DC0       aRootcertrepo_1
 0001:001D7DE0       aLocalipaddre_0
 0001:001D7E00       aComputernetb_2
 0001:001D7E3C       aThreatnotfou_1
 0001:001D7E6C       aIssqmtest_0
 0001:001D7E80       aSenseguid_2
 0001:001D7E94       aWmithreatrep_0
 0001:001D7EB8       aSenseguid_scru
 0001:001D7EE0       aSenseguid_sc_1
 0001:001D7F08       aAzurevirtual_1
 0001:001D7F4C       aAzurevirtual_0
 0001:001D7F7C       aPvpring_0
 0001:001D7F90       aAzurevirtual_2
 0001:001D7FD4       aHasavcompatv_0
 0001:001D7FF8       aEsusigversio_0
 0001:001D8014       aSdnrevision
 0001:001D802C       aDeprecatedsdnr
 0001:001D8058       aIspassivemod_1
 0001:001D8074       aCampgradualr_0
 0001:001D809C       aEsusigversion
 0001:001D80B8       aDeprecatedesus
 0001:001D80E8       aPuamode_0
 0001:001D80F8       aAzsubmitfeed_1
 0001:001D811C       aOfficeversio_0
 0001:001D8138       aIssxspassive_0
 0001:001D815C       aBiosversion_1
 0001:001D8174       aOrgid_scrubb_0
 0001:001D8194       aSupportedcom_1
 0001:001D81C0       aBiosreleased_1
 0001:001D81E0       aAzurenodeid_0
 0001:001D81F8       aCloudblockle_0
 0001:001D8218       aAzurenodeid__0
 0001:001D8244       aAzurenodeid_sc
 0001:001D8270       aCachedproxys_2
 0001:001D82A8       aCachedproxys_1
 0001:001D82E0       aProxyserver__0
 0001:001D830C       aProxyserver_sc
 0001:001D8338       aCioptions_0
 0001:001D834C       aBfsigversion_0
 0001:001D8368       aAsrreports
 0001:001D8380       aSmode_1
 0001:001D838C       aSdnrevision_1
 0001:001D83A4       aBfsigversion
 0001:001D83C0       aDeprecatedbfsi
 0001:001D83F0       aMemorythreat_0
 0001:001D8404       aMemoryreport
 0001:001D8414       aRecoveredresou
 0001:001D8428       aMputdata
 0001:001D8434       aHardware
 0001:001D8440       aFirmwareenvi_3
 0001:001D8460       aMapslatency_0
 0001:001D846C       aHeartbeaterr_5
 0001:001D847C       aSamples_0
 0001:001D8484       aRtpscantelemet
 0001:001D8498       aSpynetcollec_0
 0001:001D84B0       aSignaturereq_1
 0001:001D84C4       aRemediations_0
 0001:001D84DC       aRemediationc_4
 0001:001D84F8       aRootkitthrea_0
 0001:001D850C       aRootcertrepo_0
 0001:001D851C       aBackendmetadat
 0001:001D852C       aAzsubmitfeed_0
 0001:001D8540       aBootremoval_0
 0001:001D854C       aBehaviorrepo_0
 0001:001D855C       aAvstate_0
 0001:001D8564       aAsrreport_0
 0001:001D8570       aAmsiuacinfo_0
 0001:001D857C       aExclusions_0
 0001:001D8588       aDriverdata_0
 0001:001D8594       aFilereport_0
 0001:001D85A0       aFileassociat_1
 0001:001D85B4       aDefaultbrows_1
 0001:001D85C4       aBootthreatre_0
 0001:001D85D8       aDnsservers_0
 0001:001D85E4       aDnscache_0
 0001:001D85F0       aWmithreatrepor
 0001:001D8600       aWindowsupdat_0
 0001:001D8614       aSpynetreport_1
 0001:001D8624       aNonfilesamplea
 0001:001D863C       aThreadthreatre
 0001:001D8650       aStringreport_0
 0001:001D8660       aUser_1
 0001:001D8668       aThreatnotfou_0
 0001:001D8678       aJulianday
 0001:001D8684       aTime
 0001:001D868C       aDate_1
 0001:001D8694       aCurrent_date
 0001:001D86A4       aStrftime
 0001:001D86B0       aDatetime_0
 0001:001D86BC       aCurrent_timest
 0001:001D86D0       aCurrent_time
 0001:001D86E0       aSecond
 0001:001D86E8       aHour_0
 0001:001D86F0       aMinute_0
 0001:001D86F8       aGetdiskfreespa
 0001:001D870C       aFreelibrary
 0001:001D8718       aGetfileattri_1
 0001:001D872C       aGetdiskfrees_0
 0001:001D8740       aFlushfilebuffe
 0001:001D8754       aFiletimetosyst
 0001:001D876C       aFormatmessagew
 0001:001D877C       aFormatmessagea
 0001:001D878C       aGetprocaddre_0
 0001:001D879C       aGetlasterror
 0001:001D87AC       aGetsystemtime
 0001:001D87BC       aGetsysteminfo
 0001:001D87CC       aGetfileattri_2
 0001:001D87E4       aGetfileattri_3
 0001:001D87F8       aGetfullpathnam
 0001:001D880C       aGetfullpathn_0
 0001:001D8820       aArefileapisans
 0001:001D8830       aCharupperw
 0001:001D883C       aCharlowerw
 0001:001D8848       aCreatemutexw
 0001:001D8858       aCreatefilemapp
 0001:001D886C       aFiletimetoloca
 0001:001D8884       aDeletefilea
 0001:001D8890       aCreatefilea
 0001:001D889C       aClosehandle
 0001:001D88A8       aCreatefilema_0
 0001:001D88BC       aCreatefilew
 0001:001D88C8       aQueryperforman
 0001:001D88E0       aMultibytetow_0
 0001:001D88F4       aSetfilepointer
 0001:001D8904       aSetendoffile
 0001:001D8914       aLockfile
 0001:001D8920       aLocalfree
 0001:001D892C       aMapviewoffile
 0001:001D893C       aLockfileex
 0001:001D8948       aWidechartomult
 0001:001D895C       aUnmapviewoffil
 0001:001D896C       aWaitforsingleo
 0001:001D8984       aWaitforsingl_0
 0001:001D8998       aSystemtimetofi
 0001:001D89B0       aSleep
 0001:001D89B8       aUnlockfileex
 0001:001D89C8       aUnlockfile
 0001:001D89D4       aGetversionexw
 0001:001D89E4       aGetversionexa
 0001:001D89F4       aHeapcreate
 0001:001D8A00       aHeapalloc
 0001:001D8A0C       aGettemppatha
 0001:001D8A1C       aGetsystemtimea
 0001:001D8A34       aGettickcount
 0001:001D8A44       aGettemppathw
 0001:001D8A54       aHeapcompact
 0001:001D8A60       aHeapvalidate
 0001:001D8A70       aLoadlibraryw
 0001:001D8A80       aLoadlibrarya
 0001:001D8A90       aHeapfree
 0001:001D8A9C       aHeapdestroy
 0001:001D8AA8       aHeapsize
 0001:001D8AB4       aHeaprealloc
 0001:001D8AC0       aOutputdebugstr
 0001:001D8AD4       aGetnativesyste
 0001:001D8AE8       aGetprocessheap
 0001:001D8AF8       aOutputdebugs_0
 0001:001D8B0C       aMapviewoffilef
 0001:001D8B24       aSetfilepoint_0
 0001:001D8B38       aLoadpackagedli
 0001:001D8B4C       aCreatefile2
 0001:001D8B58       aFlushviewoffil
 0001:001D8B68       aInterlockedcom
 0001:001D8B84       aCreatefilema_1
 0001:001D8BA0       aUuidcreatesequ
 0001:001D8BB8       aUuidcreate
 0001:001D8BC4       aWin32Longpath
 0001:001D8BD4       aWin32_2
 0001:001D8BE4       aWin32LongpathN
 0001:001D8BF8       aWin32None
 0001:001D8C04       aJournal
 0001:001D8C10       aUnique_0
 0001:001D8C18       aNotNull
 0001:001D8C24       aForeignKey
 0001:001D8C30       aCheck
 0001:001D8C38       aSqlite_rename_
 0001:001D8C50       aSqlite_renam_0
 0001:001D8C64       aSqlite_stat4
 0001:001D8C74       aStat_init
 0001:001D8C80       aSqlite_stat3
 0001:001D8C90       aTblIdxStat
 0001:001D8CA0       aStat_push
 0001:001D8CAC       aStat_get
 0001:001D8CB8       aSqlite_attach
 0001:001D8CC8       aSqlite_detach
 0001:001D8CD8       aText_2
 0001:001D8CE0       aInt_2
 0001:001D8CE8       aNum
 0001:001D8CF0       aReal_0
 0001:001D8CF8       aLast_insert_ro
 0001:001D8D0C       aQuote
 0001:001D8D14       aTotal_changes
 0001:001D8D24       aChanges
 0001:001D8D2C       aSqlite_version
 0001:001D8D3C       aNullif
 0001:001D8D44       aSqlite_log
 0001:001D8D50       aSqlite_source_
 0001:001D8D64       aCoalesce
 0001:001D8D70       aGroup_concat
 0001:001D8D80       aSum
 0001:001D8D84       aZeroblob
 0001:001D8D90       aAvg
 0001:001D8D94       aTotal
 0001:001D8D9C       aLikelihood
 0001:001D8DA8       aUnlikely
 0001:001D8DB4       aLtrim
 0001:001D8DBC       aLikely
 0001:001D8DC4       aHex
 0001:001D8DC8       aPrintf
 0001:001D8DD0       aRandomblob
 0001:001D8DDC       aIfnull
 0001:001D8DE4       aTrim
 0001:001D8DEC       aRtrim_0
 0001:001D8DF4       aInstr
 0001:001D8DFC       aTypeof_0
 0001:001D8E04       aFkid
 0001:001D8E0C       aParent
 0001:001D8E14       aCheckpointed
 0001:001D8E24       aBusy_0
 0001:001D8E2C       aOn_update
 0001:001D8E38       aBuiltin
 0001:001D8E40       aOn_delete
 0001:001D8E4C       aCache_spill
 0001:001D8E58       aBusy_timeout
 0001:001D8E68       aCell_size_chec
 0001:001D8E78       aCase_sensitive
 0001:001D8E8C       aActivate_exten
 0001:001D8EA0       aTimeout
 0001:001D8EA8       aAutomatic_inde
 0001:001D8EB8       aApplication_id
 0001:001D8EC8       aNotnull
 0001:001D8ED0       aCid
 0001:001D8ED4       aDflt_value
 0001:001D8EE0       aCache_size
 0001:001D8EEC       aSeq
 0001:001D8EF0       aColl
 0001:001D8EF8       aOrigin
 0001:001D8F00       aUnique
 0001:001D8F08       aHght
 0001:001D8F10       aWdth
 0001:001D8F18       aSeqno
 0001:001D8F20       aFlgs
 0001:001D8F28       aMmap_size
 0001:001D8F34       aMax_page_count
 0001:001D8F44       aPage_count
 0001:001D8F50       aOptimize
 0001:001D8F5C       aJournal_size_l
 0001:001D8F70       aJournal_mode
 0001:001D8F80       aLocking_mode
 0001:001D8F90       aLegacy_file_fo
 0001:001D8FA4       aReverse_unorde
 0001:001D8FC0       aRekey
 0001:001D8FC8       aSecure_delete
 0001:001D8FD8       aSchema_version
 0001:001D8FE8       aQuery_only
 0001:001D8FF4       aPage_size
 0001:001D9000       aRecursive_trig
 0001:001D9014       aRead_uncommitt
 0001:001D9028       aDatabase_list
 0001:001D9038       aData_version
 0001:001D9048       aFreelist_count
 0001:001D9058       aEmpty_result_c
 0001:001D9070       aCollation_list
 0001:001D9080       aCheckpoint_ful
 0001:001D9098       aData_store_dir
 0001:001D90B0       aCount_changes
 0001:001D90C0       aIndex_info
 0001:001D90CC       aIgnore_check_c
 0001:001D90E8       aIndex_xinfo
 0001:001D90F4       aIndex_list
 0001:001D9100       aFullfsync
 0001:001D910C       aFull_column_na
 0001:001D9120       aHexrekey
 0001:001D912C       aWal
 0001:001D9130       aUtf8_1
 0001:001D9138       aUtf16le_0
 0001:001D9144       aUtf8_2
 0001:001D914C       aTemp_store
 0001:001D9158       aTable_info
 0001:001D9164       aThreads
 0001:001D916C       aTemp_store_dir
 0001:001D9184       aShrink_memory
 0001:001D9194       aShort_column_n
 0001:001D91A8       aSynchronous
 0001:001D91B4       aSoft_heap_limi
 0001:001D91C4       aOff
 0001:001D91C8       aDelete_0
 0001:001D91D0       aWal_autocheckp
 0001:001D91E4       aUser_version
 0001:001D91F4       aWritable_schem
 0001:001D9204       aWal_checkpoint
 0001:001D9214       aUtf16
 0001:001D921C       aUtf16le_1
 0001:001D9224       aUtf16be
 0001:001D9230       aUtf16_0
 0001:001D9238       aUtf16be_0
 0001:001D9240       aRegexp_1
 0001:001D9248       aDatabaseIsLock
 0001:001D925C       aQueryAborted
 0001:001D926C       aAttemptToWri_5
 0001:001D9294       aDatabaseTableI
 0001:001D92B0       aNotAnError
 0001:001D92C0       aAccessPermissi
 0001:001D92DC       aSqlLogicError
 0001:001D92EC       aLockingProtoco
 0001:001D9300       aUnableToOpen_0
 0001:001D9320       aDatatypeMismat
 0001:001D9334       aConstraintFail
 0001:001D9348       aDatabaseDiskIm
 0001:001D936C       aDiskIOError
 0001:001D9398       aUnknownOpera_0
 0001:001D93AC       aWarningMessage
 0001:001D93BC       aNotificationMe
 0001:001D93D4       aAuthorizationD
 0001:001D93EC       aBadParameterOr
 0001:001D9410       aFileIsNotAData
 0001:001D9428       aColumnIndexOut
 0001:001DA31C       aThstndrd
 0001:001DBBBD       aBcdefghijklm_0
 0001:001DBD6D       a1lmh
 0001:001DC204       aTitle
 0001:001DC20C       aTc
 0001:001DC210       aTab
 0001:001DC214       aSubject_0
 0001:001DC21C       aStylesheet
 0001:001DC228       aSbkpage
 0001:001DC230       aSbkodd
 0001:001DC238       aSbknone
 0001:001DC240       aSbkeven
 0001:001DC248       aSbkcol
 0001:001DC250       aRxe
 0001:001DC254       aRi
 0001:001DC258       aRevtim
 0001:001DC260       aRdblquote
 0001:001DC26C       aQr
 0001:001DC270       aQl
 0001:001DC274       aQj
 0001:001DC278       aQc
 0001:001DC27C       aPrivate1
 0001:001DC288       aPrintim
 0001:001DC290       aPict
 0001:001DC298       aPgny
 0001:001DC2A0       aPgnx
 0001:001DC2A8       aPgnucrm
 0001:001DC2B0       aPgnucltr
 0001:001DC2BC       aPgnstart
 0001:001DC2C8       aPgnlcrm
 0001:001DC2D0       aPgnlcltr
 0001:001DC2DC       aPgndec
 0001:001DC2E4       aPar
 0001:001DC2E8       aPaperw
 0001:001DC2F0       aPaperh
 0001:001DC2F8       aOperator
 0001:001DC304       aObjdata
 0001:001DC30C       aMargt
 0001:001DC314       aMargr
 0001:001DC31C       aMargl
 0001:001DC324       aMargb
 0001:001DC32C       aLi
 0001:001DC330       aLdblquote
 0001:001DC33C       aLandscape
 0001:001DC348       aKeywords
 0001:001DC354       aInfo_0
 0001:001DC35C       aI_6
 0001:001DC360       aHtmltag
 0001:001DC368       aHeaderr
 0001:001DC370       aHeaderl
 0001:001DC378       aHeaderf
 0001:001DC380       aHeader
 0001:001DC388       aFtnsepc
 0001:001DC390       aFtnsep
 0001:001DC398       aFtncn
 0001:001DC3A0       aFootnote
 0001:001DC3AC       aFooterr
 0001:001DC3B4       aFooterl
 0001:001DC3BC       aFooterf
 0001:001DC3C4       aFooter
 0001:001DC3CC       aFonttbl
 0001:001DC3D4       aFi_0
 0001:001DC3D8       aFacingp
 0001:001DC3E0       aDoccomm
 0001:001DC3E8       aCreatim
 0001:001DC3F0       aComment
 0001:001DC3F8       aCols
 0001:001DC400       aColortbl
 0001:001DC40C       aBuptim
 0001:001DC414       aBin_0
 0001:001DC418       aB_2
 0001:001DC41C       aAuthor
 0001:001DC430       aSigaddr
 0001:001DC438       aLscnwr
 0001:001DC440       aLogsize
 0001:001DC448       aFepofs
 0001:001DC450       aEpsecwr
 0001:001DC458       aCrcep16
 0001:001DC460       aCrcep
 0001:001DC468       aSubsystem
 0001:001DC474       aBehavior_1
 0001:001DC480       aFilesize_0
 0001:001DC48C       aSub
 0001:001DC490       aGetcurrentpr_1
 0001:001DC4C8       aDetectedfriend
 0001:001DC4E0       aNop
 0001:001DC4E4       aBreak
 0001:001DC4EC       aLdarg_0
 0001:001DC4F4       aLdarg_1
 0001:001DC4FC       aLdarg_2
 0001:001DC504       aLdarg_3
 0001:001DC50C       aLdloc_0
 0001:001DC514       aLdloc_1
 0001:001DC51C       aLdloc_2
 0001:001DC524       aLdloc_3
 0001:001DC52C       aStloc_0
 0001:001DC534       aStloc_1
 0001:001DC53C       aStloc_2
 0001:001DC544       aStloc_3
 0001:001DC54C       aLdarg_s
 0001:001DC554       aLdarga_s
 0001:001DC560       aStarg_s
 0001:001DC568       aLdloc_s
 0001:001DC570       aLdloca_s
 0001:001DC57C       aStloc_s
 0001:001DC584       aLdnull
 0001:001DC58C       aLdc_i4_m1
 0001:001DC598       aLdc_i4_0
 0001:001DC5A4       aLdc_i4_1
 0001:001DC5B0       aLdc_i4_2
 0001:001DC5BC       aLdc_i4_3
 0001:001DC5C8       aLdc_i4_4
 0001:001DC5D4       aLdc_i4_5
 0001:001DC5E0       aLdc_i4_6
 0001:001DC5EC       aLdc_i4_7
 0001:001DC5F8       aLdc_i4_8
 0001:001DC604       aLdc_i4_s
 0001:001DC610       aLdc_i4
 0001:001DC618       aLdc_i8
 0001:001DC620       aLdc_r4
 0001:001DC628       aLdc_r8
 0001:001DC630       aUnused
 0001:001DC638       aDup
 0001:001DC63C       aPop
 0001:001DC640       aJmp
 0001:001DC644       aCall
 0001:001DC64C       aCalli
 0001:001DC654       aRet
 0001:001DC658       aBr_s
 0001:001DC660       aBrfalse_s
 0001:001DC66C       aBrtrue_s
 0001:001DC678       aBeq_s
 0001:001DC680       aBge_s
 0001:001DC688       aBgt_s
 0001:001DC690       aBle_s
 0001:001DC698       aBlt_s
 0001:001DC6A0       aBne_un_s
 0001:001DC6AC       aBge_un_s
 0001:001DC6B8       aBgt_un_s
 0001:001DC6C4       aBle_un_s
 0001:001DC6D0       aBlt_un_s
 0001:001DC6DC       aBr
 0001:001DC6E0       aBrfalse
 0001:001DC6E8       aBrtrue
 0001:001DC6F0       aBeq
 0001:001DC6F4       aBge
 0001:001DC6F8       aBgt
 0001:001DC6FC       aBle
 0001:001DC700       aBlt
 0001:001DC704       aBne_un
 0001:001DC70C       aBge_un
 0001:001DC714       aBgt_un
 0001:001DC71C       aBle_un
 0001:001DC724       aBlt_un
 0001:001DC72C       aSwitch
 0001:001DC734       aLdind_i1
 0001:001DC740       aLdind_u1
 0001:001DC74C       aLdind_i2
 0001:001DC758       aLdind_u2
 0001:001DC764       aLdind_i4
 0001:001DC770       aLdind_u4
 0001:001DC77C       aLdind_i8
 0001:001DC788       aLdind_i
 0001:001DC790       aLdind_r4
 0001:001DC79C       aLdind_r8
 0001:001DC7A8       aLdind_ref
 0001:001DC7B4       aStind_ref
 0001:001DC7C0       aStind_i1
 0001:001DC7CC       aStind_i2
 0001:001DC7D8       aStind_i4
 0001:001DC7E4       aStind_i8
 0001:001DC7F0       aStind_r4
 0001:001DC7FC       aStind_r8
 0001:001DC808       aAdd
 0001:001DC80C       aMul
 0001:001DC810       aDiv_0
 0001:001DC814       aDiv_un
 0001:001DC81C       aRem
 0001:001DC820       aRem_un
 0001:001DC828       aAnd
 0001:001DC82C       aOr
 0001:001DC830       aXor_0
 0001:001DC834       aShl
 0001:001DC838       aShr
 0001:001DC83C       aShr_un
 0001:001DC844       aNeg
 0001:001DC848       aNot_2
 0001:001DC84C       aConv_i1
 0001:001DC854       aConv_i2
 0001:001DC85C       aConv_i4
 0001:001DC864       aConv_i8
 0001:001DC86C       aConv_r4
 0001:001DC874       aConv_r8
 0001:001DC87C       aConv_u4
 0001:001DC884       aConv_u8
 0001:001DC88C       aCallvirt
 0001:001DC898       aCpobj
 0001:001DC8A1       aDobj
 0001:001DC8A8       aLdstr
 0001:001DC8B0       aNewobj
 0001:001DC8B8       aCastclass
 0001:001DC8C4       aIsinst
 0001:001DC8CC       aConv_r_un
 0001:001DC8D8       aUnbox
 0001:001DC8E0       aThrow_0
 0001:001DC8E8       aLdfld
 0001:001DC8F0       aLdflda
 0001:001DC8F8       aStfld
 0001:001DC900       aLdsfld
 0001:001DC908       aLdsflda
 0001:001DC910       aStsfld
 0001:001DC918       aStobj
 0001:001DC9C4       aNewarr
 0001:001DC9CC       aLdlen
 0001:001DC9D4       aLdelema
 0001:001DC9DC       aLdelem_i1
 0001:001DC9E8       aLdelem_u1
 0001:001DC9F4       aLdelem_i2
 0001:001DCA00       aLdelem_u2
 0001:001DCA0C       aLdelem_i4
 0001:001DCA18       aLdelem_u4
 0001:001DCA24       aLdelem_i8
 0001:001DCA30       aLdelem_i
 0001:001DCA3C       aLdelem_r4
 0001:001DCA48       aLdelem_r8
 0001:001DCA54       aLdelem_ref
 0001:001DCA60       aStelem_i
 0001:001DCA6C       aStelem_i1
 0001:001DCA78       aStelem_i2
 0001:001DCA84       aStelem_i4
 0001:001DCA90       aStelem_i8
 0001:001DCA9C       aStelem_r4
 0001:001DCAA8       aStelem_r8
 0001:001DCAB4       aStelem_ref
 0001:001DCAC0       aLdelem
 0001:001DCAC8       aStelem
 0001:001DCB3C       aRefanyval
 0001:001DCB48       aCkfinite
 0001:001DCB54       aMkrefany
 0001:001DCB60       aLdtoken
 0001:001DCB68       aConv_u2
 0001:001DCB70       aConv_u1
 0001:001DCB78       aConv_i
 0001:001DCB80       aConv_ovf_i
 0001:001DCB8C       aConv_ovf_u
 0001:001DCB98       aAdd_ovf
 0001:001DCBA0       aAdd_ovf_un
 0001:001DCBAC       aMul_ovf
 0001:001DCBB4       aMul_ovf_un
 0001:001DCBC0       aSub_ovf
 0001:001DCBC8       aSub_ovf_un
 0001:001DCBD4       aEndfinally
 0001:001DCBE0       aLeave
 0001:001DCBE8       aLeave_s
 0001:001DCBF0       aStind_i
 0001:001DCBF8       aConv_u
 0001:001DCC00       aPrefix7
 0001:001DCC08       aPrefix6
 0001:001DCC10       aPrefix5
 0001:001DCC18       aPrefix4
 0001:001DCC20       aPrefix3
 0001:001DCC28       aPrefix2
 0001:001DCC30       aPrefix1
 0001:001DCC38       aPrefixref
 0001:001DCC44       aArglist
 0001:001DCC4C       aCeq
 0001:001DCC50       aCgt
 0001:001DCC54       aCgt_un
 0001:001DCC5C       aClt
 0001:001DCC60       aClt_un
 0001:001DCC68       aLdftn
 0001:001DCC70       aLdvirtftn
 0001:001DCC7C       aLdarg
 0001:001DCC84       aLdarga
 0001:001DCC8C       aStarg
 0001:001DCC94       aLdloc
 0001:001DCC9C       aLdloca
 0001:001DCCA4       aStloc
 0001:001DCCAC       aLocalloc
 0001:001DCCB8       aEndfilter
 0001:001DCCC4       aUnaligned_
 0001:001DCCD0       aVolatile_
 0001:001DCCDC       aTail_
 0001:001DCCE4       aInitobj
 0001:001DCCEC       aConstrained_
 0001:001DCCFC       aCpblk
 0001:001DCD04       aInitblk
 0001:001DCD0C       aNo_
 0001:001DCD10       aRethrow
 0001:001DCD18       aSizeof
 0001:001DCD20       aRefanytype
 0001:001DCD2C       aReadonly_
 0001:001DCD38       aPea_usesuninit
 0001:001DCD54       aPea_prefetchtr
 0001:001DCD68       aPea_enable_bin
 0001:001DCD7C       aPea_enable_lsh
 0001:001DCD90       aPea_many_impor
 0001:001DCDA4       aPea_track_dire
 0001:001DCDC0       aPea_is_delphi
 0001:001DCDD0       aPea_uses_bound
 0001:001DCDEC       aPea_uses_int_o
 0001:001DCE04       aPea_uses_unusu
 0001:001DCE20       aPea_suspici_22
 0001:001DCE38       aPea_disable__0
 0001:001DCE54       aPea_suspici_23
 0001:001DCE70       aPea_16bitmachi
 0001:001DCE84       aPea_system_fil
 0001:001DCE94       aPea_run_only_o
 0001:001DCEB0       aPea_force_unpa
 0001:001DCEC4       aPea_extended_p
 0001:001DCEDC       aPea_small_data
 0001:001DCEFC       aPea_multiple_r
 0001:001DCF20       aPea_no_secti_0
 0001:001DCF38       aPea_many_secti
 0001:001DCF4C       aPea_suspici_24
 0001:001DCF68       aPea_bound_impo
 0001:001DCF88       aPea_delay_load
 0001:001DCFAC       aPea_import_via
 0001:001DCFC0       aPea_checks_teb
 0001:001DCFDC       aPea_disable_vm
 0001:001DCFF4       aPea_checks_t_0
 0001:001DD010       aPea_dynmem_u_3
 0001:001DD02C       aPea_dynmem_u_4
 0001:001DD04C       aPea_dynmem_u_6
 0001:001DD070       aPea_dynmem_u_2
 0001:001DD08C       aPea_dynmem_u_5
 0001:001DD0AC       aPea_dynmem_u_7
 0001:001DD0D0       aPea_dynmem_det
 0001:001DD0E8       aPea_dynmem_d_0
 0001:001DD104       aPea_dynmem_d_1
 0001:001DD124       aPea_dynmem_c_1
 0001:001DD148       aPea_dt_continu
 0001:001DD168       aPea_dt_conti_0
 0001:001DD190       aPea_loop_jmp_c
 0001:001DD1A4       aPea_dynmem_rea
 0001:001DD1C0       aPea_verbose_vd
 0001:001DD1D8       aPea_scan_inter
 0001:001DD1F0       aPea_arm_legacy
 0001:001DD200       aPea_arm_big_en
 0001:001DD214       aPea_arm_unpred
 0001:001DD22C       aPea_dynmem_c_0
 0001:001DD24C       aPea_dt_error_1
 0001:001DD26C       aPea_dt_error_t
 0001:001DD28C       aPea_dt_error_b
 0001:001DD2A4       aPea_uses_sysen
 0001:001DD2B8       aPea_dmg_machin
 0001:001DD2C8       aPea_dmg_pointe
 0001:001DD2E4       aPea_dmg_trunca
 0001:001DD2F8       aPea_dmg_specia
 0001:001DD310       aPea_dmg_reloca
 0001:001DD324       aPea_dmg_overla
 0001:001DD344       aPea_dmg_option
 0001:001DD35C       aPea_dmg_size_0
 0001:001DD374       aPea_dmg_imageb
 0001:001DD388       aPea_dmg_unsupp
 0001:001DD39C       aPea_dmg_import
 0001:001DD3AC       aPea_dmg_invali
 0001:001DD3C0       aPea_dmg_decomp
 0001:001DD3D4       aPea_dmg_entryp
 0001:001DD3E8       aPea_inv_size_1
 0001:001DD408       aPea_inv_size_0
 0001:001DD41C       aPea_inv_imageb
 0001:001DD430       aPea_inv_sectio
 0001:001DD44C       aPea_inv_fileal
 0001:001DD464       aPea_inv_dos_si
 0001:001DD47C       aPea_inv_e_lfan
 0001:001DD490       aPea_inv_nt_sig
 0001:001DD4A8       aPea_inv_argume
 0001:001DD4BC       aPea_inv_rva
 0001:001DD4C8       aPea_inv_export
 0001:001DD4D8       aPea_inv_data
 0001:001DD4E8       aPea_inv_filesi
 0001:001DD4FC       aPea_inv_nomemo
 0001:001DD510       aPea_inv_overla
 0001:001DD524       aPea_inv_read
 0001:001DD534       aPea_inv_write
 0001:001DD544       aPea_inv_file
 0001:001DD554       aPea_inv_decomp
 0001:001DD570       aPea_inv_notimp
 0001:001DD588       aPea_inv_unsupp
 0001:001DD5B4       aPea_dmg_reso_1
 0001:001DD5CC       aPea_dmg_reso_2
 0001:001DD5E4       aPea_uses_lfenc
 0001:001DD5F4       aPea_uses_mfenc
 0001:001DD604       aPea_uses_sfenc
 0001:001DD614       aPea_uses_clflu
 0001:001DD628       aPea_loop_lfenc
 0001:001DD638       aPea_loop_mfenc
 0001:001DD648       aPea_loop_sfenc
 0001:001DD658       aPea_loop_clflu
 0001:001DD66C       aPea_volatile_s
 0001:001DD680       aPea_force_expe
 0001:001DD6A0       aPea_force_dt
 0001:001DD6B0       aPea_dll_static
 0001:001DD6C4       aPea_zmist_chec
 0001:001DD6D4       aPea_sfx_checke
 0001:001DD6E4       aMpuseams
 0001:001DDAA0       aUl2uEYLm0
 0001:001DDDF0       aDatadrivenexte
 0001:001DDE0C       aMpscanappxonin
 0001:001DDE20       aNil
 0001:001DDE24       aProto
 0001:001DDE2C       aThread_2
 0001:001DDE34       aUpval
 0001:001DDE3C       aUserdata_0
 0001:001DDFA8       aBackdoor
 0001:001DDFB4       aTrojandownload
 0001:001DDFC8       aTrojandropper
 0001:001DDFD8       aSpammer
 0001:001DDFE0       aDdos
 0001:001DDFE8       aDos_0
 0001:001DDFEC       aJoke
 0001:001DDFF4       aPws
 0001:001DDFF8       aWorm
 0001:001DE000       aAdware
 0001:001DE008       aSpyware
 0001:001DE010       aDialer
 0001:001DE018       aFlooder
 0001:001DE020       aTrojan_0
 0001:001DE028       aVirus
 0001:001DE030       aConstructor_0
 0001:001DE03C       aNuker
 0001:001DE044       aSpoofer
 0001:001DE04C       aTool
 0001:001DE054       aAolpws
 0001:001DE05C       aTrojanspy
 0001:001DE068       aVirtool
 0001:001DE070       aExploit
 0001:001DE078       aTrojanclicker
 0001:001DE088       aHacktool
 0001:001DE094       aTrojanproxy
 0001:001DE0A0       aSniffer
 0001:001DE0A8       aTrojannotifier
 0001:001DE1F8       aWinbootdirCWin
 0001:001DE20E       aComspecCWindow
 0001:001DE22D       aPathCWindows
 0001:001DE23D       aCmdlineProg_co
 0001:001DF4B4       aPaquetbuilder
 0001:001DF4C4       aCWindowsTemp
 0001:001DF4E8       aCWindowsSyst_2
 0001:001DF514       aCWindows_2
 0001:001DF610       aE_ss
 0001:001DF618       aE_sp
 0001:001DF620       aE_ovno
 0001:001DF628       aE_oeminfo
 0001:001DF634       aE_oemid
 0001:001DF63C       aE_minalloc
 0001:001DF648       aE_maxalloc
 0001:001DF654       aE_magic
 0001:001DF65C       aE_lfarlc
 0001:001DF668       aE_lfanew
 0001:001DF674       aE_ip
 0001:001DF67C       aE_csum
 0001:001DF684       aE_cs
 0001:001DF68C       aE_crlc
 0001:001DF694       aE_cparhdr
 0001:001DF6A0       aE_cp
 0001:001DF6A8       aE_cblp
 0001:001DF6B0       aWin32versionva
 0001:001DF6C4       aTimedatestamp
 0001:001DF6D4       aSizeofuninitia
 0001:001DF6EC       aSizeofstackres
 0001:001DF700       aSizeofstackcom
 0001:001DF714       aSizeofoptional
 0001:001DF72C       aSizeofinitiali
 0001:001DF744       aSizeofimage
 0001:001DF750       aSizeofheaprese
 0001:001DF764       aSizeofheapcomm
 0001:001DF778       aSizeofheaders
 0001:001DF788       aSizeofcode
 0001:001DF794       aSignature_0
 0001:001DF7A0       aSectionalignme
 0001:001DF7B4       aPointertosymbo
 0001:001DF7CC       aNumberofsymbol
 0001:001DF7DC       aNumberofsectio
 0001:001DF7F0       aNumberofrvaand
 0001:001DF804       aMinorsubsystem
 0001:001DF81C       aMinoroperating
 0001:001DF838       aMinorlinkerver
 0001:001DF84C       aMinorimagevers
 0001:001DF860       aMajorsubsystem
 0001:001DF878       aMajoroperating
 0001:001DF894       aMajorlinkerver
 0001:001DF8A8       aMajorimagevers
 0001:001DF8BC       aMagic
 0001:001DF8C4       aMachine_0
 0001:001DF8CC       aLoaderflags
 0001:001DF8D8       aImagebase
 0001:001DF8E4       aFilealignment
 0001:001DF8F4       aDllcharacteris
 0001:001DF908       aChecksum_0
 0001:001DF914       aBaseofdata
 0001:001DF920       aBaseofcode
 0001:001DF92C       aAddressofentry
 0001:001DF940       aMew
 0001:001DF948       aEmbeddedExe
 0001:001DF958       aEmbeddedExe_0
 0001:001DF968       aBrrrrrrr
 0001:001DF994       aSfxcab_3042dbd
 0001:001DF9A8       aSfxcab_c7f925e
 0001:001DF9BC       aSfxcab_29ef55d
 0001:001DF9D0       aSfxcab_f8e1559
 0001:001DF9E4       aSfxcab_d53d2e4
 0001:001DF9F8       aSfxcab_7a5100d
 0001:001DFA0C       aSfxcab_bb7f387
 0001:001DFA20       aSfxcab_b1302d4
 0001:001DFA34       aSfxcab_ab7ba1b
 0001:001DFA48       aSfxcab_556fcda
 0001:001DFA5C       aSfxcab_cecf004
 0001:001DFA70       aSfxcab_8ead085
 0001:001DFA84       aSfxcab_bec89f1
 0001:001DFA98       aSfxcab_9401eb5
 0001:001DFAAC       aSfxcab_3bbdda3
 0001:001DFAC0       aCabsfxw_4a1ba5
 0001:001DFAD4       aCabsfxw_969881
 0001:001DFAE8       aCabsfxw_acc113
 0001:001DFAFC       aCabsfxw_15e93f
 0001:001DFB10       aCabsfxw_117cbc
 0001:001DFB24       aCabsfxw_fbbf74
 0001:001DFB38       aCabsfxw_a5a634
 0001:001DFB4C       aCabsfxw_8eed97
 0001:001DFB60       aDialogboxparam
 0001:001DFB70       aLockresource
 0001:001DFB80       aGetcurrentpr_0
 0001:001DFB94       aGetmodulehandl
 0001:001DFBA8       aGetversion
 0001:001DFBB4       aGetcommandline
 0001:001DFBC4       aX86_image
 0001:001DFBD0       aVerbose_vdll_r
 0001:001DFBE4       aUsesuninitiali
 0001:001DFBFC       aUses_unusual_b
 0001:001DFC14       aUses_single_st
 0001:001DFC2C       aUses_privinstr
 0001:001DFC3C       aUses_invalid_o
 0001:001DFC54       aUses_int_overf
 0001:001DFC68       aUses_div_by_ze
 0001:001DFC7C       aUses_breakpoin
 0001:001DFC90       aUses_bound_exc
 0001:001DFCA8       aUses_access_vi
 0001:001DFCC0       aTrack_direct_i
 0001:001DFCD8       aSystem_file
 0001:001DFCE4       aSuspicious_val
 0001:001DFCF8       aSuspicious_tim
 0001:001DFD10       aSuspicious_s_6
 0001:001DFD30       aSuspicious_sub
 0001:001DFD48       aSuspicious_s_5
 0001:001DFD60       aSuspicious_sta
 0001:001DFD7C       aSuspicious_s_4
 0001:001DFD98       aSuspicious_s_3
 0001:001DFDB0       aSuspicious_s_2
 0001:001DFDCC       aSuspicious_s_1
 0001:001DFDE4       aSuspicious_s_0
 0001:001DFE00       aSuspicious_sec
 0001:001DFE24       aSuspicious_res
 0001:001DFE48       aSuspicious_reb
 0001:001DFE5C       aSuspicious_os_
 0001:001DFE74       aSuspicious_num
 0001:001DFE90       aSuspicious_nth
 0001:001DFEA4       aSuspicious_lin
 0001:001DFEC0       aSuspicious_imp
 0001:001DFEE4       aSuspicious_i_1
 0001:001DFEFC       aSuspicious_i_0
 0001:001DFF18       aSuspicious_ima
 0001:001DFF30       aSuspicious_h_0
 0001:001DFF48       aSuspicious_hea
 0001:001DFF64       aSuspicious_fal
 0001:001DFF78       aSuspicious_dos
 0001:001DFF90       aSmall_data_dir
 0001:001DFFAC       aSkip_unimpleme
 0001:001DFFC4       aSelf_modifying
 0001:001DFFD8       aSecmissize
 0001:001DFFE4       aSecmisaligned
 0001:001DFFF4       aScan_internal_
 0001:001E0008       aRun_only_on_up
 0001:001E0020       aResource_only_
 0001:001E0034       aRequires9x
 0001:001E0040       aRequests_eleva
 0001:001E0054       aRelocs_strippe
 0001:001E0064       aRelocs_but_no_
 0001:001E0080       aPrefetchtricks
 0001:001E0090       aPatch_on_remov
 0001:001E00A4       aPatch_on_net
 0001:001E00B4       aPackersigmatch
 0001:001E00C8       aPacked_0
 0001:001E00D0       aOthermachine_i
 0001:001E00E4       aNx_bit_set
 0001:001E00F0       aNo_uidata
 0001:001E00FC       aNo_tls
 0001:001E0104       aNo_security
 0001:001E0110       aNo_sections
 0001:001E011C       aNo_section_tab
 0001:001E0130       aNo_resources
 0001:001E0140       aNo_relocs
 0001:001E014C       aNo_mipsgp
 0001:001E0158       aNo_loadconfig
 0001:001E0168       aNo_imports_dir
 0001:001E0178       aNo_imports
 0001:001E0184       aNo_idata
 0001:001E0190       aNo_iat
 0001:001E0198       aNo_fixups
 0001:001E01A4       aNo_exports
 0001:001E01B0       aNo_exception
 0001:001E01C0       aNo_ep
 0001:001E01C8       aNo_delayimport
 0001:001E01D8       aNo_decription
 0001:001E01E8       aNo_debug
 0001:001E01F4       aNo_data
 0001:001E01FC       aNo_comruntime
 0001:001E020C       aNo_code
 0001:001E0214       aNo_boundimport
 0001:001E0224       aMultiple_reloc
 0001:001E0244       aMsil_nativeima
 0001:001E0258       aMemory_patched
 0001:001E0268       aMany_sections
 0001:001E0278       aMany_imports
 0001:001E0288       aLoop_jmp_chain
 0001:001E0298       aLocals_symbols
 0001:001E02B0       aLine_numbers_s
 0001:001E02C8       aLastscn_writab
 0001:001E02DC       aLastscn_vfalig
 0001:001E02EC       aLastscn_valign
 0001:001E02FC       aLastscn_falign
 0001:001E030C       aLastscn_execut
 0001:001E0320       aLastscn_eqsize
 0001:001E0330       aKernel_scan
 0001:001E033C       aIsvbpcode
 0001:001E0348       aIsvbnative
 0001:001E0354       aIssuspicious
 0001:001E0364       aIsreported
 0001:001E0370       aIsmsil
 0001:001E0378       aIsgeneric
 0001:001E0384       aIsexe
 0001:001E038C       aIsdriver
 0001:001E0398       aIsdll
 0001:001E03A0       aIsdamaged
 0001:001E03AC       aIsappcontainer
 0001:001E03BC       aIs_process
 0001:001E03C8       aIs_delphi
 0001:001E03D4       aInvalid_ilt_en
 0001:001E03E8       aInv_write
 0001:001E03F4       aInv_virtualsiz
 0001:001E0404       aInv_virtualadd
 0001:001E0418       aInv_unsupporte
 0001:001E0440       aInv_sizeofopti
 0001:001E045C       aInv_sizeofimag
 0001:001E046C       aInv_sizeofhead
 0001:001E0480       aInv_sectionali
 0001:001E0498       aInv_rva
 0001:001E04A0       aInv_read
 0001:001E04AC       aInv_rawsize
 0001:001E04B8       aInv_rawoffset
 0001:001E04C8       aInv_overlappin
 0001:001E04D8       aInv_optional_m
 0001:001E04EC       aInv_nt_signatu
 0001:001E0500       aInv_notimpleme
 0001:001E0514       aInv_nomemory
 0001:001E0524       aInv_imagebase
 0001:001E0534       aInv_filesize
 0001:001E0544       aInv_filealignm
 0001:001E0558       aInv_file
 0001:001E0564       aInv_exports
 0001:001E0570       aInv_e_lfanew
 0001:001E0580       aInv_dos_signat
 0001:001E0594       aInv_decompress
 0001:001E05AC       aInv_data
 0001:001E05B8       aInv_arguments
 0001:001E05C8       aImport_via_tls
 0001:001E05D8       aIa64_image
 0001:001E05E4       aHstr_exhaustiv
 0001:001E05F4       aHeaderchecksum
 0001:001E0604       aHasstandardent
 0001:001E0618       aHasexports
 0001:001E0624       aHasboundimport
 0001:001E0634       aHasappendeddat
 0001:001E0644       aHas_msilresour
 0001:001E0658       aHas_many_resou
 0001:001E066C       aHas_delay_load
 0001:001E0684       aHas_checksum
 0001:001E0694       aHandle_large_v
 0001:001E06A4       aGenpacked
 0001:001E06B0       aForce_unpackin
 0001:001E06C0       aForce_expensiv
 0001:001E06DC       aForce_dt
 0001:001E06E8       aFirstsectwrita
 0001:001E06FC       aExtended_pesta
 0001:001E0710       aExecutes_fro_1
 0001:001E0728       aExecutes_fro_0
 0001:001E0744       aExecutes_from_
 0001:001E0764       aExecutble_imag
 0001:001E0774       aExecutable_ima
 0001:001E0788       aEpsec_not_exec
 0001:001E07A0       aEpscn_writable
 0001:001E07B0       aEpscn_vfalign
 0001:001E07C0       aEpscn_valign
 0001:001E07D0       aEpscn_islast
 0001:001E07E0       aEpscn_falign
 0001:001E07F0       aEpscn_eqsizes
 0001:001E0800       aEpoutofimage
 0001:001E0810       aEpiniat
 0001:001E0818       aEpinfirstsect
 0001:001E0828       aEpcallnext
 0001:001E0834       aEpatstartlasts
 0001:001E0848       aEpatstartentry
 0001:001E085C       aEpatscnstart
 0001:001E086C       aEntrypoint_i_0
 0001:001E0888       aEntrypoint_in_
 0001:001E08A0       aEntrybyte90
 0001:001E08AC       aEntrybyte60
 0001:001E08B8       aEntrybyte55
 0001:001E08C4       aEnable_vmm_gro
 0001:001E08D4       aEnable_lshash
 0001:001E08E4       aEnable_binlib
 0001:001E08F4       aDynmem_uses_un
 0001:001E0914       aDynmem_uses_si
 0001:001E0930       aDynmem_uses_pr
 0001:001E0948       aDynmem_uses__0
 0001:001E0964       aDynmem_uses_in
 0001:001E0980       aDynmem_uses_di
 0001:001E0998       aDynmem_uses_br
 0001:001E09B0       aDynmem_uses_bo
 0001:001E09D0       aDynmem_uses_ac
 0001:001E09F0       aDynmem_self_mo
 0001:001E0A0C       aDynmem_reads_v
 0001:001E0A24       aDynmem_kernel_
 0001:001E0A38       aDynmem_detec_1
 0001:001E0A50       aDynmem_detec_0
 0001:001E0A64       aDynmem_detects
 0001:001E0A80       aDynmem_check_2
 0001:001E0A9C       aDynmem_check_1
 0001:001E0AB8       aDynmem_check_0
 0001:001E0AD8       aDynmem_checks_
 0001:001E0AF8       aDynmem_apicall
 0001:001E0B08       aDt_error_vmm_p
 0001:001E0B20       aDt_error_too_0
 0001:001E0B3C       aDt_error_too_m
 0001:001E0B58       aDt_error_not_e
 0001:001E0B74       aDt_error_loop_
 0001:001E0B90       aDt_error_inval
 0001:001E0BA8       aDt_error_heu_0
 0001:001E0BC4       aDt_error_heur_
 0001:001E0BDC       aDt_error_faile
 0001:001E0BFC       aDt_error_bb_li
 0001:001E0C10       aDt_continue__0
 0001:001E0C34       aDt_continue_af
 0001:001E0C50       aDropped
 0001:001E0C58       aDmg_virtualsiz
 0001:001E0C68       aDmg_virtualadd
 0001:001E0C7C       aDmg_unsupporte
 0001:001E0C8C       aDmg_truncated
 0001:001E0C9C       aDmg_special_se
 0001:001E0CB0       aDmg_sizeofrawd
 0001:001E0CC4       aDmg_sizeofhead
 0001:001E0CD8       aDmg_sectionali
 0001:001E0CF0       aDmg_resource_u
 0001:001E0D08       aDmg_resource_o
 0001:001E0D1C       aDmg_resource_n
 0001:001E0D30       aDmg_resource_l
 0001:001E0D44       aDmg_relocation
 0001:001E0D54       aDmg_pointertor
 0001:001E0D6C       aDmg_overlappin
 0001:001E0D88       aDmg_optional_m
 0001:001E0D9C       aDmg_notcontigu
 0001:001E0DB0       aDmg_not_execut
 0001:001E0DCC       aDmg_machine
 0001:001E0DD8       aDmg_invaliddat
 0001:001E0DE8       aDmg_imports
 0001:001E0DF4       aDmg_imagesize
 0001:001E0E04       aDmg_imagebase
 0001:001E0E14       aDmg_filealignm
 0001:001E0E28       aDmg_entrypoint
 0001:001E0E38       aDmg_decompress
 0001:001E0E48       aDisable_vmprot
 0001:001E0E5C       aDisable_thread
 0001:001E0E7C       aDisable_static
 0001:001E0E98       aDisable_seh_li
 0001:001E0EAC       aDisable_microc
 0001:001E0EC0       aDisable_io_red
 0001:001E0ED8       aDisable_droppe
 0001:001E0EF0       aDisable_drop_m
 0001:001E0F08       aDisable_apical
 0001:001E0F20       aDirty_wx_branc
 0001:001E0F30       aDetects_vmware
 0001:001E0F40       aDetects_vm
 0001:001E0F4C       aDetects_virtua
 0001:001E0F60       aDelay_load_imp
 0001:001E0F80       aDeep_apicall_l
 0001:001E0F94       aDeep_analysis
 0001:001E0FA4       aDebug_stripped
 0001:001E0FB4       aCode_on_stack
 0001:001E0FC4       aChecks_teb_l_0
 0001:001E0FDC       aChecks_teb_las
 0001:001E0FF4       aChecks_process
 0001:001E1008       aChecks_ntgloba
 0001:001E101C       aChecks_if_de_0
 0001:001E103C       aChecks_if_debu
 0001:001E105C       aCalls_unimplem
 0001:001E1074       aByte_reverse_0
 0001:001E1088       aByte_reversed_
 0001:001E109C       aBound_imports_
 0001:001E10B8       aAslr_bit_set
 0001:001E10C8       aArm_image
 0001:001E10D4       aAmd64_image
 0001:001E10E0       aAggressiveimpo
 0001:001E10F4       aAggressive_tri
 0001:001E1108       a_32bitmachine
 0001:001E1118       a_16bitmachine
 0001:001E1128       aArm_unpredicta
 0001:001E113C       aArm_legacy
 0001:001E1148       aArm_big_endian
 0001:001E1158       aSeshutdownpriv
 0001:001E1180       aDefender_en_14
 0001:001E12A9       aBcdefghijklm_1
 0001:001E138C       aIiin
 0001:001E6B60       aGSasGias
 0001:001E6C98       aGgg_1
 0001:001E6CA0       aGg
 0001:001E6CA8       aGg_0
 0001:001E6CB0       aG_4
 0001:001E6CB4       aG_5
 0001:001E6CB8       aG_6
 0001:001E6D88       aOoP
 0001:001E6F5C       aOo
 0001:001E8F9C       aEmoinfmijklgh
 0001:001E9064       aOiil
 0001:001E908C       aIi_0
 0001:001E9092       aI_7
 0001:001E90CC       aIiiii
 0001:001E90D8       aI_8
 0001:001E90DC       aIii_0
 0001:001E90E4       aIii_1
 0001:001E90EC       aI_9
 0001:001E95C0       aD_accB_a
 0001:001EA3E0       aDccMlCc?
 0001:001EA3F8       a9Dd
 0001:001EAA00       aDccmCc
 0001:001EAA40       a___2
 0001:001EB0FC       aCC
 0001:001EB514       aDd
 0001:001EB51A       aD_4
 0001:001EB51C       aDcCd
 0001:001EBC38       aDcc
 0001:001EBC40       aCdd
 0001:001EC130       aCc
 0001:001EC136       aC_15
 0001:001EC138       aD_5
 0001:001EC13C       aD_6
 0001:001EC2C8       aCccdd
 0001:001EC2E0       a0_0
 0001:001EC3D8       aCd
 0001:001EC4C8       aCd_0
 0001:001EC700       aAa_0
 0001:001ECAA0       aAaa
 0001:001FDAE1       a123456789abc_1
 0001:001FFBB0       aOp_eqv
 0001:001FFBB8       aOp_imp
 0001:001FFBC0       aOp_or
 0001:001FFBC8       aOp_xor
 0001:001FFBD0       aOp_lt
 0001:001FFBD8       aOp_ge
 0001:001FFBE0       aOp_add
 0001:001FFBE8       aOp_gt
 0001:001FFBF0       aOp_eq
 0001:001FFBF8       aOp_and
 0001:001FFC00       aOp_le
 0001:001FFC08       aOp_ne
 0001:001FFC10       aOp_concat
 0001:001FFC1C       aOp_div
 0001:001FFC24       aOp_pwr
 0001:001FFC2C       aOp_like
 0001:001FFC34       aOp_mod
 0001:001FFC3C       aOp_sub
 0001:001FFC44       aOp_mul
 0001:001FFC4C       aOp_idv
 0001:001FFC54       aOp_fnint
 0001:001FFC60       aOp_fnfix
 0001:001FFC6C       aOp_fnlen
 0001:001FFC78       aOp_fnsgn
 0001:001FFC84       aOp_not
 0001:001FFC8C       aOp_is
 0001:001FFC94       aOp_fnabs
 0001:001FFCA0       aOp_umi
 0001:001FFCA8       aOp_memld
 0001:001FFCB4       aOp_ld
 0001:001FFCBC       aOp_indexld
 0001:001FFCC8       aOp_dictld
 0001:001FFCD4       aOp_paren
 0001:001FFCE0       aOp_fnlenb
 0001:001FFCEC       aOp_ldlhs
 0001:001FFCF8       aOp_sharp
 0001:001FFD04       aOp_dictst
 0001:001FFD10       aOp_memst
 0001:001FFD1C       aOp_argsst
 0001:001FFD28       aOp_indexst
 0001:001FFD34       aOp_argsmemld
 0001:001FFD44       aOp_argsld
 0001:001FFD50       aOp_st
 0001:001FFD58       aOp_argsdictld
 0001:001FFD68       aOp_indexset
 0001:001FFD74       aOp_dictset
 0001:001FFD80       aOp_argsmemset
 0001:001FFD90       aOp_argsset
 0001:001FFD9C       aOp_argsdictst
 0001:001FFDAC       aOp_argsmemst
 0001:001FFDBC       aOp_memset
 0001:001FFDC8       aOp_set
 0001:001FFDD0       aOp_memstwith
 0001:001FFDE0       aOp_argsdictldw
 0001:001FFDF4       aOp_argsmemstwi
 0001:001FFE08       aOp_dictstwith
 0001:001FFE18       aOp_memldwith
 0001:001FFE28       aOp_argsdictset
 0001:001FFE38       aOp_argsmemldwi
 0001:001FFE4C       aOp_dictldwith
 0001:001FFE5C       aOp_argscall
 0001:001FFE68       aOp_argsdicts_0
 0001:001FFE7C       aOp_argsmemca_0
 0001:001FFE90       aOp_argsmemcall
 0001:001FFEA0       aOp_memsetwith
 0001:001FFEB0       aOp_argsdictstw
 0001:001FFEC4       aOp_argsmemsetw
 0001:001FFED8       aOp_dictsetwith
 0001:001FFEE8       aOp_caseto
 0001:001FFEF4       aOp_case
 0001:001FFEFC       aOp_caselt
 0001:001FFF08       aOp_casegt
 0001:001FFF14       aOp_bos
 0001:001FFF1C       aOp_argsarray
 0001:001FFF2C       aOp_bol
 0001:001FFF34       aOp_bosimplicit
 0001:001FFF44       aOp_casedone
 0001:001FFF50       aOp_caseelse
 0001:001FFF5C       aOp_close
 0001:001FFF68       aOp_circle
 0001:001FFF74       aOp_casele
 0001:001FFF80       aOp_casege
 0001:001FFF8C       aOp_caseeq
 0001:001FFF98       aOp_casene
 0001:001FFFA4       aOp_deftype
 0001:001FFFB0       aOp_debug
 0001:001FFFBC       aOp_dimimplicit
 0001:001FFFCC       aOp_dim
 0001:001FFFD4       aOp_coerce
 0001:001FFFE0       aOp_closeall
 0001:001FFFEC       aOp_context
 0001:001FFFF8       aOp_coercevar
 0001:00200008       aOp_elseblock
 0001:00200018       aOp_else
 0001:00200020       aOp_elseiftypeb
 0001:00200034       aOp_elseifblock
 0001:00200044       aOp_doevents
 0001:00200050       aOp_do
 0001:00200058       aOp_dowhile
 0001:00200064       aOp_dountil
 0001:00200070       aOp_endimmediat
 0001:00200080       aOp_endifblock
 0001:00200090       aOp_endselect
 0001:002000A0       aOp_endprop
 0001:002000AC       aOp_endcontext
 0001:002000BC       aOp_end
 0001:002000C4       aOp_endif
 0001:002000D0       aOp_endfunc
 0001:002000DC       aOp_exitdo
 0001:002000E8       aOp_error
 0001:002000F4       aOp_exitfunc
 0001:00200100       aOp_exitfor
 0001:0020010C       aOp_endtype
 0001:00200118       aOp_endsub
 0001:00200124       aOp_erase
 0001:00200130       aOp_endwith
 0001:0020013C       aOp_empty1
 0001:00200148       aOp_empty0
 0001:00200154       aOp_fnformat
 0001:00200160       aOp_fnerror
 0001:0020016C       aOp_exitsub
 0001:00200178       aOp_exitprop
 0001:00200184       aOp_fndir
 0001:00200190       aOp_fncurdir
 0001:0020019C       aOp_fninstrb3
 0001:002001AC       aOp_fninstrb
 0001:002001B8       aOp_fnlbound
 0001:002001C4       aOp_fninstrb4
 0001:002001D4       aOp_fninstr
 0001:002001E0       aOp_fnfreefile
 0001:002001F0       aOp_fninstr4
 0001:002001FC       aOp_fninstr3
 0001:00200208       aOp_fnstringstr
 0001:00200218       aOp_fnstringvar
 0001:00200228       aOp_for
 0001:00200230       aOp_fnubound
 0001:0020023C       aOp_fnmidb
 0001:00200248       aOp_fnmid
 0001:00200254       aOp_fnstrcomp3
 0001:00200264       aOp_fnstrcomp
 0001:00200274       aOp_getrec
 0001:00200280       aOp_funcdefnsav
 0001:00200290       aOp_goto
 0001:00200298       aOp_gosub
 0001:002002A4       aOp_foreachas
 0001:002002B4       aOp_foreach
 0001:002002C0       aOp_funcdefn
 0001:002002CC       aOp_forstep
 0001:002002D8       aOp_inputdone
 0001:002002E8       aOp_input
 0001:002002F4       aOp_label
 0001:00200300       aOp_inputitem
 0001:00200311       aP_ifblock
 0001:0020031C       aOp_if
 0001:00200324       aOp_iftypeblock
 0001:00200334       aOp_typeof
 0001:00200340       aOp_litcy
 0001:0020034C       aOp_linenum
 0001:00200358       aOp_litdefault
 0001:00200368       aOp_litdate
 0001:00200374       aOp_line
 0001:0020037C       aOp_let
 0001:00200384       aOp_lineinput
 0001:00200394       aOp_linecont
 0001:002003A0       aOp_litoi2
 0001:002003AC       aOp_litnothing
 0001:002003BC       aOp_litr4
 0001:002003C8       aOp_litoi4
 0001:002003D4       aOp_litdi4
 0001:002003E0       aOp_litdi2
 0001:002003EC       aOp_lithi4
 0001:002003F8       aOp_lithi2
 0001:00200404       aOp_loop
 0001:0020040C       aOp_lock
 0001:00200414       aOp_loopwhile
 0001:00200424       aOp_loopuntil
 0001:00200434       aOp_litsmalli2
 0001:00200444       aOp_litr8
 0001:00200450       aOp_litvarspeci
 0001:00200464       aOp_litstr
 0001:00200470       aOp_memredimas
 0001:00200480       aOp_memredimwit
 0001:00200490       aOp_mid
 0001:00200498       aOp_memredimasw
 0001:002004AC       aOp_me
 0001:002004B4       aOp_lset
 0001:002004BC       aOp_memredim
 0001:002004C8       aOp_meimplicit
 0001:002004D8       aOp_onerror
 0001:002004E4       aOp_nextvar
 0001:002004F0       aOp_ongoto
 0001:002004FC       aOp_ongosub
 0001:00200508       aOp_name
 0001:00200510       aOp_midb
 0001:00200518       aOp_next
 0001:00200520       aOp_new
 0001:00200528       aOp_paramnamed
 0001:00200538       aOp_paramomitte
 0001:00200548       aOp_printcomma
 0001:00200558       aOp_printchan
 0001:00200568       aOp_option
 0001:00200574       aOp_open
 0001:0020057C       aOp_parambyval
 0001:0020058C       aOp_optionbase
 0001:0020059C       aOp_printobj
 0001:002005A8       aOp_printnl
 0001:002005B4       aOp_printspc
 0001:002005C0       aOp_printsemi
 0001:002005D0       aOp_printitemco
 0001:002005E4       aOp_printeos
 0001:002005F0       aOp_printitemse
 0001:00200604       aOp_printitemnl
 0001:00200614       aOp_redim
 0001:00200620       aOp_quoterem
 0001:0020062C       aOp_reparse
 0001:00200638       aOp_redimas
 0001:00200644       aOp_printtabcom
 0001:00200658       aOp_printtab
 0001:00200664       aOp_putrec
 0001:00200670       aOp_pset
 0001:00200678       aOp_seek
 0001:00200680       aOp_scale
 0001:0020068C       aOp_selectis
 0001:00200698       aOp_selectcase
 0001:002006A8       aOp_resume
 0001:002006B4       aOp_rem
 0001:002006BC       aOp_rset
 0001:002006C4       aOp_return
 0001:002006D0       aOp_unlock
 0001:002006DC       aOp_type
 0001:002006E4       aOp_wend
 0001:002006EC       aOp_vardefn
 0001:002006F8       aOp_setstmt
 0001:00200704       aOp_selecttype
 0001:00200714       aOp_stop
 0001:0020071C       aOp_stack
 0001:00200728       aOp_lbif
 0001:00200730       aOp_lbconst
 0001:0020073C       aOp_lbelseif
 0001:00200748       aOp_lbelse
 0001:00200754       aOp_with
 0001:0020075C       aOp_while
 0001:00200768       aOp_constfuncex
 0001:0020077C       aOp_writechan
 0001:0020078C       aOp_startwithex
 0001:002007A0       aOp_newredim
 0001:002007AC       aOp_endenum
 0001:002007B8       aOp_setorst
 0001:002007C4       aOp_lbmark
 0001:002007D0       aOp_lbendif
 0001:002007DC       aOp_startforvar
 0001:002007F0       aOp_endforvaria
 0001:00200804       aOp_argsmemrais
 0001:0020081C       aOp_raiseevent
 0001:0020082C       aOp_implements
 0001:0020083C       aOp_argsmemra_0
 0001:00200858       aOp_ldaddressof
 0001:00200868       aOp_assert
 0001:00200874       aOp_eventdecl
 0001:00200884       aOp_memaddresso
 0001:00200894       a_vba_project_0
 0001:002008C8       aVba_projectVba
 0001:002008F8       aApcTheVbaProje
 0001:00200950       aCvba2b400008_f
 0001:00200B58       aRar290
 0001:00200B60       aRar300
 0001:00200B68       aRar390
 0001:00200B70       aRar400
 0001:00200B78       aRarx64_420
 0001:00200B84       aZipinfo
 0001:00200B8C       aZipinfo_390
 0001:00200CA4       aARrrrruraRrrrr
 0001:00201F88       aProductversi_1
 0001:00201F98       aInternalname_0
 0001:00201FA8       aFiledescript_0
 0001:00201FB8       aFileversion_0
 0001:00201FC4       aCompanyname_0
 0001:00201FD0       aOriginalfile_0
 0001:00201FE4       aProductname
 0001:00205050       aDefender_en_22
 0001:00205074       aDefender_en_23
 0001:00205098       aDefender_en_24
 0001:002050C0       aO_7
 0001:002050C4       aOu
 0001:002050CC       aCn
 0001:002050D4       aEmail
 0001:002050E0       aC_4
 0001:00207050       aProgram
 0001:00207058       aSoftwarebundle
 0001:00207068       aRemoteaccess
 0001:00207078       aBrowsermodifie
 0001:00207088       aSettingsmodifi
 0001:0020709C       aMonitoringtool
 0001:002070AC       aSpp
 0001:002070B0       aRogue
 0001:002070B8       aMisleading
 0001:002070C4       aRansom
 0001:002070CC       aMisleadingad
 0001:002070DC       aPua_0
 0001:002070E0       aSupportscam
 0001:002070EC       aEus
 0001:002070F0       aHipsrule
 0001:00207AA0       a__substg1_0_10
 0001:00207ACC       aOle10native_0
 0001:00207AE4       a__substg1_0_00
 0001:00207B10       a__substg1_0_37
 0001:00207B3C       a__substg1_0__1
 0001:00207B68       a__substg1_0__0
 0001:00207B99       a123456789abc_2
 0001:00208708       aMus_efx1ilzhY7
 0001:00208774       aLoytcVA4D?wUia
 0001:0020941C       a4543
 0001:002094DC       aHcefgd
 0001:00209694       aHhh
 0001:0020969C       aHhh_0
 0001:002096BC       aHhhh
 0001:00209BBC       aPostalcode_0
 0001:00209BD4       aSn
 0001:00209BDC       aBc
 0001:00209BE4       aUid
 0001:00209BEC       aS_18
 0001:00209BF0       aStreet
 0001:00209C00       aDc
 0001:0020A309       a_0123456789?_1
 0001:0020A3E8       aSha2_0
 0001:0020A3F0       aTelemetryonl_1
 0001:0020A400       aOriginalsha1
 0001:0020A660       ___safe_se_handler_table
 0001:0020F590       aNgine_core_eng
 0001:0020F5A6       aProductguid_2
 0001:0020F5B4       aNgineversion
 0001:0020F5C4       aGversion
 0001:0020F5D0       aPversion
 0001:0020F5DC       aBeta_0
 0001:0020F5E1       aIsmanaged_2
 0001:0020F5EC       aIspassivemod_3
 0001:0020F5FB       aIssxspassive_3
 0001:0020F60D       aShouldhashids
 0001:0020F61C       aCaller_0
 0001:0020F630       aSpynetreportin
 0001:0020F645       aAdvancesamples
 0001:0020F65E       aIsbafsdisabled
 0001:0020F66E       aPusenabled
 0001:0020F67A       aHipsrulecount
 0001:0020F689       aFolderguardsta
 0001:0020F6AC       aNgine_core_e_0
 0001:0020F6C2       aProductguid_3
 0001:0020F6D0       aNgineversion_0
 0001:0020F6E0       aGversion_0
 0001:0020F6EC       aPversion_0
 0001:0020F6F8       aBeta_1
 0001:0020F6FD       aIsmanaged_3
 0001:0020F708       aIspassivemod_4
 0001:0020F717       aIssxspassive_4
 0001:0020F729       aShouldhashid_0
 0001:0020F738       aCaller_1
 0001:0020F75C       aNgine_hips_fil
 0001:0020F779       aProductguid_4
 0001:0020F788       aGineversion
 0001:0020F795       aSigversion_2
 0001:0020F7A1       aAppversion_3
 0001:0020F7AD       aIsbeta_3
 0001:0020F7B4       aIsmanaged_4
 0001:0020F7BF       aIspassivemod_5
 0001:0020F7CE       aIssxspassive_5
 0001:0020F7E0       aShouldhashid_1
 0001:0020F7EF       aFailurepoint
 0001:0020F800       aItical
 0001:0020F807       aFailurecode
 0001:0020F824       aEngine_hips_in
 0001:0020F83F       aProductguid_5
 0001:0020F84C       aEngineversio_5
 0001:0020F85C       aIgversion
 0001:0020F868       aPpversion
 0001:0020F874       aSbeta
 0001:0020F87A       aIsmanaged_5
 0001:0020F885       aIspassivemod_6
 0001:0020F894       aIssxspassive_6
 0001:0020F8A6       aShouldhashid_2
 0001:0020F8B5       aRulelist
 0001:0020F8D0       aNgine_cfa_upda
 0001:0020F8ED       aProductguid_6
 0001:0020F8FC       aGineversion_0
 0001:0020F909       aSigversion_3
 0001:0020F915       aAppversion_4
 0001:0020F921       aIsbeta_4
 0001:0020F928       aIsmanaged_6
 0001:0020F933       aIspassivemod_7
 0001:0020F942       aIssxspassive_7
 0001:0020F954       aShouldhashid_3
 0001:0020F963       aHresult_3
 0001:0020F97C       aEngine_cfa_def
 0001:0020F99B       aProductguid_7
 0001:0020F9A8       aEngineversio_6
 0001:0020F9B8       aIgversion_0
 0001:0020F9C4       aPpversion_0
 0001:0020F9D0       aSbeta_0
 0001:0020F9D6       aIsmanaged_7
 0001:0020F9E1       aIspassivemod_8
 0001:0020F9F0       aIssxspassive_8
 0001:0020FA02       aShouldhashid_4
 0001:0020FA11       aUsercount
 0001:0020FA1C       aFoldercount
 0001:0020FA29       aElapsedtime
 0001:0020FAAC       aIssxspassive_9
 0001:0020FABE       aShouldhashid_5
 0001:0020FACD       aState_4
 0001:0020FAE4       aEngine_attribp
 0001:0020FB03       aCount_0
 0001:0020FB09       aIaaaaqhresult
 0001:0020FB74       aIssxspassiv_10
 0001:0020FB86       aShouldhashid_6
 0001:0020FC02       aEngine_det_ins
 0001:0020FC17       aProductguid_8
 0001:0020FC24       aEngineversio_7
 0001:0020FC34       aIgversion_1
 0001:0020FC40       aPpversion_1
 0001:0020FC4C       aSbeta_1
 0001:0020FC52       aIsmanaged_8
 0001:0020FC5D       aIspassivemod_9
 0001:0020FC6C       aIssxspassiv_11
 0001:0020FC7E       aShouldhashid_7
 0001:0020FC8D       aSigseq_3
 0001:0020FC98       aTection
 0001:0020FCA0       aFilename_3
 0001:0020FCAC       aAthid
 0001:0020FCC2       aEngine_perf_rt
 0001:0020FCD6       aProductguid_9
 0001:0020FCE4       aNgineversion_1
 0001:0020FCF4       aGversion_1
 0001:0020FD00       aPversion_1
 0001:0020FD0C       aBeta_2
 0001:0020FD11       aIsmanaged_9
 0001:0020FD1C       aIspassivemo_10
 0001:0020FD2B       aIssxspassiv_12
 0001:0020FD3D       aShouldhashid_8
 0001:0020FD4C       aProcessfilen_2
 0001:0020FD60       aOcesspathid
 0001:0020FDDC       aEfenderfilesca
 0001:0020FDF1       aProcessfilen_3
 0001:0020FE04       aOcesspathid_0
 0001:0020FE56       aEngine_scan_da
 0001:0020FE6D       aCount_1
 0001:0020FE73       aIaaaaqpluginna
 0001:0020FE85       aProductguid_10
 0001:0020FE94       aGineversion_1
 0001:0020FEA1       aSigversion_4
 0001:0020FEAD       aAppversion_5
 0001:0020FEB9       aIsbeta_5
 0001:0020FEC0       aIsmanaged_10
 0001:0020FECB       aIspassivemo_11
 0001:0020FEDA       aIssxspassiv_13
 0001:0020FEEC       aShouldhashid_9
 0001:0020FF0C       aNgine_trustedi
 0001:0020FF2E       aCount_2
 0001:0020FF34       aIaaaaqpubsigse
 0001:0020FF44       aSucceeded
 0001:0020FF4F       aProductguid_11
 0001:0020FF5D       aEngineversio_8
 0001:0020FF6C       aSigversion_5
 0001:0020FF78       aAppversion_6
 0001:0020FF84       aIsbeta_6
 0001:0020FF8B       aIsmanaged_11
 0001:0020FF96       aIspassivemo_12
 0001:0020FFA5       aIssxspassiv_14
 0001:0020FFB7       aShouldhashi_10
 0001:0020FFD6       aEngine_perf_ex
 0001:0020FFF0       aProductguid_12
 0001:0020FFFD       aEngineversio_9
 0001:0021000C       aSigversion_6
 0001:00210018       aAppversion_7
 0001:00210024       aIsbeta_7
 0001:0021002B       aIsmanaged_12
 0001:00210036       aIspassivemo_13
 0001:00210045       aIssxspassiv_15
 0001:00210057       aShouldhashi_11
 0001:00210066       aSha1_5
 0001:002100C0       aNgine_perf_exp
 0001:002100DE       aProductguid_13
 0001:002100EC       aNgineversion_2
 0001:002100FC       aGversion_2
 0001:00210108       aPversion_2
 0001:00210114       aBeta_3
 0001:00210119       aIsmanaged_13
 0001:00210124       aIspassivemo_14
 0001:00210133       aIssxspassiv_16
 0001:00210145       aShouldhashi_12
 0001:00210154       aSha1_6
 0001:0021015C       aArtialcrc1
 0001:00210168       aPartialcrc2_3
 0001:002101AD       aEngine_core_si
 0001:002101C0       aProductguid_14
 0001:002101CD       aEngineversi_10
 0001:002101DC       aSigversion_7
 0001:002101E8       aAppversion_8
 0001:002101F4       aIsbeta_8
 0001:002101FB       aIsmanaged_14
 0001:00210206       aIspassivemo_15
 0001:00210215       aIssxspassiv_17
 0001:00210227       aShouldhashi_13
 0001:00210236       aFilename_4
 0001:002102D4       aIssxspassiv_18
 0001:002102E6       aShouldhashi_14
 0001:002102F5       aObjectCount
 0001:00210303       aFileObjectCoun
 0001:00210316       aPeObjectCount
 0001:00210327       aScanCount
 0001:00210333       aPeScanCount
 0001:00210352       aEngine_det_aut
 0001:0021036E       aCount_3
 0001:00210374       aIaaaaqsucceede
 0001:00210384       aReportedresour
 0001:00210397       aProductguid_15
 0001:002103A5       aEngineversi_11
 0001:002103B4       aSigversion_8
 0001:002103C0       aAppversion_9
 0001:002103CC       aIsbeta_9
 0001:002103D3       aIsmanaged_15
 0001:002103DE       aIspassivemo_16
 0001:002103ED       aIssxspassiv_19
 0001:002103FF       aShouldhashi_15
 0001:0021041E       aEngine_bm_noti
 0001:0021043C       aCount_4
 0001:00210442       aIaaaaqdomain
 0001:0021044F       aNotificationty
 0001:00210461       aHresult_4
 0001:0021046C       aRoductguid
 0001:00210478       aEngineversi_12
 0001:00210488       aIgversion_2
 0001:00210494       aPpversion_2
 0001:002104A0       aSbeta_2
 0001:002104A6       aIsmanaged_16
 0001:002104B1       aIspassivemo_17
 0001:002104C0       aIssxspassiv_20
 0001:002104D2       aShouldhashi_16
 0001:002104F1       aEngine_bm_imag
 0001:00210517       aProductguid_16
 0001:00210524       aEngineversi_13
 0001:00210534       aIgversion_3
 0001:00210540       aPpversion_3
 0001:0021054C       aSbeta_3
 0001:00210552       aIsmanaged_17
 0001:0021055D       aIspassivemo_18
 0001:0021056C       aIssxspassiv_21
 0001:0021057E       aShouldhashi_17
 0001:0021058D       aNobmcalls
 0001:00210598       aNobmmisses
 0001:002105A4       aUpdatecalls
 0001:002105B1       aUpdatemisses
 0001:002105BF       aUpdateprocmiss
 0001:002105E1       aEngine_bm_shut
 0001:002105F9       aProductguid_17
 0001:00210608       aGineversion_2
 0001:00210615       aSigversion_9
 0001:00210621       aAppversion_10
 0001:0021062D       aIsbeta_10
 0001:00210634       aIsmanaged_18
 0001:0021063F       aIspassivemo_19
 0001:0021064E       aIssxspassiv_22
 0001:00210660       aShouldhashi_18
 0001:0021066F       aBmstarttime_2
 0001:0021067C       aTotalnotificat
 0001:00210696       aTotalnotific_0
 0001:002106B1       aTotalnotific_1
 0001:002106CE       aMaxconcurrentn
 0001:002106EA       aMaxdetectionli
 0001:00210700       aMaxprocessqueu
 0001:00210715       aMaxconcurrentl
 0001:00210730       aTotalnotific_2
 0001:0021074E       aMaxnotificatio
 0001:00210769       aAveragenotific
 0001:00210798       aEngine_bm_etwc
 0001:002107B4       aProductguid_18
 0001:002107C1       aEngineversi_14
 0001:002107D0       aSigversion_10
 0001:002107DC       aAppversion_11
 0001:002107E8       aIsbeta_11
 0001:002107EF       aIsmanaged_19
 0001:002107FA       aIspassivemo_20
 0001:00210809       aIssxspassiv_23
 0001:0021081B       aShouldhashi_19
 0001:0021082A       aHresult_5
 0001:00210844       aNgine_bm_doppl
 0001:0021085B       aProductguid_19
 0001:00210868       aEngineversi_15
 0001:00210878       aIgversion_4
 0001:00210884       aPpversion_4
 0001:00210890       aSbeta_4
 0001:00210896       aIsmanaged_20
 0001:002108A1       aIspassivemo_21
 0001:002108B0       aIssxspassiv_24
 0001:002108C2       aShouldhashi_20
 0001:002108E1       aEngine_bm_im_0
 0001:00210906       aEventcount
 0001:00210911       aIaaaaqimagenam
 0001:00210924       aLeid
 0001:00210931       aInherited
 0001:0021093B       aRuleaction
 0001:00210947       aProductguid_20
 0001:00210955       aEngineversi_16
 0001:00210964       aSigversion_11
 0001:00210970       aAppversion_12
 0001:0021097C       aIsbeta_12
 0001:00210983       aIsmanaged_21
 0001:0021098E       aIspassivemo_22
 0001:0021099D       aIssxspassiv_25
 0001:002109AF       aShouldhashi_21
 0001:002109CE       aEngine_process
 0001:002109F8       aCount_5
 0001:002109FE       aIaaaaqproductg
 0001:00210A11       aEngineversi_17
 0001:00210A20       aSigversion_12
 0001:00210A2C       aAppversion_13
 0001:00210A38       aIsbeta_13
 0001:00210A3F       aIsmanaged_22
 0001:00210A4A       aIspassivemo_23
 0001:00210A59       aIssxspassiv_26
 0001:00210A6B       aShouldhashi_22
 0001:00210A8A       aEngine_bm_im_1
 0001:00210AAD       aEventcount_0
 0001:00210AB8       aIaaaaqimagen_0
 0001:00210AC9       aFolderguardid
 0001:00210AD8       aAudit_3
 0001:00210ADE       aInherited_0
 0001:00210AE9       aBlockonlysecto
 0001:00210B00       aProductguid_21
 0001:00210B10       aGineversion_3
 0001:00210B1D       aSigversion_13
 0001:00210B29       aAppversion_14
 0001:00210B35       aIsbeta_14
 0001:00210B3C       aIsmanaged_23
 0001:00210B47       aIspassivemo_24
 0001:00210B56       aIssxspassiv_27
 0001:00210B68       aShouldhashi_23
 0001:00210B88       aNgine_bm_proce
 0001:00210BA5       aTotaltime
 0001:00210BAF       aLookup_0
 0001:00210BB7       aFriendly
 0001:00210BC1       aFlags_3
 0001:00210BC8       aHips_0
 0001:00210BCE       aFolderguard_1
 0001:00210BDB       aSync
 0001:00210BE1       aPersist_2
 0001:00210BEA       aBackup_0
 0001:00210BF2       aEtw_0
 0001:00210BF7       aProductguid_22
 0001:00210C05       aEngineversi_18
 0001:00210C14       aSigversion_14
 0001:00210C20       aAppversion_15
 0001:00210C2C       aIsbeta_15
 0001:00210C33       aIsmanaged_24
 0001:00210C3E       aIspassivemo_25
 0001:00210C4D       aIssxspassiv_28
 0001:00210C5F       aShouldhashi_24
 0001:00210C7E       aEngine_bm_proc
 0001:00210C95       aMaxdeadnotific
 0001:00210CB0       aIaaaasproductg
 0001:00210CC4       aNgineversion_3
 0001:00210CD4       aGversion_3
 0001:00210CE0       aPversion_3
 0001:00210CEC       aBeta_4
 0001:00210CF1       aIsmanaged_25
 0001:00210CFC       aIspassivemo_26
 0001:00210D0B       aIssxspassiv_29
 0001:00210D1D       aShouldhashi_25
 0001:00210D3C       aEngine_bm_et_0
 0001:00210D4F       aProductguid_23
 0001:00210D5C       aEngineversi_19
 0001:00210D6C       aIgversion_5
 0001:00210D78       aPpversion_5
 0001:00210D84       aSbeta_5
 0001:00210D8A       aIsmanaged_26
 0001:00210D95       aIspassivemo_27
 0001:00210DA4       aIssxspassiv_30
 0001:00210DB6       aShouldhashi_26
 0001:00210DC5       aStarttime_2
 0001:00210DD0       aTerminationtim
 0001:00210DE1       aSetloadimage
 0001:00210DEF       aTerminatepro_1
 0001:00210E01       aCreatesymlnk
 0001:00210E0F       aSetthread
 0001:00210E1A       aOpenprocess_0
 0001:00210E27       aOpenthread_0
 0001:00210E33       aReglastchance
 0001:00210E42       aRegshutdown
 0001:00210E4F       aSeteventhook_0
 0001:00210E5D       aRegisterinput
 0001:00210E6C       aUserblock
 0001:00210E77       aKernelblock
 0001:00210E84       aSetwindowsho_0
 0001:00210E94       aGetasynckeys_0
 0001:00210EA6       aAllocvmremot_0
 0001:00210EB5       aProtectvmremot
 0001:00210EC6       aMapviewremote
 0001:00210ED5       aQueueuserapc_0
 0001:00210EE3       aSetthreadcon_1
 0001:00210EF5       aAllocvmlocal_0
 0001:00210F03       aWritevmremote
 0001:00210F12       aDirenum_0
 0001:00210F1B       aClearsyslog
 0001:00210F28       aClearseclog
 0001:00210F35       aWmiactivityn_0
 0001:00210F45       aWmiexecmetho_0
 0001:00210F64       aEngine_bm_getp
 0001:00210F87       aTurnnrionbyp_0
 0001:00210FA0       aResult_0
 0001:00210FA8       aProductguid_24
 0001:00210FB5       aEngineversi_20
 0001:00210FC4       aSigversion_15
 0001:00210FD0       aAppversion_16
 0001:00210FDC       aIsbeta_16
 0001:00210FE3       aIsmanaged_27
 0001:00210FEE       aIspassivemo_28
 0001:00210FFD       aIssxspassiv_31
 0001:0021100F       aShouldhashi_27
 0001:0021102E       aEngine_bm_ge_0
 0001:00211051       aTaintotherpr_0
 0001:00211068       aEsult
 0001:00211070       aRoductguid_0
 0001:0021107C       aEngineversi_21
 0001:0021108C       aIgversion_6
 0001:00211098       aPpversion_6
 0001:002110A4       aSbeta_6
 0001:002110AA       aIsmanaged_28
 0001:002110B5       aIspassivemo_29
 0001:002110C4       aIssxspassiv_32
 0001:002110D6       aShouldhashi_28
 0001:002110F5       aEngine_bm_pr_0
 0001:00211117       aOverflow_0
 0001:00211120       aIaaaaqthreatid
 0001:0021112F       aSigseq_4
 0001:00211137       aProductguid_25
 0001:00211145       aEngineversi_22
 0001:00211154       aSigversion_16
 0001:00211160       aAppversion_17
 0001:0021116C       aIsbeta_17
 0001:00211173       aIsmanaged_29
 0001:0021117E       aIspassivemo_30
 0001:0021118D       aIssxspassiv_33
 0001:0021119F       aShouldhashi_29
 0001:002111BE       aEngine_bm_pr_1
 0001:002111DE       aProductguid_26
 0001:002111EC       aNgineversion_4
 0001:002111FC       aGversion_4
 0001:00211208       aPversion_4
 0001:00211214       aBeta_5
 0001:00211219       aIsmanaged_30
 0001:00211224       aIspassivemo_31
 0001:00211233       aIssxspassiv_34
 0001:00211245       aShouldhashi_30
 0001:00211254       a__tlgcv__
 0001:00211260       aStarttime_3
 0001:0021126A       aTerminationt_0
 0001:0021127B       aFilecreatecoun
 0001:0021128C       aFoldercreateco
 0001:0021129F       aFolderenumcoun
 0001:002112B0       aFolderrenameco
 0001:002112C3       aFilechangecoun
 0001:002112D4       aFiledeletecoun
 0001:002112E5       aRegistryvalues
 0001:002112FC       aRegistryvalued
 0001:00211316       aNetworkdetec_1
 0001:0021132D       aProcesscreatec
 0001:00211341       aRemotethread_1
 0001:0021136A       aEngine_bm_pr_2
 0001:00211383       aProductguid_27
 0001:00211390       aEngineversi_23
 0001:002113A0       aIgversion_7
 0001:002113AC       aPpversion_7
 0001:002113B8       aSbeta_7
 0001:002113BE       aIsmanaged_31
 0001:002113C9       aIspassivemo_32
 0001:002113D8       aIssxspassiv_35
 0001:002113EA       aShouldhashi_31
 0001:002113F9       a__tlgcv___0
 0001:00211414       aEngine_bm_pr_3
 0001:00211430       aProductguid_28
 0001:0021143D       aEngineversi_24
 0001:0021144C       aSigversion_17
 0001:00211458       aAppversion_18
 0001:00211464       aIsbeta_18
 0001:0021146B       aIsmanaged_32
 0001:00211476       aIspassivemo_33
 0001:00211485       aIssxspassiv_36
 0001:00211497       aShouldhashi_32
 0001:002114A6       a__tlgcv___1
 0001:002114B4       aAgepath
 0001:002114BD       aThreatid_4
 0001:002114C6       aSigseq_5
 0001:002114CE       aNotificationfi
 0001:002114E2       aCollectionflag
 0001:002114F3       aPriority
 0001:00211500       aLtersize
 0001:00211509       aMaxnotificat_0
 0001:0021152E       aEngine_bm_prox
 0001:00211543       aCount_6
 0001:00211549       aIaaaaqimagen_1
 0001:0021155C       aOductguid
 0001:00211568       aNgineversion_5
 0001:00211578       aGversion_5
 0001:00211584       aPversion_5
 0001:00211590       aBeta_6
 0001:00211595       aIsmanaged_33
 0001:002115A0       aIspassivemo_34
 0001:002115AF       aIssxspassiv_37
 0001:002115C1       aShouldhashi_33
 0001:002115E0       aEngine_bm_im_2
 0001:002115F8       aCount_7
 0001:002115FE       aIaaaaqsize
 0001:00211609       aProductguid_29
 0001:00211618       aNgineversion_6
 0001:00211628       aGversion_6
 0001:00211634       aPversion_6
 0001:00211640       aBeta_7
 0001:00211645       aIsmanaged_34
 0001:00211650       aIspassivemo_35
 0001:0021165F       aIssxspassiv_38
 0001:00211671       aShouldhashi_34
 0001:00211690       aEngine_bm_fdrf
 0001:002116B2       aProductguid_30
 0001:002116C0       aNgineversion_7
 0001:002116D0       aGversion_7
 0001:002116DC       aPversion_7
 0001:002116E8       aBeta_8
 0001:002116ED       aIsmanaged_35
 0001:002116F8       aIspassivemo_36
 0001:00211707       aIssxspassiv_39
 0001:00211719       aShouldhashi_35
 0001:00211728       aSignatureid_3
 0001:00211735       aFriendsource
 0001:00211743       aDetectionnam_3
 0001:00211754       aMagepathhash
 0001:00211764       aAgefilename
 0001:00211780       aEngine_bm_note
 0001:00211796       aCount_8
 0001:0021179C       aIaaaaqsigseq
 0001:002117A9       aProductguid_31
 0001:002117B8       aNgineversion_8
 0001:002117C8       aGversion_8
 0001:002117D4       aPversion_8
 0001:002117E0       aBeta_9
 0001:002117E5       aIsmanaged_36
 0001:002117F0       aIspassivemo_37
 0001:002117FF       aIssxspassiv_40
 0001:00211811       aShouldhashi_36
 0001:00211830       aEngine_bm_frie
 0001:0021184F       aProductguid_32
 0001:0021185C       aEngineversi_25
 0001:0021186C       aIgversion_8
 0001:00211878       aPpversion_8
 0001:00211884       aSbeta_8
 0001:0021188A       aIsmanaged_37
 0001:00211895       aIspassivemo_38
 0001:002118A4       aIssxspassiv_41
 0001:002118B6       aShouldhashi_37
 0001:002118C5       aSignatureid_4
 0001:002118D2       aFriendsource_0
 0001:002118E0       aDetectionnam_4
 0001:002118F0       aImagepathhas_0
 0001:00211900       aMagefilename
 0001:0021191D       aEngine_bm_dete
 0001:00211935       aCount_9
 0001:0021193B       aIaaaaqproduc_0
 0001:00211950       aGineversion_4
 0001:0021195D       aSigversion_18
 0001:00211969       aAppversion_19
 0001:00211975       aIsbeta_19
 0001:0021197C       aIsmanaged_38
 0001:00211987       aIspassivemo_39
 0001:00211996       aIssxspassiv_42
 0001:002119A8       aShouldhashi_38
 0001:002119C8       aNgine_bm_threa
 0001:002119E6       aProductguid_33
 0001:002119F4       aNgineversion_9
 0001:00211A04       aGversion_9
 0001:00211A10       aPversion_9
 0001:00211A1C       aBeta_10
 0001:00211A21       aIsmanaged_39
 0001:00211A2C       aIspassivemo_40
 0001:00211A3B       aIssxspassiv_43
 0001:00211A4D       aShouldhashi_39
 0001:00211A5C       a__tlgcv___2
 0001:00211A68       aThreatid_5
 0001:00211A71       aIsfastremediat
 0001:00211A84       aIsfastestremed
 0001:00211A9A       aIsfriendlysupp
 0001:00211AC0       aEngine_bm_fast
 0001:00211ADC       aProductguid_34
 0001:00211AE9       aEngineversi_26
 0001:00211AF8       aSigversion_19
 0001:00211B04       aAppversion_20
 0001:00211B10       aIsbeta_20
 0001:00211B17       aIsmanaged_40
 0001:00211B22       aIspassivemo_41
 0001:00211B31       aIssxspassiv_44
 0001:00211B43       aShouldhashi_40
 0001:00211B52       a__tlgcv___3
 0001:00211B60       aEsult_0
 0001:00211B76       aEngine_bm_fa_0
 0001:00211B92       aCount_10
 0001:00211B98       aIaaaaqautomati
 0001:00211BB3       aCanactonthreat
 0001:00211BC3       aProductguid_35
 0001:00211BD1       aEngineversi_27
 0001:00211BE0       aSigversion_20
 0001:00211BEC       aAppversion_21
 0001:00211BF8       aIsbeta_21
 0001:00211BFF       aIsmanaged_41
 0001:00211C0A       aIspassivemo_42
 0001:00211C19       aIssxspassiv_45
 0001:00211C2B       aShouldhashi_41
 0001:00211C4A       aEngine_metasto
 0001:00211C6B       aCount_11
 0001:00211C71       aIaaaaqbasename
 0001:00211C81       aPathid
 0001:00211C88       aProductguid_36
 0001:00211C98       aGineversion_5
 0001:00211CA5       aSigversion_21
 0001:00211CB1       aAppversion_22
 0001:00211CBD       aIsbeta_22
 0001:00211CC4       aIsmanaged_42
 0001:00211CCF       aIspassivemo_43
 0001:00211CDE       aIssxspassiv_46
 0001:00211CF0       aShouldhashi_42
 0001:00211D10       aNgine_bm_image
 0001:00211D34       aEventcount_1
 0001:00211D3F       aIaaaaqimagen_2
 0001:00211D50       aMonitorprocess
 0001:00211D64       aMonitorsyncreg
 0001:00211D79       aMonitorsyncrem
 0001:00211D95       aProcessstartre
 0001:00211DAC       aRegistryreques
 0001:00211DBF       aInjectionreque
 0001:00211DD3       aProductguid_37
 0001:00211DE1       aEngineversi_28
 0001:00211DF0       aSigversion_22
 0001:00211DFC       aAppversion_23
 0001:00211E08       aIsbeta_23
 0001:00211E0F       aIsmanaged_43
 0001:00211E1A       aIspassivemo_44
 0001:00211E29       aIssxspassiv_47
 0001:00211E3B       aShouldhashi_43
 0001:00211E5A       aEngine_sms_syn
 0001:00211E6F       aCount_12
 0001:00211E75       aIaaaaqproduc_1
 0001:00211E88       aEngineversi_29
 0001:00211E98       aIgversion_9
 0001:00211EA4       aPpversion_9
 0001:00211EB0       aSbeta_9
 0001:00211EB6       aIsmanaged_44
 0001:00211EC1       aIspassivemo_45
 0001:00211ED0       aIssxspassiv_48
 0001:00211EE2       aShouldhashi_44
 0001:00211F01       aEngine_sms_s_0
 0001:00211F1E       aCount_13
 0001:00211F24       aIaaaaqproduc_2
 0001:00211F38       aNgineversio_10
 0001:00211F48       aGversion_10
 0001:00211F54       aPversion_10
 0001:00211F60       aBeta_11
 0001:00211F65       aIsmanaged_45
 0001:00211F70       aIspassivemo_46
 0001:00211F7F       aIssxspassiv_49
 0001:00211F91       aShouldhashi_45
 0001:00211FB0       aEngine_bm_trus
 0001:00211FD2       aProductguid_38
 0001:00211FE0       aNgineversio_11
 0001:00211FF0       aGversion_11
 0001:00211FFC       aPversion_11
 0001:00212008       aBeta_12
 0001:0021200D       aIsmanaged_46
 0001:00212018       aIspassivemo_47
 0001:00212027       aIssxspassiv_50
 0001:00212039       aShouldhashi_46
 0001:00212048       aImagename_2
 0001:00212054       aSigseqlist
 0001:00212070       aNgine_bm_setbm
 0001:0021208D       aProductguid_39
 0001:0021209C       aGineversion_6
 0001:002120A9       aSigversion_23
 0001:002120B5       aAppversion_24
 0001:002120C1       aIsbeta_24
 0001:002120C8       aIsmanaged_47
 0001:002120D3       aIspassivemo_48
 0001:002120E2       aIssxspassiv_51
 0001:002120F4       aShouldhashi_47
 0001:00212103       aImagename_3
 0001:00212110       aIgnatureargs
 0001:00212120       aReatid
 0001:00212127       aSigseq_6
 0001:0021212F       aFileaction
 0001:0021214C       aNgine_scan_lat
 0001:00212168       aProductguid_40
 0001:00212175       aEngineversi_30
 0001:00212184       aSigversion_24
 0001:00212190       aAppversion_25
 0001:0021219C       aIsbeta_25
 0001:002121A3       aIsmanaged_48
 0001:002121AE       aIspassivemo_49
 0001:002121BD       aIssxspassiv_52
 0001:002121CF       aShouldhashi_48
 0001:002121DE       aFilename_5
 0001:00212222       aEngine_ar_root
 0001:00212238       aCount_14
 0001:0021223E       aIaaaaqerrorcod
 0001:0021224E       aProductguid_41
 0001:0021225C       aEngineversi_31
 0001:0021226C       aIgversion_10
 0001:00212278       aPpversion_10
 0001:00212284       aSbeta_10
 0001:0021228A       aIsmanaged_49
 0001:00212295       aIspassivemo_50
 0001:002122A4       aIssxspassiv_53
 0001:002122B6       aShouldhashi_49
 0001:002122D5       aEngine_ar_ro_0
 0001:002122EC       aCount_15
 0001:002122F2       aIaaaaqerrorc_0
 0001:00212302       aProductguid_42
 0001:00212310       aEngineversi_32
 0001:00212320       aIgversion_11
 0001:0021232C       aPpversion_11
 0001:00212338       aSbeta_11
 0001:0021233E       aIsmanaged_50
 0001:00212349       aIspassivemo_51
 0001:00212358       aIssxspassiv_54
 0001:0021236A       aShouldhashi_50
 0001:00212389       aEngine_ar_ro_1
 0001:002123A1       aCount_16
 0001:002123A7       aIaaaaqerrorc_1
 0001:002123B7       aProductguid_43
 0001:002123C5       aEngineversi_33
 0001:002123D4       aSigversion_25
 0001:002123E0       aAppversion_26
 0001:002123EC       aIsbeta_26
 0001:002123F3       aIsmanaged_51
 0001:002123FE       aIspassivemo_52
 0001:0021240D       aIssxspassiv_55
 0001:0021241F       aShouldhashi_51
 0001:0021243E       aEngine_ar_emss
 0001:00212450       aCount_17
 0001:00212456       aIaaaaqerrorc_2
 0001:00212466       aProductguid_44
 0001:00212474       aEngineversi_34
 0001:00212484       aIgversion_12
 0001:00212490       aPpversion_12
 0001:0021249C       aSbeta_12
 0001:002124A2       aIsmanaged_52
 0001:002124AD       aIspassivemo_53
 0001:002124BC       aIssxspassiv_56
 0001:002124CE       aShouldhashi_52
 0001:002124ED       aEngine_core__0
 0001:00212502       aProductguid_45
 0001:00212510       aNgineversio_12
 0001:00212520       aGversion_12
 0001:0021252C       aPversion_12
 0001:00212538       aBeta_13
 0001:0021253D       aIsmanaged_53
 0001:00212548       aIspassivemo_54
 0001:00212557       aIssxspassiv_57
 0001:00212569       aShouldhashi_53
 0001:00212578       aSigseq_7
 0001:002125D1       aEngine_scan_un
 0001:002125E6       aProductguid_46
 0001:002125F4       aNgineversio_13
 0001:00212604       aGversion_13
 0001:00212610       aPversion_13
 0001:0021261C       aBeta_14
 0001:00212621       aIsmanaged_54
 0001:0021262C       aIspassivemo_55
 0001:0021263B       aIssxspassiv_58
 0001:0021264D       aShouldhashi_54
 0001:0021265C       aPackername
 0001:0021269D       aEngine_bm_star
 0001:002126B1       aProductguid_47
 0001:002126C0       aGineversion_7
 0001:002126CD       aSigversion_26
 0001:002126D9       aAppversion_27
 0001:002126E5       aIsbeta_27
 0001:002126EC       aIsmanaged_55
 0001:002126F7       aIspassivemo_56
 0001:00212706       aIssxspassiv_59
 0001:00212718       aShouldhashi_55
 0001:00212727       aHresult_6
 0001:00212740       aEngine_maps_sy
 0001:00212761       aProductguid_48
 0001:00212770       aGineversion_8
 0001:0021277D       aSigversion_27
 0001:00212789       aAppversion_28
 0001:00212795       aIsbeta_28
 0001:0021279C       aIsmanaged_56
 0001:002127A7       aIspassivemo_57
 0001:002127B6       aIssxspassiv_60
 0001:002127C8       aShouldhashi_56
 0001:002127D7       aReportguid
 0001:002127E4       aHresult_7
 0001:002127ED       aIssamplesubmis
 0001:00212800       aIsrtsd
 0001:00212808       aIssdn
 0001:00212820       aNgine_bm_ima_0
 0001:00212847       aProductguid_49
 0001:00212854       aEngineversi_35
 0001:00212864       aIgversion_13
 0001:00212870       aPpversion_13
 0001:0021287C       aSbeta_13
 0001:00212882       aIsmanaged_57
 0001:0021288D       aIspassivemo_58
 0001:0021289C       aIssxspassiv_61
 0001:002128AE       aShouldhashi_57
 0001:002128BD       aStarttime_4
 0001:002128C8       aCmdlinescan_co
 0001:002128E2       aSms_completeti
 0001:002128F4       aImagename_comp
 0001:0021290C       aResult_1
 0001:00212924       aEngine_ss_auto
 0001:0021293F       aProductguid_50
 0001:0021294C       aEngineversi_36
 0001:0021295C       aIgversion_14
 0001:00212968       aPpversion_14
 0001:00212974       aSbeta_14
 0001:0021297A       aIsmanaged_58
 0001:00212985       aIspassivemo_59
 0001:00212994       aIssxspassiv_62
 0001:002129A6       aShouldhashi_58
 0001:002129B5       aOldvalue_0
 0001:002129BF       aNewvalue_0
 0001:002129D9       aEngine_maps_sp
 0001:002129F8       aProductguid_51
 0001:00212A05       aEngineversi_37
 0001:00212A14       aSigversion_28
 0001:00212A20       aAppversion_29
 0001:00212A2C       aIsbeta_29
 0001:00212A33       aIsmanaged_59
 0001:00212A3E       aIspassivemo_60
 0001:00212A4D       aIssxspassiv_63
 0001:00212A5F       aShouldhashi_59
 0001:00212A6E       aOldvalue_1
 0001:00212A78       aNewvalue_1
 0001:00212A92       aEngine_maps_or
 0001:00212AAB       aProductguid_52
 0001:00212AB8       aEngineversi_38
 0001:00212AC8       aIgversion_15
 0001:00212AD4       aPpversion_15
 0001:00212AE0       aSbeta_15
 0001:00212AE6       aIsmanaged_60
 0001:00212AF1       aIspassivemo_61
 0001:00212B00       aIssxspassiv_64
 0001:00212B12       aShouldhashi_60
 0001:00212B21       aBootpath
 0001:00212B3C       aNgine_maps_org
 0001:00212B54       aProductguid_53
 0001:00212B61       aEngineversi_39
 0001:00212B70       aSigversion_29
 0001:00212B7C       aAppversion_30
 0001:00212B88       aIsbeta_30
 0001:00212B8F       aIsmanaged_61
 0001:00212B9A       aIspassivemo_62
 0001:00212BA9       aIssxspassiv_65
 0001:00212BBB       aShouldhashi_61
 0001:00212BCA       aSenseenabled_0
 0001:00212BD8       aBootpath_0
 0001:00212BE2       aOrgid_3
 0001:00212BF9       aEngine_core_en
 0001:00212C10       aProductguid_54
 0001:00212C1D       aEngineversi_40
 0001:00212C2C       aSigversion_30
 0001:00212C38       aAppversion_31
 0001:00212C44       aIsbeta_31
 0001:00212C4B       aIsmanaged_62
 0001:00212C56       aIspassivemo_63
 0001:00212C65       aIssxspassiv_66
 0001:00212C77       aShouldhashi_62
 0001:00212C86       aCaller_2
 0001:00212C90       aRrorcode
 0001:00212CA9       aEngine_core__1
 0001:00212CC2       aProductguid_55
 0001:00212CD0       aNgineversio_14
 0001:00212CE0       aGversion_14
 0001:00212CEC       aPversion_14
 0001:00212CF8       aBeta_15
 0001:00212CFD       aIsmanaged_63
 0001:00212D08       aIspassivemo_64
 0001:00212D17       aIssxspassiv_67
 0001:00212D29       aShouldhashi_63
 0001:00212D38       aErrorcode_3
 0001:00212D54       aNgine_ss_parse
 0001:00212D69       aProductguid_56
 0001:00212D78       aGineversion_9
 0001:00212D85       aSigversion_31
 0001:00212D91       aAppversion_32
 0001:00212D9D       aIsbeta_32
 0001:00212DA4       aIsmanaged_64
 0001:00212DAF       aIspassivemo_65
 0001:00212DBE       aIssxspassiv_68
 0001:00212DD0       aShouldhashi_64
 0001:00212DDF       aErrorCode_0
 0001:00212DFC       aNgine_maps_hea
 0001:00212E11       aProductguid_57
 0001:00212E20       aGineversion_10
 0001:00212E2D       aSigversion_32
 0001:00212E39       aAppversion_33
 0001:00212E45       aIsbeta_33
 0001:00212E4C       aIsmanaged_65
 0001:00212E57       aIspassivemo_66
 0001:00212E66       aIssxspassiv_69
 0001:00212E78       aShouldhashi_65
 0001:00212E87       aPusmode
 0001:00212E90       aCountasrrules
 0001:00212E9F       aIsasranyaudit
 0001:00212EB0       aIsasranyblock
 0001:00212EC0       aCfamode
 0001:00212EC8       aConsumerasrmod
 0001:00212EE9       aEngine_maps_co
 0001:00212F02       aProductguid_58
 0001:00212F10       aNgineversio_15
 0001:00212F20       aGversion_15
 0001:00212F2C       aPversion_15
 0001:00212F38       aBeta_16
 0001:00212F3D       aIsmanaged_66
 0001:00212F48       aIspassivemo_67
 0001:00212F57       aIssxspassiv_70
 0001:00212F69       aShouldhashi_66
 0001:00212F78       a__tlgcv___4
 0001:00212F94       aNgine_maps_col
 0001:00212FAA       aProductguid_59
 0001:00212FB8       aNgineversio_16
 0001:00212FC8       aGversion_16
 0001:00212FD4       aPversion_16
 0001:00212FE0       aBeta_17
 0001:00212FE5       aIsmanaged_67
 0001:00212FF0       aIspassivemo_68
 0001:00212FFF       aIssxspassiv_71
 0001:00213011       aShouldhashi_67
 0001:00213020       a__tlgcv___5
 0001:0021302C       aErrorcode_4
 0001:00213036       aEnginereport_2
 0001:0021306D       aEngine_maps_se
 0001:00213087       aProductguid_60
 0001:00213094       aEngineversi_41
 0001:002130A4       aIgversion_16
 0001:002130B0       aPpversion_16
 0001:002130BC       aSbeta_16
 0001:002130C2       aIsmanaged_68
 0001:002130CD       aIspassivemo_69
 0001:002130DC       aIssxspassiv_72
 0001:002130EE       aShouldhashi_68
 0001:002130FD       aCaller_3
 0001:00213108       aRorcode
 0001:00213120       aEngine_scan_lo
 0001:0021313A       aProductguid_61
 0001:00213148       aNgineversio_17
 0001:00213158       aGversion_17
 0001:00213164       aPversion_17
 0001:00213170       aBeta_18
 0001:00213175       aIsmanaged_69
 0001:00213180       aIspassivemo_70
 0001:0021318F       aIssxspassiv_73
 0001:002131A1       aShouldhashi_69
 0001:002131B0       aScanid_3
 0001:002131EA       aEngine_scan_sc
 0001:00213202       aProductguid_62
 0001:00213210       aNgineversio_18
 0001:00213220       aGversion_18
 0001:0021322C       aPversion_18
 0001:00213238       aBeta_19
 0001:0021323D       aIsmanaged_70
 0001:00213248       aIspassivemo_71
 0001:00213257       aIssxspassiv_74
 0001:00213269       aShouldhashi_70
 0001:00213278       aResourcesche_2
 0001:00213298       aEngine_scan_fu
 0001:002132B4       aProductguid_63
 0001:002132C1       aEngineversi_42
 0001:002132D0       aSigversion_33
 0001:002132DC       aAppversion_34
 0001:002132E8       aIsbeta_34
 0001:002132EF       aIsmanaged_71
 0001:002132FA       aIspassivemo_72
 0001:00213309       aIssxspassiv_75
 0001:0021331B       aShouldhashi_71
 0001:0021332A       a__tlgcv___6
 0001:00213345       aEngine_scan__0
 0001:0021335F       aProductguid_64
 0001:0021336C       aEngineversi_43
 0001:0021337C       aIgversion_17
 0001:00213388       aPpversion_17
 0001:00213394       aSbeta_17
 0001:0021339A       aIsmanaged_72
 0001:002133A5       aIspassivemo_73
 0001:002133B4       aIssxspassiv_76
 0001:002133C6       aShouldhashi_72
 0001:002133D5       a__tlgcv___7
 0001:002133FB       aEngine_scan_qu
 0001:00213418       aProductguid_65
 0001:00213425       aEngineversi_44
 0001:00213434       aSigversion_34
 0001:00213440       aAppversion_35
 0001:0021344C       aIsbeta_35
 0001:00213453       aIsmanaged_73
 0001:0021345E       aIspassivemo_74
 0001:0021346D       aIssxspassiv_77
 0001:0021347F       aShouldhashi_73
 0001:0021348E       a__tlgcv___8
 0001:0021349C       aSumed
 0001:002134A2       aCachesize
 0001:002134AD       aScansource_2
 0001:002134C9       aEngine_scan__1
 0001:002134E4       aProductguid_66
 0001:002134F1       aEngineversi_45
 0001:00213500       aSigversion_35
 0001:0021350C       aAppversion_36
 0001:00213518       aIsbeta_36
 0001:0021351F       aIsmanaged_74
 0001:0021352A       aIspassivemo_75
 0001:00213539       aIssxspassiv_78
 0001:0021354B       aShouldhashi_74
 0001:0021355A       a__tlgcv___9
 0001:00213568       aRorcode_0
 0001:00213570       aCachesize_0
 0001:0021357B       aScansource_3
 0001:00213598       aNgine_scan_res
 0001:002135B5       aProductguid_67
 0001:002135C4       aGineversion_11
 0001:002135D1       aSigversion_36
 0001:002135DD       aAppversion_37
 0001:002135E9       aIsbeta_37
 0001:002135F0       aIsmanaged_75
 0001:002135FB       aIspassivemo_76
 0001:0021360A       aIssxspassiv_79
 0001:0021361C       aShouldhashi_75
 0001:0021362B       aScansource_4
 0001:00213637       aResmgrschema
 0001:00213655       aTlgaggregatesu
 0001:00213669       aProvider
 0001:00213674       aUmflushes
 0001:0021367E       aMaxentriesstor
 0001:00213690       aTotalentriesfl
 0001:002136A5       aMaxentriesflus
 0001:002136B8       aMinentriesflus
 0001:002136CB       aNumbucketlimit
 0001:002136E2       aNumallocationf
 0001:002136F9       aNumlargeeventf
 0001:00213720       aEngine_det_moa
 0001:00213739       aProductguid_68
 0001:00213748       aGineversion_12
 0001:00213755       aSigversion_37
 0001:00213761       aAppversion_38
 0001:0021376D       aIsbeta_38
 0001:00213774       aIsmanaged_76
 0001:0021377F       aIspassivemo_77
 0001:0021378E       aIssxspassiv_80
 0001:002137A0       aShouldhashi_76
 0001:002137AF       aFriendlysigs_7
 0001:002137C0       aFilename_6
 0001:002137CC       aThid
 0001:002137E1       aEngine_retaila
 0001:002137F5       aProductguid_69
 0001:00213804       aGineversion_13
 0001:00213811       aSigversion_38
 0001:0021381D       aAppversion_39
 0001:00213829       aIsbeta_39
 0001:00213830       aIsmanaged_77
 0001:0021383B       aIspassivemo_78
 0001:0021384A       aIssxspassiv_81
 0001:0021385C       aShouldhashi_77
 0001:0021386B       aMessage_0
 0001:00213894       aEngine_scan_ca
 0001:002138B4       aProductguid_70
 0001:002138C1       aEngineversi_46
 0001:002138D0       aSigversion_39
 0001:002138DC       aAppversion_40
 0001:002138E8       aIsbeta_40
 0001:002138EF       aIsmanaged_78
 0001:002138FA       aIspassivemo_79
 0001:00213909       aIssxspassiv_82
 0001:0021391B       aShouldhashi_78
 0001:0021392A       aLastRevokeVers
 0001:0021393F       aFirstVersion
 0001:0021394E       aLastVersion
 0001:0021395C       aValidRevocatio
 0001:00213974       aMaximumAllowed
 0001:002139A1       aEngine_core_pr
 0001:002139BC       aProductguid_71
 0001:002139C9       aEngineversi_47
 0001:002139D8       aSigversion_40
 0001:002139E4       aAppversion_41
 0001:002139F0       aIsbeta_41
 0001:002139F7       aIsmanaged_79
 0001:00213A02       aIspassivemo_80
 0001:00213A11       aIssxspassiv_83
 0001:00213A23       aShouldhashi_79
 0001:00213A32       aProfilemgrin_0
 0001:00213A5C       aEngine_core__2
 0001:00213A77       aProductguid_72
 0001:00213A84       aEngineversi_48
 0001:00213A94       aIgversion_18
 0001:00213AA0       aPpversion_18
 0001:00213AAC       aSbeta_18
 0001:00213AB2       aIsmanaged_80
 0001:00213ABD       aIspassivemo_81
 0001:00213ACC       aIssxspassiv_84
 0001:00213ADE       aShouldhashi_80
 0001:00213AED       aCaller_4
 0001:00213AF8       aRorcode_1
 0001:00213B10       aEngine_det_bml
 0001:00213B28       aCount_18
 0001:00213B2E       aIaaaaqsigseq_0
 0001:00213B3C       aResult_2
 0001:00213B43       aProductguid_73
 0001:00213B51       aEngineversi_49
 0001:00213B60       aSigversion_41
 0001:00213B6C       aAppversion_42
 0001:00213B78       aIsbeta_42
 0001:00213B7F       aIsmanaged_81
 0001:00213B8A       aIspassivemo_82
 0001:00213B99       aIssxspassiv_85
 0001:00213BAB       aShouldhashi_81
 0001:00213BCA       aEngine_maps_in
 0001:00213BE8       aProductguid_74
 0001:00213BF5       aEngineversi_50
 0001:00213C04       aSigversion_42
 0001:00213C10       aAppversion_43
 0001:00213C1C       aIsbeta_43
 0001:00213C23       aIsmanaged_82
 0001:00213C2E       aIspassivemo_83
 0001:00213C3D       aIssxspassiv_86
 0001:00213C4F       aShouldhashi_82
 0001:00213C5E       aSchemaid
 0001:00213C78       aEngine_maps__0
 0001:00213C90       aProductguid_75
 0001:00213C9D       aEngineversi_51
 0001:00213CAC       aSigversion_43
 0001:00213CB8       aAppversion_44
 0001:00213CC4       aIsbeta_44
 0001:00213CCB       aIsmanaged_83
 0001:00213CD6       aIspassivemo_84
 0001:00213CE5       aIssxspassiv_87
 0001:00213CF7       aShouldhashi_83
 0001:00213D06       aEnginereport_3
 0001:00213D30       aEngine_scan_la
 0001:00213D4B       aProductguid_76
 0001:00213D58       aEngineversi_52
 0001:00213D68       aIgversion_19
 0001:00213D74       aPpversion_19
 0001:00213D80       aSbeta_19
 0001:00213D86       aIsmanaged_84
 0001:00213D91       aIspassivemo_85
 0001:00213DA0       aIssxspassiv_88
 0001:00213DB2       aShouldhashi_84
 0001:00213DC1       aSigseq_8
 0001:00213DCC       aThid_0
 0001:00213DD1       aFilename_7
 0001:00213DEC       aNgine_maps_sen
 0001:00213E06       aProductguid_77
 0001:00213E14       aNgineversio_19
 0001:00213E24       aGversion_19
 0001:00213E30       aPversion_19
 0001:00213E3C       aBeta_20
 0001:00213E41       aIsmanaged_85
 0001:00213E4C       aIspassivemo_86
 0001:00213E5B       aIssxspassiv_89
 0001:00213E6D       aShouldhashi_85
 0001:00213E7C       aErrorcode_5
 0001:00213E87       aUsebond
 0001:00213F9C       aEngine_det_lua
 0001:00213FB7       aCount_19
 0001:00213FBD       aIaaaaqsuccee_0
 0001:00213FCD       aReportedreso_0
 0001:00213FE0       aProductguid_78
 0001:00213FF0       aGineversion_14
 0001:00213FFD       aSigversion_44
 0001:00214009       aAppversion_45
 0001:00214015       aIsbeta_45
 0001:0021401C       aIsmanaged_86
 0001:00214027       aIspassivemo_87
 0001:00214036       aIssxspassiv_90
 0001:00214048       aShouldhashi_86
 0001:00214068       aNgine_maps_xml
 0001:0021408D       aProductguid_79
 0001:0021409C       aGineversion_15
 0001:002140A9       aSigversion_45
 0001:002140B5       aAppversion_46
 0001:002140C1       aIsbeta_46
 0001:002140C8       aIsmanaged_87
 0001:002140D3       aIspassivemo_88
 0001:002140E2       aIssxspassiv_91
 0001:002140F4       aShouldhashi_87
 0001:00214103       aErrorcode_6
 0001:00214120       aNgine_maps_bon
 0001:00214146       aProductguid_80
 0001:00214154       aNgineversio_20
 0001:00214164       aGversion_20
 0001:00214170       aPversion_20
 0001:0021417C       aBeta_21
 0001:00214181       aIsmanaged_88
 0001:0021418C       aIspassivemo_89
 0001:0021419B       aIssxspassiv_92
 0001:002141AD       aShouldhashi_88
 0001:002141BC       aErrorcode_7
 0001:002141D8       aEngine_metas_0
 0001:002141F8       aProductguid_81
 0001:00214205       aEngineversi_53
 0001:00214214       aSigversion_46
 0001:00214220       aAppversion_47
 0001:0021422C       aIsbeta_47
 0001:00214233       aIsmanaged_89
 0001:0021423E       aIspassivemo_90
 0001:0021424D       aIssxspassiv_93
 0001:0021425F       aShouldhashi_89
 0001:0021426E       aContext_data
 0001:0021428E       aEngine_metas_1
 0001:002142AA       aProductguid_82
 0001:002142B8       aNgineversio_21
 0001:002142C8       aGversion_21
 0001:002142D4       aPversion_21
 0001:002142E0       aBeta_22
 0001:002142E5       aIsmanaged_90
 0001:002142F0       aIspassivemo_91
 0001:002142FF       aIssxspassiv_94
 0001:00214311       aShouldhashi_90
 0001:00214320       aHresult_8
 0001:0021432C       aBfilesize
 0001:00214346       aEngine_metas_2
 0001:00214362       aProductguid_83
 0001:00214370       aNgineversio_22
 0001:00214380       aGversion_22
 0001:0021438C       aPversion_22
 0001:00214398       aBeta_23
 0001:0021439D       aIsmanaged_91
 0001:002143A8       aIspassivemo_92
 0001:002143B7       aIssxspassiv_95
 0001:002143C9       aShouldhashi_91
 0001:002143D8       aSqlitedbinitsu
 0001:002143EF       aHresult_9
 0001:00214409       aEngine_metas_3
 0001:00214427       aCount_20
 0001:0021442D       aIaaaaqtimemin
 0001:0021443B       aIaaaartimemax
 0001:00214449       aIaaaasquerytyp
 0001:0021445C       aUlttype
 0001:002144C4       aIssxspassiv_96
 0001:002144D6       aShouldhashi_92
 0001:002144F5       aEngine_metas_4
 0001:00214519       aProductguid_84
 0001:00214528       aGineversion_16
 0001:00214535       aSigversion_47
 0001:00214541       aAppversion_48
 0001:0021454D       aIsbeta_48
 0001:00214554       aIsmanaged_92
 0001:0021455F       aIspassivemo_93
 0001:0021456E       aIssxspassiv_97
 0001:00214580       aShouldhashi_93
 0001:0021458F       aVaulttype
 0001:0021459C       aEcordcount
 0001:002145A7       aPercentage
 0001:002145B3       aHresult_10
 0001:002145CD       aEngine_metas_5
 0001:002145EB       aProductguid_85
 0001:002145F8       aEngineversi_54
 0001:00214608       aIgversion_20
 0001:00214614       aPpversion_20
 0001:00214620       aSbeta_20
 0001:00214626       aIsmanaged_93
 0001:00214631       aIspassivemo_94
 0001:00214640       aIssxspassiv_98
 0001:00214652       aShouldhashi_94
 0001:00214661       aHresult_11
 0001:0021466C       aPrevver
 0001:00214674       aNewver
 0001:0021468C       aEngine_remedia
 0001:002146AA       aProductguid_86
 0001:002146B8       aNgineversio_23
 0001:002146C8       aGversion_23
 0001:002146D4       aPversion_23
 0001:002146E0       aBeta_24
 0001:002146E5       aIsmanaged_94
 0001:002146F0       aIspassivemo_95
 0001:00214711       aShouldhashi_95
 0001:00214720       aSfcsizepreclea
 0001:00214733       aSfcsizepostcle
 0001:00214758       aNgine_ss_losts
 0001:0021476C       aProductguid_87
 0001:00214779       aEngineversi_55
 0001:00214788       aSigversion_48
 0001:00214794       aAppversion_49
 0001:002147A0       aIsbeta_49
 0001:002147A7       aIsmanaged_95
 0001:002147B2       aIspassivemo_96
 0001:002147D3       aShouldhashi_96
 0001:002147E2       aSha1_7
 0001:002147F0       aLastKnownStatu
 0001:00214814       aNgine_ss_mapso
 0001:00214825       aProductguid_88
 0001:00214834       aGineversion_17
 0001:00214841       aSigversion_49
 0001:0021484D       aAppversion_50
 0001:00214859       aIsbeta_50
 0001:00214860       aIsmanaged_96
 0001:0021486B       aIspassivemo_97
 0001:0021488C       aShouldhashi_97
 0001:0021489B       aSpynetIsOffW_0
 0001:002148ED       aEngine_metas_6
 0001:00214910       aCount_21
 0001:00214916       aIaaaaqerrcode
 0001:00214924       aProductguid_89
 0001:00214934       aGineversion_18
 0001:00214941       aSigversion_50
 0001:0021494D       aAppversion_51
 0001:00214959       aIsbeta_51
 0001:00214960       aIsmanaged_97
 0001:0021496B       aIspassivemo_98
 0001:0021498C       aShouldhashi_98
 0001:002149AC       aNgine_metastor
 0001:002149C8       aProductguid_90
 0001:002149D5       aEngineversi_56
 0001:002149E4       aSigversion_51
 0001:002149F0       aAppversion_52
 0001:002149FC       aIsbeta_52
 0001:00214A03       aIsmanaged_98
 0001:00214A3E       aHresult_12
 0001:00214A58       aEngine_remed_0
 0001:00214A75       aProductguid_91
 0001:00214A84       aGineversion_19
 0001:00214A91       aSigversion_52
 0001:00214A9D       aAppversion_53
 0001:00214AA9       aIsbeta_53
 0001:00214AEB       aHresult_13
 0001:00214AF4       aTarget_3
 0001:00214B09       nullsub_10
 0001:00214B0C       aEngine_sms_mod
 0001:00214B26       aEventcount_2
 0001:00214B31       aIaaaaqimagen_3
 0001:00214B44       aNitormoduleloa
 0001:00214B54       aProductguid_92
 0001:00214B64       aGineversion_20
 0001:00214B71       aSigversion_53
 0001:00214B7D       aAppversion_54
 0001:00214B89       aIsbeta_54
 0001:00214BDC       aNgine_remediat
 0001:00214BF9       aProductguid_93
 0001:00214C08       aGineversion_21
 0001:00214C15       aSigversion_54
 0001:00214C21       aAppversion_55
 0001:00214C2D       aIsbeta_55
 0001:00214C6F       aSigseq_9
 0001:00214C78       aThreatid_6
 0001:00214C84       aMaintenanceres
 0001:00214C97       aIstdn
 0001:00214CAE       aEngine_scan_sy
 0001:00214CCA       aProductguid_94
 0001:00214CD8       aNgineversio_24
 0001:00214CE8       aGversion_24
 0001:00214CF4       aPversion_24
 0001:00214D00       aBeta_25
 0001:00214D40       aDwresult
 0001:00214D4A       aThreatid_7
 0001:00214D54       aScriptname
 0001:00214D70       aEngine_scan_lu
 0001:00214D87       aProductguid_95
 0001:00214D94       aEngineversi_57
 0001:00214DA4       aIgversion_21
 0001:00214DB0       aPpversion_21
 0001:00214DBC       aSbeta_21
 0001:00214DFD       aDwresult_0
 0001:00214E07       aThreatid_8
 0001:00214E11       aScriptname_0
 0001:00214E2D       aEngine_resmgr_
 0001:00214E42       aProductguid_96
 0001:00214E50       aNgineversio_25
 0001:00214E60       aGversion_25
 0001:00214E6C       aPversion_25
 0001:00214E78       aBeta_26
 0001:00214EB8       aAction_4
 0001:00214EEA       aEngine_scan_pr
 0001:00214F02       aCount_22
 0001:00214F08       aIaaaaqerrorc_3
 0001:00214F18       aProductguid_97
 0001:00214F28       aGineversion_22
 0001:00214F35       aSigversion_55
 0001:00214F41       aAppversion_56
 0001:00214F4D       aIsbeta_56
 0001:00214FA0       aNgine_scan_pro
 0001:00214FB9       aCount_23
 0001:00214FBF       aIaaaaqerrorc_4
 0001:00214FCF       aProductguid_98
 0001:00214FDD       aEngineversi_58
 0001:00214FEC       aSigversion_56
 0001:00214FF8       aAppversion_57
 0001:00215004       aIsbeta_57
 0001:00215056       aEngine_scan__2
 0001:0021506A       aCount_24
 0001:00215070       aIaaaaqguesssiz
 0001:00215080       aActualsize
 0001:0021509C       aGineversion_23
 0001:002150A9       aSigversion_57
 0001:002150B5       aAppversion_58
 0001:002150C1       aIsbeta_58
 0001:00215114       aNgine_scan_beh
 0001:00215139       aEngineversi_59
 0001:00215148       aSigversion_58
 0001:00215154       aAppversion_59
 0001:00215160       aIsbeta_59
 0001:002151A2       a__tlgcv___10
 0001:002151BD       aEngine_scan_be
 0001:002151E9       aEngineversi_60
 0001:002151F8       aSigversion_59
 0001:00215204       aAppversion_60
 0001:00215210       aIsbeta_60
 0001:00215252       a__tlgcv___11
 0001:0021526D       aEngine_scan__3
 0001:00215295       aEngineversi_61
 0001:002152A4       aSigversion_60
 0001:002152B0       aAppversion_61
 0001:002152BC       aIsbeta_61
 0001:002152FE       a__tlgcv___12
 0001:00215319       aEngine_scan_wm
 0001:0021532D       aCount_25
 0001:00215333       aIaaaaqerrorc_5
 0001:00215351       aEngineversi_62
 0001:00215360       aSigversion_61
 0001:0021536C       aAppversion_62
 0001:00215378       aIsbeta_62
 0001:002153CA       aEngine_scan__4
 0001:002153E0       aCount_26
 0001:002153E6       aIaaaaqerrorc_6
 0001:00215404       aEngineversi_63
 0001:00215414       aIgversion_22
 0001:00215420       aPpversion_22
 0001:0021542C       aSbeta_22
 0001:0021547D       aEngine_scan_th
 0001:00215494       aCount_27
 0001:0021549A       aIaaaaqerrorc_7
 0001:002154B8       aEngineversi_64
 0001:002154C8       aIgversion_23
 0001:002154D4       aPpversion_23
 0001:002154E0       aSbeta_23
 0001:00215531       aEngine_scan__5
 0001:0021554A       aCount_28
 0001:00215550       aIaaaaqerrorc_8
 0001:00215570       aGineversion_24
 0001:0021557D       aSigversion_62
 0001:00215589       aAppversion_63
 0001:00215595       aIsbeta_63
 0001:0021566D       aSha1_8
 0001:00215674       aLevel_2
 0001:0021567A       aExitreason
 0001:00215688       aCancount
 0001:00215691       aScansize_kb
 0001:0021569E       aWalltime_ms
 0001:002156AB       aScantime_ms
 0001:002156CC       aMicrosoft_wind
 0001:0021570D       aMicrosoft_wi_0
 0001:00215754       aMicrosoft_wi_1
 0001:002157A1       aTelemetryasser
 0001:002157D8       aElemetryassert
 0001:00215800       aMp_get_context
 0001:00216938       aUnknownMemberD
 0001:00216964       aUnknownMemberP
 0001:00216984       aSigtreeLogIsNo
 0001:002169C4       aVerifyhandle
 0001:002169D4       aAdaptbootinput
 0001:002169E4       aMpavbase_vdm
 0001:00216A00       aMpavdlta_vdm
 0001:00216A1C       aMpasbase_vdm
 0001:00216A38       aMpasdlta_vdm
 0001:00216C08       aNA_0
 0001:00216C10       aEngineLoadInPr
 0001:00216C40       aBlock_1
 0001:00216C4C       aCreatesysiocon
 0001:00216C60       aMovefileexnopi
 0001:00216C74       aZerofileconten
 0001:00216C84       aOpenfile
 0001:00216C90       aDelete_2
 0001:00216CB8       aRoot_0
 0001:00216CC8       aHeartbeat
 0001:00216CDC       aNufs__0
 0001:00216CE4       a_engcopy_txt
 0001:00216D08       aWsEngcopy
 0001:00216D20       aMpinternal_r_1
 0001:00216D3C       aMpinternal_c_0
 0001:00216D54       aMpinternal_i_0
 0001:00216D68       aMpinternal_sig
 0001:00216D84       aMpinternal_pea
 0001:00216DE0       aExpensiveFileT
 0001:00216E50       aSocBhocacheHit
 0001:00216E80       aSocBhocacheMis
 0001:00216EC8       aSS_6
 0001:00216ED4       a_U
 0001:00216F1C       a?Unc_1
 0001:00216F30       a??_0
 0001:00216F3C       a__7
 0001:00216F48       a??Unc_0
 0001:00216F6C       a0i64x
 0001:00216F7C       aData_2
 0001:00216FA4       aAmcoreMpeng_32
 0001:00216FE4       aFalseLErrorInF
 0001:00217020       a1Elementsremov
 0001:00217038       aFalseFailedToS
 0001:00217068       a0PfiledataDwfi
 0001:002170A8       aM_finitialized
 0001:002170B8       aNullptrPsource
 0001:002170F4       aPfileNullptrPs
 0001:00217128       aUllposUllsize
 0001:0021713C       aNoSha1Availabl
 0001:00217160       aFsyncPszsource
 0001:00217178       aPszsha1
 0001:00217180       aWsWs_08i64x
 0001:002171A0       aFalseCouldNotP
 0001:002171E8       aFilesstash
 0001:00217200       aAmcoreMpengi_1
 0001:0021723C       aResourcename
 0001:0021724C       aPscandata
 0001:00217258       aUbercontext
 0001:00217264       aResourceprefix
 0001:00217274       aMemcmpPltNameR
 0001:0021729C       aG_resmgrplugin
 0001:002172C0       aPltIdC_resmgr_
 0001:002172DC       aG_resmgrplug_0
 0001:00217300       aInvariantImp_0
 0001:00217348       aInvariantImple
 0001:00217390       aPrePresmgrcont
 0001:002173AC       aM_presmgrconte
 0001:002173DC       aPreGlobalcfg
 0001:002173F0       aRemoving
 0001:00217404       aHandleridInval
 0001:0021742C       aCategoryResmgr
 0001:0021744C       aCleaning
 0001:00217460       aResname
 0001:00217468       aContext
 0001:00217470       aResmgrctx
 0001:0021747C       a0NewResourceMa
 0001:002174B4       aFailedToAlloca
 0001:002174D0       aFailedToRegist
 0001:002174F4       aOfflineStorage
 0001:00217510       aFailedToRegi_0
 0001:00217538       aInvalidBloomFi
 0001:0021756C       aSignatureCheck
 0001:00217584       aIncompleteCont
 0001:002175B0       aAo
 0001:002175B4       aFailedToMapThe
 0001:002175D8       aP_0
 0001:002175DC       a0Bug
 0001:002175E8       aErr_mp_no_erro
 0001:00217600       aAmcoreMpeng_20
 0001:00217630       aHkcr
 0001:0021763C       aHkcr_0
 0001:00217644       aHklm
 0001:00217650       aHkcu_1
 0001:00217658       aHkcc
 0001:00217664       aHklm_2
 0001:0021766C       aHkcc_0
 0001:00217674       aG_rkey_recs_ix
 0001:00217698       aG_rkey_recs__0
 0001:002176BC       aG_asep_rkey_re
 0001:002176E8       aG_asep_fpath_r
 0001:00217718       aG_fpath_recs_i
 0001:0021773C       aG_fpath_recs_0
 0001:00217760       aG_cnt_wpaths0
 0001:00217774       aG_asep_fpath_0
 0001:002177A4       aG_cnt_asep_wpa
 0001:002177BC       aG_cnt_wfolders
 0001:002177D0       aG_folder_recs_
 0001:002177F8       aG_asep_folder_
 0001:00217828       aG_folder_rec_0
 0001:00217850       aG_asep_folde_0
 0001:00217880       aG_cnt_asep_wfo
 0001:0021789C       aPszregkeypath
 0001:002178AC       aSS_7
 0001:002178BC       aPszregvaluenam
 0001:002178CC       a0IncorrectData
 0001:002178E4       aSSS_0
 0001:002178F4       aPcFcFpathPcFcF
 0001:00217924       aRegpathNull
 0001:00217934       aNullPszsrcpath
 0001:00217948       aNullPcontext
 0001:0021795C       aCchsrcpathCchm
 0001:00217978       aCchdestCchmaxm
 0001:00217990       aNullSrcpath
 0001:002179A0       aNullDetectedre
 0001:002179C0       aNullRes_data
 0001:002179D4       aFc
 0001:002179D8       aPathoffsetWcsl
 0001:002179F4       aRegistryKeyT_0
 0001:00217A2C       aRegistryKeyToB
 0001:00217A64       aBulkRestoreToK
 0001:00217A8C       aEndOfRegistryK
 0001:00217AB4       aRegistryValu_0
 0001:00217AF0       aRegistryValueT
 0001:00217B2C       aValue_0
 0001:00217B38       aValueEmpty
 0001:00217B54       aValueBinary
 0001:00217B74       aStringsize20
 0001:00217B98       aIsdwordokayKey
 0001:00217BB0       aAmcoreMpeng_24
 0001:00217BF4       aNullPdic
 0001:00217C18       a??AZProgramdat
 0001:00217C60       a??AZProgramFil
 0001:00217CDC       aAmcoreMpeng_23
 0001:00217D20       a??AZUsersAppda
 0001:00217D7C       aPreExtraidC_re
 0001:00217DA4       aPreM_resmgrctx
 0001:00217DC0       aPreFlagsExtrar
 0001:00217E14       aPreExtraname
 0001:00217E28       aPExtraname
 0001:00217E38       aPExtraidC_resm
 0001:00217E58       aPDadname
 0001:00217E64       aPDadidC_resmgr
 0001:00217E80       aAddcontextuald
 0001:00217EDC       aRtpproccessfri
 0001:00217F04       aNonexpstdloc
 0001:00217F14       aStdloc
 0001:00217F1C       aHprofile
 0001:00217F28       aExpstdloc
 0001:00217F34       aStdlocindexStd
 0001:00217F50       aStdlocIsbound
 0001:00217F60       aPexpandeddata
 0001:00217F70       aStdlocExpStdlo
 0001:00217F94       aPfileNull
 0001:002180A8       a_?_0
 0001:002180D0       aPddM_plugidM_p
 0001:002180EC       aAmcoreMpengi_9
 0001:0021812C       a0Qwid0xfffffff
 0001:00218150       a0Pszpath
 0001:00218160       a0Pdd2
 0001:0021816C       a0Pdd1
 0001:00218178       a0Pathlist_comp
 0001:00218198       a0UnexpectedExp
 0001:002181B4       a0WcsncmpPszinL
 0001:002181D8       aX86_0
 0001:002181E0       aIbestmatchM_cc
 0001:0021820C       aC_resmgr_plugi
 0001:00218228       a0Pdd
 0001:00218234       a0Ppszoutput
 0001:00218244       a0Pszinput
 0001:00218254       a0InvalidHivePa
 0001:00218270       aWcslenPszout4
 0001:00218284       aG_pdefaultspre
 0001:002182BC       aDoppleganging
 0001:002182D8       aSoftwareMic_17
 0001:00218328       aSSBm
 0001:0021833C       aSBm
 0001:00218348       aEventlogpath
 0001:00218364       aEnableeventlog
 0001:0021838C       aLogflags
 0001:002183A0       aDetectionlogpa
 0001:002183C4       aCloselogonproc
 0001:002183FC       aEnabledbgout
 0001:00218418       aAg?1osd0UQq
 0001:0021842A       aD_7
 0001:0021842C       aEviceHarddisk
 0001:0021844C       aDeviceHarddi_4
 0001:0021848C       aAll
 0001:00218494       aUser
 0001:002184A0       aKernel
 0001:002184B0       aTargetprocessc
 0001:002184E0       aTargetprocessi
 0001:00218500       aMapview
 0001:00218510       aQueueuserapc
 0001:0021852C       aProtectvm
 0001:00218540       aAllocvmremote
 0001:0021855C       aSetthreadconte
 0001:00218580       aWritevm
 0001:00218590       aFdrnofriendly
 0001:002185AC       aFdr_0
 0001:002185B4       aTurnnrionbypro
 0001:002185CC       aTaintotherproc
 0001:002185E0       aB8LeS
 0001:002185F2       aT_13
 0001:002185F4       aArtMenuProgram
 0001:0021862C       aStartMenuProgr
 0001:00218658       aStartMenu_0
 0001:00218680       aInvalidBitsetN
 0001:0021869C       aInvalidFileNam
 0001:002186C0       aHkcu
 0001:002186DC       nullsub_17
 0001:0021870C       aWs_4
 0001:00218718       aVbr
 0001:0021871C       aMbr
 0001:00218780       aInformationa_0
 0001:002187D0       a02x_2
 0001:002187D8       aC_16
 0001:002187E8       aCdata
 0001:002187F4       aVerifyisfrie_1
 0001:00218820       aIsnotelemetryi
 0001:00218848       aBeginBmTelemet
 0001:00218874       aGuid
 0001:00218880       a08x04x04x02x_1
 0001:002188E8       aSignatureid_0
 0001:00218900       aTelemetryname
 0001:0021891C       aProcesscreatio
 0001:00218944       aProcessid
 0001:00218958       aSessionid
 0001:0021896C       aImagepathhash
 0001:00218988       aEndBmTelemetry
 0001:002189B0       aTargetfilename
 0001:002189D0       aDomain
 0001:002189E0       aSequenceid
 0001:002189F8       aN_1
 0001:002189FC       aY
 0001:00218A00       aIsexcluded
 0001:00218A18       aIsfriendly
 0001:00218A30       aParameters_0
 0001:00218A48       aCreatorprocess
 0001:00218A70       aProcessProce_3
 0001:00218B0C       aCreatorproce_0
 0001:00218B44       aChildprocessid
 0001:00218B68       aProcessProce_1
 0001:00218C00       aProcessProce_2
 0001:00218CA0       aChildprocesscr
 0001:00218CD4       aTerminatorpr_0
 0001:00218D10       aTerminatorproc
 0001:00218D38       aProcessProce_0
 0001:00218D70       aEventDomainW_2
 0001:00218E00       aTargetproces_0
 0001:00218E38       aProcessProcess
 0001:00218EF4       aRegistrykeyPat
 0001:00218F10       aValuename
 0001:00218F24       aRegistrykey
 0001:00218F3C       aHs
 0001:00218F44       aOldvalueTypeUS
 0001:00218F68       aNewvalueTypeUS
 0001:00218F8C       aOldvalue
 0001:00218FA0       aRegistryvalueP
 0001:00218FD8       aNewvalue
 0001:00218FEC       aVbr_0
 0001:00218FF4       aMbr_2
 0001:00218FFC       aDatasize
 0001:00219010       aBootchangeData
 0001:0021904C       aBootrecordtype
 0001:00219070       aRemotethread_0
 0001:00219108       aBootchange
 0001:00219120       aTargetthreadcr
 0001:00219154       aTargetthreadid
 0001:00219174       aShorttargetima
 0001:002191A0       aTargetimagenam
 0001:002191C0       aDetectionid
 0001:002191D8       aNetworkdetec_0
 0001:00219204       aArdetectionDet
 0001:00219234       aArdetection
 0001:0021924C       aBootsector
 0001:00219264       aAttr_08lx
 0001:0021927C       aThreatname_0
 0001:00219294       aIspe_0
 0001:002192A0       aIspacked_0
 0001:002192B4       aIspeplus_0
 0001:002192C8       aAttr_08lx_0
 0001:002192D4       aFileinfo
 0001:002192EC       aFileinfo_0
 0001:002192FC       aY_0
 0001:00219300       aThreatid_2
 0001:0021930C       aWs_6
 0001:00219314       aThreatname
 0001:00219320       aSigseq_1
 0001:00219328       aIspeplus
 0001:00219334       aIspe
 0001:0021933C       aIspacked
 0001:00219348       aMalware
 0001:00219358       aPe_2
 0001:00219360       aNone_0
 0001:0021936C       aPeplus
 0001:0021937C       aRemotethread
 0001:00219398       aOther_0
 0001:002193A4       aUrl_4
 0001:002193A8       aMp_invalid_r_3
 0001:002193EC       aAr_0
 0001:002193F4       aNameHs
 0001:00219400       aTelemetry_0
 0001:00219414       aEms_0
 0001:0021941C       aSeville
 0001:0021942C       aRemediation_1
 0001:00219444       aFolderguard
 0001:0021945C       aWmi_0
 0001:00219464       aApihookwow
 0001:0021947C       aHookwow_0
 0001:0021948C       aBm_startup
 0001:002194A4       aSms_threat
 0001:002194BC       aFile_copy
 0001:002194D0       aRtp
 0001:002194D8       aIntegrity
 0001:002194F0       aMp_invalid_r_2
 0001:00219534       aMp_invalid_r_1
 0001:0021956C       aMp_invalid_reg
 0001:002195A8       aMp_invalid_r_0
 0001:00219624       aBmfilescan
 0001:0021964C       a?Ws
 0001:0021965C       aCache_0
 0001:00219668       aActionRestoreS
 0001:002196AC       aActionRestoreF
 0001:002196E8       a_04d
 0001:002196F4       aRestore_0
 0001:00219708       aActionRecoverS
 0001:0021974C       aActionRecoverF
 0001:00219788       aRecover
 0001:00219798       aFileOwner
 0001:002197B0       aFileToActOnSha
 0001:002197D8       a?SystemrootSys
 0001:00219820       a_sys
 0001:0021982C       aWs_new
 0001:0021983C       aMpffrreplace
 0001:00219858       aActionCleanSuc
 0001:00219898       aActionCleanFai
 0001:002198D0       aActionRemoveFa
 0001:00219910       aActionRemoveSu
 0001:00219954       aFile_4
 0001:00219968       aSha1_1
 0001:00219974       aCleanStoreInpu
 0001:002199B0       aCleanStoreRepo
 0001:002199E0       aCleanStoreOutp
 0001:00219A1C       aSymbolServerHr
 0001:00219A48       aCleanStoreHres
 0001:00219A78       aRstrtmgr_dll
 0001:00219A94       aPidU_0
 0001:00219AA8       aRpfcleanings_2
 0001:00219ACC       aRpfcleanings_1
 0001:00219AE0       aFileCleanedRem
 0001:00219B28       aFileScheduledF
 0001:00219B74       aInfected_2
 0001:00219B88       aFileName
 0001:00219B9C       aPropsCleansha2
 0001:00219BC8       aQuarantineOp_0
 0001:00219C10       aQuarantineOpen
 0001:00219C44       aBackup
 0001:00219C64       aMem
 0001:00219C80       aActionRestor_1
 0001:00219CC8       aActionRestor_0
 0001:00219D08       aActionRemove_0
 0001:00219D50       aActionRemove_1
 0001:00219D90       aEmsTriggerEms
 0001:00219DB4       aEms_1
 0001:00219DC0       aTrigger_1
 0001:00219E1C       aDIIN
 0001:00219E40       aDN
 0001:00219E4C       aPid_5
 0001:00219E58       aPids
 0001:00219E68       aA95
 0001:00219E78       aAmcoreMpeng_21
 0001:00219EC0       aSrPdigitalcert
 0001:00219EF4       aCanTStoreLogNa
 0001:00219F0C       aCanTInitialize
 0001:00219F30       aFileIsOplocked
 0001:00219F44       aCanTCreateLogF
 0001:00219F5C       a44
 0001:00219F60       aAt
 0001:00219F68       aWT
 0001:00219F70       a44_0
 0001:00219F78       a37
 0001:00219F80       a37_0
 0001:00219F84       a02x_1
 0001:00219F8C       a02x
 0001:00219FA0       aNposG_debugint
 0001:0021A008       aPdebug
 0001:0021A010       aTrue_2
 0001:0021A01C       aPbeginPend
 0001:0021A02C       aFalse_2
 0001:0021A038       aDefender_en_19
 0001:0021A054       aRet0
 0001:0021A060       aBug0
 0001:0021A06C       aQFn
 0001:0021A074       a_net
 0001:0021A07C       aHll
 0001:0021A080       aHll?
 0001:0021A088       aPreKtab
 0001:0021A098       a0UnsupportedCa
 0001:0021A0B8       aProduct_versio
 0001:0021A0E4       aProduct_vers_2
 0001:0021A118       aProductIdRange
 0001:0021A18C       aProduct_vers_1
 0001:0021A1C0       aProduct_defend
 0001:0021A278       aProduct_vers_0
 0001:0021A2E4       aCampVersions_0
 0001:0021A310       aCampVersions_1
 0001:0021A33C       aPreConfiginfo
 0001:0021A354       aPathlen
 0001:0021A360       aCampVersionsSh
 0001:0021A3A8       aPlatform_campK
 0001:0021A400       aMsftinternal
 0001:0021A41C       aWldp_dll
 0001:0021A430       aAllowdevelopme
 0001:0021A474       aSubmitsamplesc
 0001:0021A4A0       aSoftwareMic_10
 0001:0021A4F8       aSoftwareMic_14
 0001:0021A540       aMicrosoftForef
 0001:0021A588       aWindowsDefende
 0001:0021A5AC       aWindowsDefen_0
 0001:0021A5E0       aSystemCenterEn
 0001:0021A628       aMicrosoftEndpo
 0001:0021A678       aMicrosoftSyste
 0001:0021A6B8       aMicrosoftFor_0
 0001:0021A708       aMicrosoftMalic
 0001:0021A760       aMicrosoftEmerg
 0001:0021A7A4       aCampastool
 0001:0021A7C0       aMicrosoftStand
 0001:0021A808       aMicrosoftAntim
 0001:0021A834       aProductlocaliz
 0001:0021A860       aMpgearOffice36
 0001:0021A884       aMcsCybersecuri
 0001:0021A8BC       aSenseguid
 0001:0021A8D0       aCbdataOffsetof
 0001:0021A928       aCbdataOffset_3
 0001:0021A9A0       aCbdataOffset_4
 0001:0021A9F8       aCbdataOffset_1
 0001:0021AA58       aCbdataOffset_2
 0001:0021AAC8       aCbdataOffset_0
 0001:0021AB28       aCbdataOffset_5
 0001:0021AB90       aCbdataOffset_6
 0001:0021ABE0       aPrePdata
 0001:0021ABF0       a0IncorrectUsag
 0001:0021AC30       aM_targeteventt
 0001:0021ACAC       aPcloudresponse
 0001:0021ACD4       aNullptrPsigcon
 0001:0021ACEC       aGktab
 0001:0021ACF4       aPspliCodeSyncp
 0001:0021AD18       aPcloudrespon_1
 0001:0021AD44       aPcloudrespon_2
 0001:0021AD70       aSubmitspynetre
 0001:0021ADA8       aSubmitspynet_2
 0001:0021ADE0       aPcloudrespon_0
 0001:0021AE00       aMpengineloadPa
 0001:0021AE54       aMp_extended_de
 0001:0021AE8C       aDetectionsD_lo
 0001:0021AEB0       aMpengineunload
 0001:0021AEF0       aPreCountCountS
 0001:0021AF20       aLowfis_log
 0001:0021AF38       aAttributesD_lo
 0001:0021AF5C       aDetections_log
 0001:0021AF7C       aLowfisD_log
 0001:0021AF98       aTrustdetecti_0
 0001:0021AFC0       aPackersD_csv
 0001:0021AFE0       aAttributes_log
 0001:0021B000       aTrustdetection
 0001:0021B030       aWsSS0x016i64x
 0001:0021B048       aPackers_csv
 0001:0021B060       aDefender_en_18
 0001:0021B084       aSS0x016i64xSSS
 0001:0021B0A0       aDefender_en_17
 0001:0021B0C4       a0x02x0x016i64x
 0001:0021B0F4       aSrInfo_vname0
 0001:0021B108       aDelayed
 0001:0021B118       aNameStrncmpNam
 0001:0021B138       a0x02x0x016i6_0
 0001:0021B160       a0x02x0x016i6_1
 0001:0021B18C       aDetected
 0001:0021B1A0       aLofi
 0001:0021B1AC       aAmsiDetectedSi
 0001:0021B1D8       aAmsiLofiSigseq
 0001:0021B1FC       aAmsiResult
 0001:0021B214       a016i64x_0
 0001:0021B228       aPcbsStatussupp
 0001:0021B254       aDescriptorCall
 0001:0021B278       aG_threadpriori
 0001:0021B294       aMpreportlowfi
 0001:0021B2A4       aMpreportteleme
 0001:0021B2BC       aG_pendinginter
 0001:0021B2D8       aMpreportsynclo
 0001:0021B2EC       aDefender_en_16
 0001:0021B314       aMpreportpersis
 0001:0021B324       aVbs_0
 0001:0021B32C       aPs_0
 0001:0021B334       aOther
 0001:0021B340       aJs
 0001:0021B348       aSSad_S_016i64x
 0001:0021B380       aS_bin
 0001:0021B390       aEdge
 0001:0021B39C       aUac
 0001:0021B3A4       aFailedToImport
 0001:0021B3BC       aFailedToCrea_2
 0001:0021B3D8       pszProvider
 0001:0021B444       aFailedToCrea_1
 0001:0021B464       aFailedToHashDa
 0001:0021B478       aDefender_en_15
 0001:0021B494       aFailedToHash
 0001:0021B4A4       aFailedToHashNa
 0001:0021B4B8       aContent_0
 0001:0021B4C8       aSha2
 0001:0021B4D4       aAmcoreMpeng_17
 0001:0021B50C       a0Cfgptr_get
 0001:0021B520       aNoMemory
 0001:0021B53C       a__6
 0001:0021B558       aSystemrootSy_1
 0001:0021B5A0       pbData
 0001:0021BA40       aImpossible
 0001:0021BA4C       aAmcoreMpeng_28
 0001:0021BA84       aDatasizeDatasi
 0001:0021BAA0       aMpenginesignat
 0001:0021BB08       aMpenginesign_0
 0001:0021BB68       aPostRindexSize
 0001:0021BB84       aPdata4DataData
 0001:0021BBA4       aPdata2DataData
 0001:0021BBC4       aElementfields1
 0001:0021BBE0       aPdata8DataData
 0001:0021BC00       aPdata32DataDat
 0001:0021BC20       aPdata64DataDat
 0001:0021BC40       aPdata1DataData
 0001:0021BC60       aPdata16DataDat
 0001:0021BC80       aLastnumU321
 0001:0021BC94       aRecordtype0xf0
 0001:0021BCA8       aSize1u24
 0001:0021BCBC       aReceiver_vec_0
 0001:0021BCCC       aVectorNull
 0001:0021BCDC       aVectorsizeNull
 0001:0021BCF0       aElementdescNul
 0001:0021BD04       aSortfn
 0001:0021BD0C       aElementdescInd
 0001:0021BD30       aReceiver_vecto
 0001:0021BD48       aMpavdlta
 0001:0021BD54       aMpavbase
 0001:0021BD60       aKtabDbhandles
 0001:0021BD70       aMpasdlta
 0001:0021BD7C       aMpasbase
 0001:0021BD88       aNtypes30
 0001:0021BD9C       aNtypesSizeofBu
 0001:0021BDB4       aM_bufferindexS
 0001:0021BDD8       aThischunksize
 0001:0021BDE8       aPostTotalsizeB
 0001:0021BE10       aConsumeinputpl
 0001:0021BE24       aIndexSize
 0001:0021BE34       aDeltablob
 0001:0021BE40       aM_offsetTagM_c
 0001:0021BE64       aInvariantSloti
 0001:0021BE94       aWindowindexWin
 0001:0021BEB0       aOnceTagM_cache
 0001:0021BED0       aPreCheckPrepar
 0001:0021BF04       aFailedToOpenOf
 0001:0021BF24       aFailedToGetOff
 0001:0021BF48       aFailedToGenera
 0001:0021BF74       aInvalidSignatu
 0001:0021BF88       aFailedToCrea_0
 0001:0021BFB4       aFailedToReadTh
 0001:0021BFD0       aErr0
 0001:0021BFDC       aAmcoreMpeng_30
 0001:0021C014       aS_telem
 0001:0021C028       a????????????_0
 0001:0021C080       aCleanup
 0001:0021C088       aLsLs
 0001:0021C098       aHastelemetrypa
 0001:0021C0AC       aInituserdb
 0001:0021C0B8       a0NoUserdbpathI
 0001:0021C0E0       aScan
 0001:0021C0EC       aOfflinetelemet
 0001:0021C118       aIeprotect
 0001:0021C12C       aSstreamS
 0001:0021C144       aRpfcleanings_0
 0001:0021C158       aGenstream_1
 0001:0021C16C       aNstreamnameidx
 0001:0021C19C       aPbfilterblob
 0001:0021C1AC       aArscanstatus
 0001:0021C1BC       aDwadvstatus0x1
 0001:0021C1D8       aFilespynetrepo
 0001:0021C240       aBootrpfsamples
 0001:0021C25C       aPresource
 0001:0021C268       aCoreNullptr
 0001:0021C278       aBasereport
 0001:0021C284       a0Ret
 0001:0021C290       aSp
 0001:0021C294       aPwrapperNull
 0001:0021C2A8       aEexpectedtypeI
 0001:0021C2D4       aSpSpynetextrad
 0001:0021C2E8       aSpSpynettype
 0001:0021C2F8       aSignatureDis_0
 0001:0021C328       aSignatureEnabl
 0001:0021C34C       aSignatureDisab
 0001:0021C370       aSignatureMatch
 0001:0021C39C       aSignatureEna_0
 0001:0021C3C8       aPwrapperGetsig
 0001:0021C3E8       aFalseLNegative
 0001:0021C41C       aNullptrPwrappe
 0001:0021C458       aMpscan_parsesp
 0001:0021C4E8       aSpSpynetrespon
 0001:0021C4FC       aSpSpynetbondre
 0001:0021C518       aAmcoreMpeng_34
 0001:0021C55C       aNullptrDynamic
 0001:0021C590       aAmcoreMpeng_35
 0001:0021C5D8       aIndex0_0
 0001:0021C5E8       aIstoryTelemetr
 0001:0021C60C       aI_10
 0001:0021C610       aI_11
 0001:0021C618       aSpEnginecontex
 0001:0021C62C       a0MemcmpSpScani
 0001:0021C660       aSpEnumcontext
 0001:0021C674       aSpEnginecont_0
 0001:0021C690       a0Reinterpret_c
 0001:0021C6D8       a0Reinterpret_0
 0001:0021C720       aPreOriginalsp
 0001:0021C738       aPreOriginalspE
 0001:0021C794       aUberlistentry
 0001:0021C7A4       aPuberctxPpersi
 0001:0021C7C4       aPuberctxScanre
 0001:0021C7DC       aPuberctx
 0001:0021C7E8       aPuberctxPlates
 0001:0021C804       aPuberctxResult
 0001:0021C820       aPuberctxPconfi
 0001:0021C838       aPuberctxLoadre
 0001:0021C850       aNullPuberctxPl
 0001:0021C86C       aQuick
 0001:0021C874       aFull_0
 0001:0021C87C       aPuberctxPlower
 0001:0021C890       aNullPuberctxPc
 0001:0021C8AC       aSfcbuild
 0001:0021C8B8       aDirected
 0001:0021C8C4       aResource
 0001:0021C8D0       aCurrentresults
 0001:0021C8E0       aPuberctxPper_0
 0001:0021C8FC       aPuberctxPcon_0
 0001:0021C910       aPuberctxPlow_0
 0001:0021C928       aMp_scansource_
 0001:0021C998       aSpEnginecont_1
 0001:0021C9DC       aInvalidBmItemH
 0001:0021C9FC       aPreSp
 0001:0021CA0C       aSpEvent
 0001:0021CA18       aFirsteventPenu
 0001:0021CA3C       aPstoredresults
 0001:0021CA4C       aPresultsset
 0001:0021CA58       aPenumevent
 0001:0021CA68       aSpEventMpevent
 0001:0021CAB8       aPuberctxG_pres
 0001:0021CAE8       aPenumeventOnli
 0001:0021CB1C       aPenumeventOn_0
 0001:0021CB4C       aMpeventtype__0
 0001:0021CB84       aMpeventtype__1
 0001:0021CBC0       aSpEventMpeve_0
 0001:0021CC08       aMpeventtype_sc
 0001:0021CC44       a0MemcmpSpSca_0
 0001:0021CC7C       aUberlistentryC
 0001:0021CC98       aMpeventtype__3
 0001:0021CD10       aMpeventtype__2
 0001:0021CD94       aG_ubercontex_0
 0001:0021CDA4       aPresultslist
 0001:0021CDB4       aUberlistentr_0
 0001:0021CDD4       aG_cuberconte_0
 0001:0021CDE8       aPthreatNumbe_1
 0001:0021CE38       aPdest
 0001:0021CE40       aPnewstored
 0001:0021CE4C       aPthreatNumbe_0
 0001:0021CE88       aBugNullScan_tR
 0001:0021CEAC       aPsrc
 0001:0021CEB4       aBugInvalidUber
 0001:0021CEF4       aBugNullUberCon
 0001:0021CF1C       aHasactionattem
 0001:0021CF38       aPresourcePreso
 0001:0021CF58       aBugInvalidWork
 0001:0021CF90       aPuberctxStatis
 0001:0021CFB4       aPuberctxPscans
 0001:0021CFC8       aCounters_stats
 0001:0021CFD8       a0Dwthreatstatu
 0001:0021D010       aResource_0
 0001:0021D024       aQuick_0
 0001:0021D030       aCustom
 0001:0021D040       aFull_1
 0001:0021D04C       aReturnCode
 0001:0021D068       aBugThreatdata_
 0001:0021D0D8       aUnsuccessfulSc
 0001:0021D0FC       aNullPscanout
 0001:0021D110       aNullPscanin
 0001:0021D120       aCbcopysizeCbsc
 0001:0021D138       aCbcopysizeSize
 0001:0021D158       aCbcopysizeCb_0
 0001:0021D170       aFailedGetcache
 0001:0021D1AC       aG_ubercontexts
 0001:0021D1C8       a0G_cubercontex
 0001:0021D1E0       a0G_ubercontext
 0001:0021D1F4       aG_cubercontext
 0001:0021D20C       aSoftwareMic_32
 0001:0021D234       aAmcoreMpeng_27
 0001:0021D268       aCurrentpackern
 0001:0021D28C       aUnknownUrl
 0001:0021D2A4       aVolume
 0001:0021D2B4       aIsinternalattr
 0001:0021D2E4       aStream
 0001:0021D2EC       aIoavstream_0
 0001:0021D304       aAmcoreMpeng_36
 0001:0021D340       aUserdata
 0001:0021D34C       aMap
 0001:0021D350       aScandata
 0001:0021D35C       aGpersobjects
 0001:0021D36C       a016llx
 0001:0021D37C       aS_016llx_S
 0001:0021D398       aMetadata
 0001:0021D3A8       aScanreason_mpb
 0001:0021D4C8       aScandataThreat
 0001:0021D4E8       aCthreats
 0001:0021D4F4       aLofi_resources
 0001:0021D508       aSoad_pscandata
 0001:0021D558       aThreat_resourc
 0001:0021D56C       aPid08x
 0001:0021D580       aExtended_strea
 0001:0021D714       aAmisuacrequest
 0001:0021D73C       aAmsiuacautoele
 0001:0021D764       aAmsiuacexeappn
 0001:0021D788       aAmsiuactrusted
 0001:0021D7B0       aAmsiuactype
 0001:0021D7C8       aAmsiuaccomserv
 0001:0021D7F8       aAmsiuaccomrequ
 0001:0021D820       aAmsiuacexecmdl
 0001:0021D844       aAmsiuacexedllp
 0001:0021D86C       aAmsiuacmsiprod
 0001:0021D890       aAmsiuacmsivers
 0001:0021D8B4       aAmsiuaccomclsi
 0001:0021D8D4       aAmsiuacmsiacti
 0001:0021D8F8       aAmsiuacmsipack
 0001:0021D924       aAmsiuacmsipa_0
 0001:0021D954       aAmsiuacmsilang
 0001:0021D97C       aAmsiuacmsimanu
 0001:0021D9AC       aWsD
 0001:0021D9B8       aAmsiuacmsiup_1
 0001:0021D9E8       aAmsiuacmsiupda
 0001:0021DA14       aAmsiuacmsiup_0
 0001:0021DA38       aAmsiuacpkappap
 0001:0021DA60       aAmsiuacpkappcm
 0001:0021DA88       aAmsiuacaxpath
 0001:0021DAA4       aAmsiuacaxurl
 0001:0021DAC0       aScandataAmsiua
 0001:0021DB18       aScandataAmsi_0
 0001:0021DB64       aAmsiuacpkappfa
 0001:0021DB8C       aAmsiuacpkapp_0
 0001:0021DBB0       aScandataAmsi_1
 0001:0021DC00       aScandataAmsi_2
 0001:0021DC48       aAmisuacthreatr
 0001:0021DC80       aSId
 0001:0021DC8C       aAmisuaclofires
 0001:0021DCC0       aNewmap
 0001:0021DCC8       aScriptid
 0001:0021DCDC       aReferral
 0001:0021DCF0       aAmsiid
 0001:0021DD00       aGenstreamid
 0001:0021DD18       aAmsiedgeall
 0001:0021DD30       aAmsiuacid
 0001:0021DD44       aVolumename
 0001:0021DD5C       aIoavid
 0001:0021DD6C       aLofivname
 0001:0021DD80       aInternalattrib
 0001:0021DDB0       aScandataLofida
 0001:0021DDD0       aThreatvname
 0001:0021DDE8       aStringtoadd
 0001:0021DDF4       aCchstringtoadd
 0001:0021DE04       aInternalattr_0
 0001:0021DE34       aLuatrigger
 0001:0021DE50       a0Pcchattribu_0
 0001:0021DEA0       aBuffer
 0001:0021DEA8       a0StringtoaddCc
 0001:0021DED0       a0Pcchattribute
 0001:0021DF00       aHexstring
 0001:0021DF0C       aOutbufcount0
 0001:0021DF40       aAmcoreMpeng_26
 0001:0021DF70       aEErr_mp_no_err
 0001:0021DF88       aHJA1IImnullPda
 0001:0021DFA8       aAmcoreMpeng_37
 0001:0021DFDC       aNullM_phimp
 0001:0021DFFC       aAcrord32_exe
 0001:0021E018       aPpt
 0001:0021E020       aPptx
 0001:0021E02A       aP_9
 0001:0021E02C       aPtm
 0001:0021E038       aMsaccess_exe
 0001:0021E054       aPdf_0
 0001:0021E060       aPowerpoint_exe
 0001:0021E080       aSystemrootSysw
 0001:0021E0AC       aMdb
 0001:0021E0B4       aAccdb
 0001:0021E0C4       aSystemrootSy_8
 0001:0021E0F0       aProgramfiles_4
 0001:0021E130       aProgramfiles_5
 0001:0021E180       aProgramfiles_2
 0001:0021E1C8       aProgramfiles_3
 0001:0021E214       aProgramfiles_9
 0001:0021E250       aProgramfile_10
 0001:0021E298       aProgramfiles_6
 0001:0021E2E0       aProgramfiles_7
 0001:0021E338       aProgramfilesRe
 0001:0021E380       aProgramfile_12
 0001:0021E3D4       aProgramfilesDv
 0001:0021E408       aProgramfile_11
 0001:0021E444       aProgramfile_15
 0001:0021E480       aProgramfile_16
 0001:0021E4C4       aProgramfile_13
 0001:0021E508       aProgramfile_14
 0001:0021E550       aProgramfile_19
 0001:0021E598       aProgramfile_20
 0001:0021E5EC       aProgramfile_17
 0001:0021E620       aProgramfile_18
 0001:0021E660       aWindirApppatch
 0001:0021E684       aWindirFonts
 0001:0021E6A4       aProgramfile_21
 0001:0021E6E8       aProgramfile_22
 0001:0021E730       aProgramfiles_8
 0001:0021E758       aSystemdriveBoo
 0001:0021E780       aSystemrootSy_9
 0001:0021E7C0       a_exe_dll_ocx_0
 0001:0021EC78       aG_moacenabledv
 0001:0021ECC0       aAmcoreMpeng_16
 0001:0021ECF4       a0BadFeatureIdT
 0001:0021ED28       aMpdisablertp_0
 0001:0021EDA8       aMpadlfallbackd
 0001:0021EDE0       aMpusesha1onlyf
 0001:0021EE20       aMpmapswdodetec
 0001:0021EE6C       aMprtpturnonint
 0001:0021EE94       aFfrdisable
 0001:0021EEAC       aPendingplatfor
 0001:0021EED8       aMpssloptions
 0001:0021EEF4       aEndoflife
 0001:0021EF08       aMapsurl
 0001:0021EF18       aAdlerrorignore
 0001:0021EF40       aMpenablebacken
 0001:0021EF8C       aMpenablemapsla
 0001:0021EFC4       aBetaplatform
 0001:0021EFE0       aMpdeviceidthro
 0001:0021F024       aMpmapsnumthrea
 0001:0021F04C       aMpmapsnumthr_0
 0001:0021F070       aMpusenewspynet
 0001:0021F098       aMpbatchsamples
 0001:0021F0C0       aMpsamplesubm_2
 0001:0021F108       aMpsamplesubm_3
 0001:0021F158       aMpsamplesubm_0
 0001:0021F1A0       aMpsamplesubm_1
 0001:0021F1F4       aMpdisablesxspa
 0001:0021F224       aMpdisablesigup
 0001:0021F260       aMpsampleblocku
 0001:0021F2A0       aMprecapinterva
 0001:0021F2CC       aMpdisablenetwo
 0001:0021F304       aMpcatchupquick
 0001:0021F338       aMpdisablewdofr
 0001:0021F36C       aMpdisablexboxa
 0001:0021F3A0       aMpdisablemapsu
 0001:0021F3F4       aMpfastsigupdat
 0001:0021F424       aMpcatchupqui_0
 0001:0021F460       aMpdisableadvan
 0001:0021F490       aMpdisablenet_0
 0001:0021F4C0       aNullPnameddata
 0001:0021F4DC       aMpfolderguardd
 0001:0021F518       aMpfolderguar_0
 0001:0021F560       a0ImpossibleDef
 0001:0021F57C       aMapsurl_Ws
 0001:0021F588       aPre0
 0001:0021F594       aZ_0
 0001:0021F5B0       aSystem????????
 0001:0021F60C       aSystem_3
 0001:0021F620       aQuick?????????
 0001:0021F67C       aQuick_1
 0001:0021F68C       aAmcoreMpeng_38
 0001:0021F6C0       aMore0
 0001:0021F6D0       aResource??????
 0001:0021F730       aResource_1
 0001:0021F744       aPcbblockNull
 0001:0021F758       aPconfigNull
 0001:0021F768       aPresultsNull
 0001:0021F77C       aPblockNull
 0001:0021F78C       aGpersresults
 0001:0021F79C       aUbercontext_0
 0001:0021F7A8       aPblock
 0001:0021F7B0       aPcbblock
 0001:0021F7BC       aScanid
 0001:0021F7C4       aStats
 0001:0021F7CC       aNewresults
 0001:0021F7D8       aGpersresultsNu
 0001:0021F7F0       aPcurrentoffset
 0001:0021F800       aPthreatNumbe_2
 0001:0021F82C       aBlock0
 0001:0021F838       aCbblock0
 0001:0021F848       aEnumhandle
 0001:0021F854       aResultheader
 0001:0021F864       aIPthreatNumber
 0001:0021F890       aPersistedresul
 0001:0021F8A4       aPenumhandle
 0001:0021F8B0       a__enumhandle
 0001:0021F8C0       aData1
 0001:0021F8C8       aData2
 0001:0021F8D0       aFileinarchive0
 0001:0021F8EC       aCbheader0Phead
 0001:0021F910       aCbdata0PdataNu
 0001:0021F930       aZCfjo8kt6SS
 0001:0021F942       aT_14
 0001:0021F944       aArtEngineQuick
 0001:0021F9B8       aLastquickscant
 0001:0021F9DC       aAmcoreMpeng_39
 0001:0021FA10       aNullptrNamewNu
 0001:0021FA40       aStopEngineQuic
 0001:0021FAAC       aRtpstarttime
 0001:0021FAC8       aLastofflinesca
 0001:0021FB08       aAmcoreMpeng_40
 0001:0021FB3C       aAmcoreMpeng_25
 0001:0021FB70       aSpNumberofexpl
 0001:0021FBC8       aFriendlypath
 0001:0021FBD8       aPthreatnotfoun
 0001:0021FBEC       aPrePuberctx
 0001:0021FC00       aAwszwebfileres
 0001:0021FC40       aRes
 0001:0021FC44       aLum_uid_no_u_0
 0001:0021FC6C       aSetcurrentuser
 0001:0021FCA0       aPresmgrctxGlob
 0001:0021FCCC       aLum_uid_no_use
 0001:0021FCEC       aAvas_postsigup
 0001:0021FD10       aBootsectorscan
 0001:0021FD60       aSetcurrentus_0
 0001:0021FD8C       aFullpath
 0001:0021FDA0       a_C_0
 0001:0021FDB8       aBootsectorsc_0
 0001:0021FE04       aC_1
 0001:0021FE10       aNotAvailable
 0001:0021FE2C       aSpConfig
 0001:0021FE38       aQuickscanresul
 0001:0021FE68       aNullptrPdata
 0001:0021FE7C       a0Cbbuffersize
 0001:0021FE90       aScansHistoryCa
 0001:0021FEC8       aAmcoreMpeng_41
 0001:0021FEFC       aEntry_m_resour
 0001:0021FF18       aSpecialfolderN
 0001:002207F8       aCboffsetCbbuff
 0001:00220814       aEntry_m_schema
 0001:0022082C       aRecursiveFile
 0001:0022084C       aNorecursiveFil
 0001:00220870       aSpecialfolde_0
 0001:00221284       a?_5
 0001:00221288       aNullptrSp
 0001:00221298       aNullptrSpConfi
 0001:002212B0       aResources_size
 0001:002212C4       aNullptrKgetkta
 0001:002212E0       aSfc_action_bui
 0001:00221344       a0Globalconfig_
 0001:0022135C       aNullptrSpSfcac
 0001:00221378       aSfc_action_b_0
 0001:002213B8       aAmcoreMpeng_42
 0001:002213F4       aPeheaderinfo
 0001:00221404       aNullptrAwrappe
 0001:00221418       aThreatdata_num
 0001:00221468       aWaitfordssresp
 0001:002214C4       aAttemptedSampl
 0001:002214FC       aSampleSubmis_1
 0001:00221530       aBugPcallback
 0001:00221544       aWsUI64u
 0001:00221560       aSampleSubmis_2
 0001:00221598       aUllsamplesubmi
 0001:002215C4       aAv_fullsyste_0
 0001:002215E8       aAv_fullsystems
 0001:002215FC       aAs_fullsyste_0
 0001:00221620       aAs_fullsystems
 0001:00221634       aAvas_mainten_2
 0001:0022166C       aAvas_mainten_1
 0001:00221688       aAvas_fullsys_0
 0001:002216B0       aAvas_fullsyste
 0001:002216C4       aAv_qscan_use_0
 0001:002216E0       aAv_qscan_user
 0001:002216F0       aAs_qscan_use_0
 0001:0022170C       aAs_qscan_user
 0001:0022171C       aAvas_mainten_0
 0001:00221758       aAvas_maintenan
 0001:00221778       aAvas_qscan_u_0
 0001:00221798       aAvas_qscan_use
 0001:002217A8       aAv_qscan_mac_0
 0001:002217CC       aAv_qscan_machi
 0001:002217E0       aAs_qscan_mac_0
 0001:00221804       aAs_qscan_machi
 0001:00221818       aAvas_qscan_m_0
 0001:00221840       aAvas_qscan_mac
 0001:00221864       aPscan
 0001:00221870       a00000000000000
 0001:002218C4       aAmcoreMpeng_43
 0001:00221910       aStreamContai_0
 0001:00221940       aStream_attri_2
 0001:00221970       aStream_attri_3
 0001:002219B4       aStream_attri_1
 0001:002219E8       aStream_attri_4
 0001:00221A30       aStream_attri_5
 0001:00221A78       aStream_attri_6
 0001:00221AD0       aStream_attri_7
 0001:00221B18       aStream_attri_8
 0001:00221B60       aStream_attri_9
 0001:00221B90       aStream_attr_10
 0001:00221BE0       aStream_attr_11
 0001:00221C2C       aStream_attr_12
 0001:00221C64       aStream_attr_13
 0001:00221C98       aStream_attr_14
 0001:00221CC4       aStream_attr_15
 0001:00221CF8       aStream_attr_16
 0001:00221D30       aStream_attr_17
 0001:00221D70       aStream_attr_18
 0001:00221DA8       aStream_attr_19
 0001:00221DE4       aStream_attr_20
 0001:00221E18       aStream_attr_21
 0001:00221E60       aStream_attr_22
 0001:00221EA0       aStream_attr_23
 0001:00221EE0       aStream_attr_24
 0001:00221F0C       aStream_attr_25
 0001:00221F4C       aStream_attr_26
 0001:00221F7C       aStream_attr_27
 0001:00221FB0       aStream_attr_28
 0001:00221FF0       aStream_attr_29
 0001:00222050       aStream_attr_30
 0001:00222090       aStream_attr_31
 0001:002220D8       aStream_attr_32
 0001:00222128       aStream_attr_33
 0001:00222180       aStream_attr_34
 0001:002221D8       aStream_attr_35
 0001:00222220       aStream_attr_36
 0001:00222270       aStream_attr_37
 0001:002222B4       aStream_attr_38
 0001:002222F0       aStream_attr_39
 0001:00222324       aStream_attr_40
 0001:00222360       aStream_attr_41
 0001:00222398       aStream_attr_42
 0001:002223D0       aStream_attr_43
 0001:0022240C       aStream_attr_44
 0001:00222448       aStream_attr_45
 0001:00222484       aStream_attr_46
 0001:002224C0       aStream_attr_47
 0001:00222510       aStream_attr_48
 0001:00222564       aStream_attr_49
 0001:002225A0       aStream_attr_50
 0001:002225E8       aStream_attr_51
 0001:00222638       aStream_attr_52
 0001:00222680       aStream_attr_53
 0001:002226C8       aStream_attr_54
 0001:00222714       aStream_attr_55
 0001:0022274C       aStream_attr_56
 0001:00222788       aStream_attr_57
 0001:002227E0       aStream_attr_58
 0001:00222824       aStream_attr_59
 0001:00222868       aStream_attr_60
 0001:002228B0       aStream_attr_61
 0001:00222900       aStream_attr_62
 0001:00222950       aStream_attr_63
 0001:002229A8       aStream_attr_64
 0001:002229F0       aStream_attr_65
 0001:00222A38       aStream_attr_66
 0001:00222A88       aStream_attr_67
 0001:00222AE0       aStream_attr_68
 0001:00222B30       aEsct_default
 0001:00222B4C       aEsct_ieprotect
 0001:00222B6C       aStream_attr_69
 0001:00222BA0       aStream_attr_70
 0001:00222BEC       aEsct_regvalue
 0001:00222C08       aEsct_genericst
 0001:00222C30       aEsct_amsi
 0001:00222C44       aEsct_bootsecto
 0001:00222C68       aNtainerdatahex
 0001:00222C88       aEsct_amsiuac
 0001:00222CA4       aEsct_rew
 0001:00222CB8       a02x_0
 0001:00222CC4       aAmsi_uac_reque
 0001:00222CF4       aNtainerdatastr
 0001:00222D18       aAmsi_uac_
 0001:00222D2C       aAmsi_uac_type
 0001:00222D48       aAmsi_uac_exe_a
 0001:00222D74       aAmsi_uac_trust
 0001:00222D9C       aAmsi_uac_auto_
 0001:00222DC8       aAmsi_uac_com_s
 0001:00222DFC       aAmsi_uac_com_r
 0001:00222E2C       aAmsi_uac_exe_c
 0001:00222E58       aAmsi_uac_exe_d
 0001:00222E84       aAmsi_uac_msi_p
 0001:00222EB8       aAmsi_uac_msi_v
 0001:00222EE4       aAmsi_uac_com_c
 0001:00222F0C       aAmsi_uac_msi_a
 0001:00222F34       aAmsi_uac_msi_0
 0001:00222F68       aAmsi_uac_msi_1
 0001:00222FA0       aAmsi_uac_msi_l
 0001:00222FCC       aAmsi_uac_msi_m
 0001:00223000       aAmsi_uac_packa
 0001:0022303C       aAmsi_uac_pac_0
 0001:00223078       aAmsi_uac_ax_in
 0001:002230A8       aAmsi_uac_ax_so
 0001:002230DC       aAmsi_uac_pac_1
 0001:00223118       aAmsi_uac_pac_2
 0001:00223150       aRegistryMach_1
 0001:00223198       aRegistryMach_0
 0001:00223200       aIrp_mj_create
 0001:0022321C       aIrp_mj_create_
 0001:00223250       aIrp_mj_write
 0001:0022326C       aIrp_mj_query_i
 0001:002232A0       aIrp_mj_close
 0001:002232BC       aIrp_mj_read
 0001:002232D4       aIrp_mj_set_ea
 0001:002232F0       aIrp_mj_flush_b
 0001:0022331C       aIrp_mj_set_inf
 0001:0022334C       aIrp_mj_query_e
 0001:0022336C       aIrp_mj_directo
 0001:002233A0       aIrp_mj_file_sy
 0001:002233D8       aIrp_mj_query_v
 0001:00223418       aIrp_mj_set_vol
 0001:00223454       aIrp_mj_shutdow
 0001:00223474       aIrp_mj_lock_co
 0001:0022349C       aIrp_mj_device_
 0001:002234C8       aIrp_mj_interna
 0001:00223508       aIrp_mj_query_s
 0001:00223534       aIrp_mj_set_sec
 0001:0022355C       aIrp_mj_cleanup
 0001:0022357C       aIrp_mj_creat_0
 0001:002235AC       aIrp_mj_devic_0
 0001:002235D8       aIrp_mj_query_q
 0001:00223600       aIrp_mj_power
 0001:0022361C       aIrp_mj_system_
 0001:00223648       aIrp_mj_pnp_pow
 0001:0022366C       aIrp_mj_maximum
 0001:0022369C       aIrp_mj_set_quo
 0001:002236C0       aIrp_mj_pnp
 0001:002236D8       aC_2
 0001:002236E0       aDeviceHarddi_5
 0001:00223724       aAlureon
 0001:00223734       aHal_dll
 0001:00223754       aFastiocheckifp
 0001:00223780       aFastioquerybas
 0001:002237AC       aFastioquerysta
 0001:002237DC       aFastioread
 0001:002237F4       aFastiowrite
 0001:0022380C       aFastiounlockal
 0001:0022382C       aFastiounlock_0
 0001:00223858       aFastiolock
 0001:00223870       aFastiounlocksi
 0001:00223898       aReleasefilefor
 0001:002238D4       aFastiodetachde
 0001:002238FC       aFastiodeviceco
 0001:00223924       aAcquirefilefor
 0001:00223960       aMdlread
 0001:00223970       aMdlreadcomplet
 0001:00223990       aFastioquerynet
 0001:002239C8       aAcquireformodw
 0001:002239F0       aFastioreadcomp
 0001:00223A1C       aFastiowritecom
 0001:00223A48       aPreparemdlwrit
 0001:00223A68       aMdlwritecomple
 0001:00223A8C       aFastioqueryope
 0001:00223AAC       aReleaseformodw
 0001:00223AD4       aMdlreadcompl_0
 0001:00223B08       aMdlwritecomp_0
 0001:00223B40       aDevice_1
 0001:00223B50       aAcquireforccfl
 0001:00223B74       aReleaseforccfl
 0001:00223B98       aObquerynamestr
 0001:00223BAC       aDirectory
 0001:00223BC0       aDevice_lo
 0001:00223BEC       aNtkrnlmp_exe
 0001:00223C08       aNtkrnlpa_exe
 0001:00223C24       aNtoskrnl_exe_0
 0001:00223C40       aSystemroot_2
 0001:00223C58       aSystemroot_3
 0001:00223C70       aNtkrpamp_exe
 0001:00223C8C       aC_3
 0001:00223C94       aHiber_
 0001:00223CA4       aDrivers
 0001:00223CB8       aDump_
 0001:00223CD4       aIdtr_lo
 0001:00223CDC       aIdtr_hi
 0001:00223CE4       aNtoskrnl_exe_1
 0001:00223D44       aPcount_lo
 0001:00223D50       aCWindows
 0001:00223D68       aCWindowsSyst_3
 0001:00223DA4       aWin32_psloaded
 0001:00223DC0       aSsdt_keservice
 0001:00223DE0       aWin32_kernelad
 0001:00223E08       aTriggerHsHsHsH
 0001:00223E20       aDetectioninfo
 0001:00223E30       aArgs_0
 0001:00223E48       aGetdevicelist
 0001:00223E58       aGetmodulelist
 0001:00223E68       aGetdriverlist
 0001:00223E78       aGetmemoryasstr
 0001:00223E8C       aGetdiskdevicep
 0001:00223EA8       aRkpattscan
 0001:00223EB4       aGetmoduleforad
 0001:00223EC8       aEntrypoint
 0001:00223ED4       aGetkernelpriva
 0001:00223EFC       aDllbase
 0001:00223F04       aImage_scn_cnt_
 0001:00223F18       aFulldllname
 0001:00223F24       aBasedllname
 0001:00223F30       a__moduleptr
 0001:00223F3C       aIskslavailable
 0001:00223F4C       aStartioaddress
 0001:00223F5C       aDriverentry
 0001:00223F68       aValidatememory
 0001:00223F7C       aGetpesection
 0001:00223F8C       aDrivername_0
 0001:00223F98       a__driverptr
 0001:00223FA4       aObjectaddress
 0001:00223FB4       aObjectname
 0001:00223FC0       a__deviceptr
 0001:00223FCC       aGetdriverobjec
 0001:00223FDC       aGetirpaddress
 0001:00223FEC       aObjectpath
 0001:00223FF8       aParsedevicecha
 0001:0022401C       aKernel_drivero
 0001:00224030       a__kernel_modul
 0001:00224044       a__kernel_devic
 0001:00224058       a__kernel_drive
 0001:0022406C       aKernel_module
 0001:0022407C       aKernel_devobj
 0001:0022408C       aReportunknown
 0001:0022409C       aHsWsHs
 0001:002240B0       aDetectionname
 0001:002240C0       aGeneratetestde
 0001:002240D8       aGeneratedetect
 0001:002240EC       aTestdetection
 0001:002240FC       aDetectiondata
 0001:0022410C       aInvalidthreat
 0001:0022411C       aSIqxgSDVDetect
 0001:00224144       aTriggerkernels
 0001:00224158       aTesttrigger
 0001:00224164       aSirefeftrigger
 0001:00224174       aInjectedmodule
 0001:0022418C       aAlureona2g
 0001:00224198       aInjectedmodu_0
 0001:002241B0       aSvchost
 0001:002241C0       aServices
 0001:002241D4       aExplorer_exe
 0001:002241F0       aKnowndlls32Msw
 0001:00224224       aExplorer
 0001:00224238       aKnowndllsMswso
 0001:00224278       aArhstr_0
 0001:00224288       aArhstr
 0001:00224290       aArmemscan
 0001:002242A4       aPid_nA
 0001:002242B4       aPid_D
 0001:002242C4       aRead_access_de
 0001:002242FC       aS_D_dmp
 0001:00224314       aRb
 0001:0022431C       aS_D_info
 0001:00224334       a_info
 0001:00224354       SystemTime
 0001:00224374       a_LsLs
 0001:002243A0       aSoftwareMic_33
 0001:00224424       aNanoserver
 0001:0022443C       aObjectlength
 0001:00224458       aBcryptfinishha
 0001:0022446C       aBcrypthashdata
 0001:0022447C       aHashdigestleng
 0001:002244A0       aR
 0001:002248A8       aLsLs_0
 0001:002249B8       aSubExpressionC
 0001:002249DC       aLookAheadAsser
 0001:00224A08       aRequestedType
 0001:00224A1C       aActualType
 0001:00224A2C       aRecursionSubEx
 0001:00224A5C       aReferenceToNon
 0001:00224A7C       aLu_0
 0001:00224A80       aLd
 0001:00224A84       aLu_1
 0001:00224A88       aPp
 0001:00224A8C       aEe
 0001:00224A90       aLd_0
 0001:00224A94       a0123456789ab_0
 0001:00224AB0       a0123456789Ee
 0001:00224AC0       aAddressInUse
 0001:00224AD0       aAddressFamilyN
 0001:00224AF0       aArgumentOutOfD
 0001:00224B08       aArgumentListTo
 0001:00224B20       aAlreadyConnect
 0001:00224B34       aAddressNotAvai
 0001:00224B4C       aBrokenPipe
 0001:00224B58       aBadMessage
 0001:00224B64       aBadFileDescrip
 0001:00224B78       aBadAddress
 0001:00224B84       aConnectionRese
 0001:00224B98       aConnectionRefu
 0001:00224BAC       aConnectionAlre
 0001:00224BCC       aConnectionAbor
 0001:00224BE0       aExecutableForm
 0001:00224BF8       aDirectoryNotEm
 0001:00224C0C       aDestinationAdd
 0001:00224C2C       aCrossDeviceLin
 0001:00224C40       aFunctionNotSup
 0001:00224C58       aFilenameTooLon
 0001:00224C6C       aFileTooLarge
 0001:00224C7C       aFileExists
 0001:00224C88       aInappropriateI
 0001:00224CAC       aIllegalByteSeq
 0001:00224CC4       aIdentifierRemo
 0001:00224CD8       aHostUnreachabl
 0001:00224CEC       aIsADirectory
 0001:00224CFC       aIoError
 0001:00224D08       aInvalidSeek
 0001:00224D18       aNetworkUnreach
 0001:00224D2C       aNetworkReset
 0001:00224D3C       aNetworkDown
 0001:00224D4C       aMessageSize
 0001:00224D5C       aNoLockAvailabl
 0001:00224D70       aNoLink
 0001:00224D78       aNoChildProcess
 0001:00224D8C       aNoBufferSpace
 0001:00224D9C       aNoSpaceOnDevic
 0001:00224DB0       aNoProtocolOpti
 0001:00224DC4       aNoMessage
 0001:00224DD0       aNoMessageAvail
 0001:00224DE8       aNoSuchFileOrDi
 0001:00224E04       aNoSuchDevice
 0001:00224E14       aNoSuchDeviceOr
 0001:00224E30       aNoStreamResour
 0001:00224E44       aNotConnected
 0001:00224E54       aNotAStream
 0001:00224E64       aNotASocket
 0001:00224E74       aNotADirectory
 0001:00224E84       aOperationNotSu
 0001:00224E9C       aOperationInPro
 0001:00224EB4       aOperationCance
 0001:00224EC8       aNotSupported
 0001:00224ED8       aProtocolError
 0001:00224EE8       aPermissionDeni
 0001:00224EFC       aOwnerDead
 0001:00224F08       aOperationWould
 0001:00224F20       aStateNotRecove
 0001:00224F38       aResultOutOfRan
 0001:00224F4C       aReadOnlyFileSy
 0001:00224F64       aProtocolNotSup
 0001:00224F7C       aTooManyFilesOp
 0001:00224F9C       aTimedOut
 0001:00224FA8       aTextFileBusy
 0001:00224FB8       aStreamTimeout
 0001:00224FC8       aValueTooLarge
 0001:00224FD8       aTooManySymboli
 0001:00224FF8       aTooManyLinks
 0001:00225008       aTooManyFiles_0
 0001:0022501C       aWrongProtocolT
 0001:00225030       a0123456789ab_2
 0001:00225080       aJanJanuaryFebF
 0001:00225108       aSunSundayMonMo
 0001:00225160       aMDY
 0001:00225170       aBDHMSY
 0001:00225198       aIMSP
 0001:002251A8       aAmAmPmPm_0
 0001:002251B8       aXv
 0001:002251C0       a_0lf
 0001:002251C8       aDMY
 0001:002251D8       aHMS
 0001:002251E8       aVXVXvXvXvXVxVx
 0001:00225268       aSunSundayMon_0
 0001:00225318       aJanJanuaryFe_0
 0001:0022542C       aAmAmPmPm
 0001:00225454       a0123456789ab_1
 0001:00225474       a0123456789
 0001:00225480       a0123456789ab_3
 0001:002254D0       aCa
 0001:002254D8       aBg
 0001:002254E0       aAr
 0001:002254E8       aDe
 0001:002254F0       aDa
 0001:002254F8       aCs
 0001:00225500       aZhChs
 0001:00225510       aFi
 0001:00225518       aEs
 0001:00225520       aEn
 0001:00225528       aEl
 0001:00225530       aIs_1
 0001:00225538       aHu
 0001:00225540       aHe
 0001:00225548       aFr
 0001:00225550       aNl
 0001:00225558       aKo
 0001:00225560       aJa
 0001:00225568       aIt
 0001:00225570       aRo_0
 0001:00225578       aPt
 0001:00225580       aPl
 0001:00225588       aNo
 0001:00225590       aSq
 0001:00225598       aSk
 0001:002255A0       aHr_0
 0001:002255A8       aRu
 0001:002255B0       aUr
 0001:002255B8       aTr
 0001:002255C0       aTh
 0001:002255C8       aSv
 0001:002255D0       aSl_0
 0001:002255D8       aBe
 0001:002255E0       aUk
 0001:002255E8       aFa
 0001:002255F0       aLt_1
 0001:002255F8       aLv
 0001:00225600       aEt
 0001:00225608       aEu
 0001:00225610       aAz
 0001:00225618       aHy
 0001:00225620       aVi
 0001:00225628       aFo
 0001:00225630       aKa
 0001:00225638       aAf
 0001:00225640       aMk
 0001:00225648       aKy
 0001:00225650       aKk
 0001:00225658       aMs
 0001:00225660       aHi
 0001:00225668       aPa
 0001:00225670       aTt
 0001:00225678       aUz
 0001:00225680       aSw
 0001:00225688       aKn
 0001:00225690       aTe
 0001:00225698       aTa
 0001:002256A0       aGu
 0001:002256A8       aGl
 0001:002256B0       aMn
 0001:002256B8       aSa
 0001:002256C0       aMr
 0001:002256C8       aArSa
 0001:002256D4       aDiv
 0001:002256DC       aSyr
 0001:002256E4       aKok
 0001:002256EC       aCsCz
 0001:002256F8       aZhTw
 0001:00225704       aCaEs
 0001:00225710       aBgBg
 0001:0022571C       aEnUs
 0001:00225728       aElGr
 0001:00225734       aDeDe
 0001:00225740       aDaDk
 0001:0022574C       aHuHu
 0001:00225758       aHeIl
 0001:00225764       aFrFr
 0001:00225770       aFiFi
 0001:0022577C       aKoKr
 0001:00225788       aJaJp
 0001:00225794       aItIt
 0001:002257A0       aIsIs
 0001:002257AC       aPtBr
 0001:002257B8       aPlPl
 0001:002257C4       aNbNo
 0001:002257D0       aNlNl
 0001:002257DC       aSkSk
 0001:002257E8       aHrHr
 0001:002257F4       aRuRu
 0001:00225800       aRoRo
 0001:0022580C       aTrTr
 0001:00225818       aThTh
 0001:00225824       aSvSe
 0001:00225830       aSqAl
 0001:0022583C       aBeBy
 0001:00225848       aUkUa
 0001:00225854       aIdId
 0001:00225860       aUrPk
 0001:0022586C       aLtLt
 0001:00225878       aLvLv
 0001:00225884       aEtEe
 0001:00225890       aSlSi
 0001:0022589C       aAzAzLatn
 0001:002258B4       aHyAm
 0001:002258C0       aViVn
 0001:002258CC       aFaIr
 0001:002258D8       aXhZa
 0001:002258E4       aTnZa
 0001:002258F0       aMkMk
 0001:002258FC       aEuEs
 0001:00225908       aFoFo
 0001:00225914       aKaGe
 0001:00225920       aAfZa
 0001:0022592C       aZuZa
 0001:00225938       aMsMy
 0001:00225944       aSeNo
 0001:00225950       aMtMt
 0001:0022595C       aHiIn
 0001:00225968       aUzUzLatn
 0001:00225980       aSwKe
 0001:0022598C       aKyKg
 0001:00225998       aKkKz
 0001:002259A4       aGuIn
 0001:002259B0       aPaIn
 0001:002259BC       aBnIn
 0001:002259C8       aTtRu
 0001:002259D4       aMlIn
 0001:002259E0       aKnIn
 0001:002259EC       aTeIn
 0001:002259F8       aTaIn
 0001:00225A04       aCyGb
 0001:00225A10       aMnMn
 0001:00225A1C       aSaIn
 0001:00225A28       aMrIn
 0001:00225A34       aDivMv
 0001:00225A44       aSyrSy
 0001:00225A54       aKokIn
 0001:00225A64       aGlEs
 0001:00225A70       aArIq
 0001:00225A7C       aMiNz
 0001:00225A88       aNsZa
 0001:00225A94       aQuzBo
 0001:00225AA4       aEsMx
 0001:00225AB0       aEnGb
 0001:00225ABC       aDeCh
 0001:00225AC8       aZhCn
 0001:00225AD4       aNnNo
 0001:00225AE0       aNlBe
 0001:00225AEC       aItCh
 0001:00225AF8       aFrBe
 0001:00225B04       aAzAzCyrl
 0001:00225B1C       aSvFi
 0001:00225B28       aSrSpLatn
 0001:00225B40       aPtPt
 0001:00225B4C       aQuzEc
 0001:00225B5C       aUzUzCyrl
 0001:00225B74       aMsBn
 0001:00225B80       aSeSe
 0001:00225B8C       aEnAu_0
 0001:00225B98       aDeAt
 0001:00225BA4       aZhHk
 0001:00225BB0       aArEg
 0001:00225BBC       aSeFi
 0001:00225BC8       aSrSpCyrl
 0001:00225BE0       aFrCa
 0001:00225BEC       aEsEs
 0001:00225BF8       aDeLu
 0001:00225C04       aZhSg
 0001:00225C10       aArLy
 0001:00225C1C       aQuzPe
 0001:00225C2C       aHrBa
 0001:00225C38       aFrCh
 0001:00225C44       aEsGt
 0001:00225C50       aEnCa
 0001:00225C5C       aDeLi
 0001:00225C68       aZhMo
 0001:00225C74       aArDz
 0001:00225C80       aSmjNo
 0001:00225C90       aBsBaLatn
 0001:00225CA8       aFrLu
 0001:00225CB4       aEsCr
 0001:00225CC0       aEnNz
 0001:00225CCC       aEsPa
 0001:00225CD8       aEnIe
 0001:00225CE4       aArMa
 0001:00225CF0       aSmjSe
 0001:00225D00       aArTn
 0001:00225D0C       aSmaNo
 0001:00225D1C       aSrBaLatn
 0001:00225D34       aFrMc
 0001:00225D40       aSmaSe
 0001:00225D50       aSrBaCyrl
 0001:00225D68       aEsDo
 0001:00225D74       aEnZa
 0001:00225D80       aSmsFi
 0001:00225D90       aEsVe
 0001:00225D9C       aEnJm
 0001:00225DA8       aArOm
 0001:00225DB4       aSmnFi
 0001:00225DC4       aEsCo
 0001:00225DD0       aEnCb
 0001:00225DDC       aArYe
 0001:00225DE8       aArJo
 0001:00225DF4       aEsPe
 0001:00225E00       aEnBz
 0001:00225E0C       aArSy
 0001:00225E18       aEnZw
 0001:00225E24       aArLb
 0001:00225E30       aEsAr
 0001:00225E3C       aEnTt
 0001:00225E48       aEsCl
 0001:00225E54       aEnPh
 0001:00225E60       aArKw
 0001:00225E6C       aEsEc
 0001:00225E78       aEsPy
 0001:00225E84       aArBh
 0001:00225E90       aEsUy
 0001:00225E9C       aArAe
 0001:00225EA8       aEsHn
 0001:00225EB4       aEsSv
 0001:00225EC0       aEsBo
 0001:00225ECC       aArQa
 0001:00225ED8       aSr
 0001:00225EE0       aZhCht
 0001:00225EF0       aEsPr
 0001:00225EFC       aEsNi
 0001:00225F08       aArDz_0
 0001:00225F14       aArBh_0
 0001:00225F20       aArAe_0
 0001:00225F2C       aAfZa_0
 0001:00225F38       aArKw_0
 0001:00225F44       aArJo_0
 0001:00225F50       aArIq_0
 0001:00225F5C       aArEg_0
 0001:00225F68       aArOm_0
 0001:00225F74       aArMa_0
 0001:00225F80       aArLy_0
 0001:00225F8C       aArLb_0
 0001:00225F98       aArTn_0
 0001:00225FA4       aArSy_0
 0001:00225FB0       aArSa_0
 0001:00225FBC       aArQa_0
 0001:00225FC8       aBeBy_0
 0001:00225FD4       aAzAzLatn_0
 0001:00225FEC       aAzAzCyrl_0
 0001:00226004       aArYe_0
 0001:00226010       aCaEs_0
 0001:0022601C       aBsBaLatn_0
 0001:00226034       aBnIn_0
 0001:00226040       aBgBg_0
 0001:0022604C       aDeAt_0
 0001:00226058       aDaDk_0
 0001:00226064       aCyGb_0
 0001:00226070       aCsCz_0
 0001:0022607C       aDeLu_0
 0001:00226088       aDeLi_0
 0001:00226094       aDeDe_0
 0001:002260A0       aDeCh_0
 0001:002260AC       aEnBz_0
 0001:002260B8       aEnAu_1
 0001:002260C4       aElGr_0
 0001:002260D0       aDivMv_0
 0001:002260E0       aEnIe_0
 0001:002260EC       aEnGb_0
 0001:002260F8       aEnCb_0
 0001:00226104       aEnCa_0
 0001:00226110       aEnTt_0
 0001:0022611C       aEnPh_0
 0001:00226128       aEnNz_0
 0001:00226134       aEnJm_0
 0001:00226140       aEsAr_0
 0001:0022614C       aEnZw_0
 0001:00226158       aEnZa_0
 0001:00226164       aEnUs_0
 0001:00226170       aEsCr_0
 0001:0022617C       aEsCo_0
 0001:00226188       aEsCl_0
 0001:00226194       aEsBo_0
 0001:002261A0       aEsGt_0
 0001:002261AC       aEsEs_0
 0001:002261B8       aEsEc_0
 0001:002261C4       aEsDo_0
 0001:002261D0       aEsPa_0
 0001:002261DC       aEsNi_0
 0001:002261E8       aEsMx_0
 0001:002261F4       aEsHn_0
 0001:00226200       aEsSv_0
 0001:0022620C       aEsPy_0
 0001:00226218       aEsPr_0
 0001:00226224       aEsPe_0
 0001:00226230       aEuEs_0
 0001:0022623C       aEtEe_0
 0001:00226248       aEsVe_0
 0001:00226254       aEsUy_0
 0001:00226260       aFrBe_0
 0001:0022626C       aFoFo_0
 0001:00226278       aFiFi_0
 0001:00226284       aFaIr_0
 0001:00226290       aFrLu_0
 0001:0022629C       aFrFr_0
 0001:002262A8       aFrCh_0
 0001:002262B4       aFrCa_0
 0001:002262C0       aHeIl_0
 0001:002262CC       aGuIn_0
 0001:002262D8       aGlEs_0
 0001:002262E4       aFrMc_0
 0001:002262F0       aHuHu_0
 0001:002262FC       aHrHr_0
 0001:00226308       aHrBa_0
 0001:00226314       aHiIn_0
 0001:00226320       aItCh_0
 0001:0022632C       aIsIs_0
 0001:00226338       aIdId_0
 0001:00226344       aHyAm_0
 0001:00226350       aKkKz_0
 0001:0022635C       aKaGe_0
 0001:00226368       aJaJp_0
 0001:00226374       aItIt_0
 0001:00226380       aKyKg_0
 0001:0022638C       aKokIn_0
 0001:0022639C       aKoKr_0
 0001:002263A8       aKnIn_0
 0001:002263B4       aMkMk_0
 0001:002263C0       aMiNz_0
 0001:002263CC       aLvLv_0
 0001:002263D8       aLtLt_0
 0001:002263E4       aMsBn_0
 0001:002263F0       aMrIn_0
 0001:002263FC       aMnMn_0
 0001:00226408       aMlIn_0
 0001:00226414       aNlBe_0
 0001:00226420       aNbNo_0
 0001:0022642C       aMtMt_0
 0001:00226438       aMsMy_0
 0001:00226444       aPaIn_0
 0001:00226450       aNsZa_0
 0001:0022645C       aNnNo_0
 0001:00226468       aNlNl_0
 0001:00226474       aQuzBo_0
 0001:00226484       aPtPt_0
 0001:00226490       aPtBr_0
 0001:0022649C       aPlPl_0
 0001:002264A8       aRuRu_0
 0001:002264B4       aRoRo_0
 0001:002264C0       aQuzPe_0
 0001:002264D0       aQuzEc_0
 0001:002264E0       aSeSe_0
 0001:002264EC       aSeNo_0
 0001:002264F8       aSeFi_0
 0001:00226504       aSaIn_0
 0001:00226510       aSmaSe_0
 0001:00226520       aSmaNo_0
 0001:00226530       aSlSi_0
 0001:0022653C       aSkSk_0
 0001:00226548       aSmsFi_0
 0001:00226558       aSmnFi_0
 0001:00226568       aSmjSe_0
 0001:00226578       aSmjNo_0
 0001:00226588       aSrSpCyrl_0
 0001:002265A0       aSrBaLatn_0
 0001:002265B8       aSrBaCyrl_0
 0001:002265D0       aSqAl_0
 0001:002265DC       aSwKe_0
 0001:002265E8       aSvSe_0
 0001:002265F4       aSvFi_0
 0001:00226600       aSrSpLatn_0
 0001:00226618       aThTh_0
 0001:00226624       aTeIn_0
 0001:00226630       aTaIn_0
 0001:0022663C       aSyrSy_0
 0001:0022664C       aUkUa_0
 0001:00226658       aTtRu_0
 0001:00226664       aTrTr_0
 0001:00226670       aTnZa_0
 0001:0022667C       aViVn_0
 0001:00226688       aUzUzLatn_0
 0001:002266A0       aUzUzCyrl_0
 0001:002266B8       aUrPk_0
 0001:002266C4       aZhCn_0
 0001:002266D0       aZhCht_0
 0001:002266E0       aZhChs_0
 0001:002266F0       aXhZa_0
 0001:002266FC       aZhTw_0
 0001:00226708       aZhSg_0
 0001:00226714       aZhMo_0
 0001:00226720       aZhHk_0
 0001:0022672C       aZuZa_0
 0001:00226758       aAssignaturever
 0001:00226780       aError_4
 0001:0022678C       aIncomplete
 0001:002267A4       aEngineversio_1
 0001:002267C0       aAvsignaturever
 0001:002267E8       aTarget
 0001:002267F8       aSource_1
 0001:00226808       aError_5
 0001:00226814       aEntryid
 0001:00226834       aSoftwareinvent
 0001:00226858       aXmldumpobjectM
 0001:00226878       aXmldumpobjectH
 0001:00226894       aParentid
 0001:002268A8       aType_3
 0001:002268B4       aType_4
 0001:002268C0       aEntry
 0001:002268CC       aName_6
 0001:002268D8       aId_6
 0001:002268E0       aProductname_1
 0001:002268F8       aCompanyname_1
 0001:00226910       aProductversi_2
 0001:00226930       aLanguage_0
 0001:00226944       aMetadata_1
 0001:00226958       aSize_3
 0001:00226964       aPartialcrc1_1
 0001:0022697C       aPartialcrc2_1
 0001:00226994       aPartialcrc3_1
 0001:002269AC       aCrc32_2
 0001:002269B8       aSha256_3
 0001:002269C8       aMd5_3
 0001:002269D0       aLshashs_1
 0001:002269E0       aLshashl
 0001:002269F0       aIdentification
 0001:00226A10       aSha1_4
 0001:00226A2C       aFiledescriptio
 0001:00226A4C       aProductname_0
 0001:00226A64       aOriginalfilena
 0001:00226A88       aLegaltrademark
 0001:00226AA8       aLegalcopyright
 0001:00226AC8       aComments
 0001:00226ADC       aCrc3length
 0001:00226AF4       aPestatic_0
 0001:00226B08       aIatskip
 0001:00226B18       aCrc1
 0001:00226B24       aCrc2
 0001:00226B30       aCrc3
 0001:00226B3C       aPestatics
 0001:00226B50       aSection
 0001:00226B60       aEpsec_0
 0001:00226B6C       aArchitecture
 0001:00226B88       aKcrc1_1
 0001:00226B94       aKcrc2_1
 0001:00226BA0       aKcrc3_1
 0001:00226BAC       aFileversion_1
 0001:00226BC4       aComments_0
 0001:00226BD8       aCopyright
 0001:00226BEC       aTrademarks
 0001:00226C04       aOriginalfile_1
 0001:00226C28       aPe_1
 0001:00226C30       aFiledescript_1
 0001:00226C50       aInternalname_1
 0001:00226C6C       aX64
 0001:00226C74       aIa64
 0001:00226C80       aUnknown_8
 0001:00226C90       aX86_1
 0001:00226CA8       aInstaller
 0001:00226CCC       a04u02u02ut02u0
 0001:00226D10       a04u02u02ut02_0
 0001:00226D60       aCertificate_0
 0001:00226D78       aValidfrom_0
 0001:00226D8C       aValidto_0
 0001:00226D9C       aVerified_0
 0001:00226DB0       aSubject_1
 0001:00226DC0       aIssuer_2
 0001:00226DD0       aSerial_0
 0001:00226DE0       aFingerprint_0
 0001:00226DF8       aCertificate
 0001:00226E10       aIssuerfp
 0001:00226E24       aVersion_3
 0001:00226E34       aSigner_1
 0001:00226E44       aVersion_4
 0001:00226E54       aVerified_1
 0001:00226E68       aMissinginfo_0
 0001:00226E80       aNotsupported_0
 0001:00226E9C       aVerified_2
 0001:00226EB0       aFailed_0
 0001:00226EC0       aError_6
 0001:00226ECC       aSignature_1
 0001:00226EE0       aSigneddata
 0001:00226F08       aNtldr
 0001:00226F10       aMbr_0
 0001:00226F1C       aBootmgr
 0001:00226F34       aPartition_1
 0001:00226F4C       a_Physicaldri_0
 0001:00226F70       a_dam3
 0001:00226F78       aProcess_enab_0
 0001:00226F90       aProcess_deep_0
 0001:00226FA8       aKvbp
 0001:00226FB0       aProcess_hstr_0
 0001:00226FC8       aWsHasRestartDt
 0001:00226FF8       aWsHasRescanvmm
 0001:00227028       aGenunp_0
 0001:00227038       aGenunp
 0001:0022704C       aPe_attrib_Id
 0001:0022705C       aNamed_attrib_S
 0001:0022706C       aGenunp_1
 0001:00227078       aTryingToCloneS
 0001:002270A4       aTryingToWriteT
 0001:00227BC0       aDeepAnalysis_0
 0001:00227C20       aDisableApicall
 0001:00227C90       aExhaustiveHs_0
 0001:00227CF0       aDisableSehLimi
 0001:00227D54       aMppreemptivemu
 0001:00227DC4       aS_Id_couldbe_S
 0001:00227DE4       aS_couldbe_S_03
 0001:00227E00       aAms_dll
 0001:00227E10       aS_Id_03d
 0001:00227E1C       aS_03d
 0001:00227E24       aS_Id_03dSS
 0001:00227E34       aS_03dSS
 0001:00227E50       aVmmResizePredt
 0001:00227EF0       aNotEnoughDataA
 0001:00227F0C       aWriteFailed
 0001:00227F1C       aUnknownplatfor
 0001:00227F30       a0x02x
 0001:00227F38       aCorruptedStore
 0001:00227F48       a0x04x
 0001:00227F50       a0x08lx_0
 0001:00227FA8       aNoGlobalStorag
 0001:00227FC4       aInvalidName
 0001:00227FD4       aInvalidData
 0001:00227FE4       aInvalidEntry
 0001:00228084       aTooManyImpor_0
 0001:00228110       aCodebaseexeci
 0001:00228134       aCodebaseexecs
 0001:00228158       aIframerefi
 0001:00228178       aIframerefs
 0001:00228198       aClsidattachm_0
 0001:002281C0       aPartialexplo_0
 0001:002281E8       aInvalidlines
 0001:0022820C       aIframeexec
 0001:0022822C       aForm
 0001:00228240       aScriptsrc
 0001:0022825C       aPdfuri
 0001:00228274       aContentmisma_0
 0001:0022829C       aNscriptPdfhash
 0001:002282BC       aIframebo
 0001:002282D8       aUtf16le
 0001:002282F4       aFramehtmlUtf16
 0001:00228328       aDisabling
 0001:00228334       aEnabling
 0001:00228340       aAlwaysRunning
 0001:00228350       aNotAlwaysRunni
 0001:00228364       aNot_4
 0001:0022837C       aTheme
 0001:00228384       aExe_0
 0001:00228388       aVxd_0
 0001:0022838C       aBoo
 0001:00228390       aXls
 0001:00228394       aCom
 0001:00228398       aOvl
 0001:0022839C       aPrg
 0001:002283A0       aScr
 0001:002283A4       aPpt_0
 0001:002283A8       aPps
 0001:002283AC       aVbe
 0001:002283B0       aDll_1
 0001:002283B4       aXlt
 0001:002283B8       aDoc
 0001:002283BC       aDot
 0001:002283C0       aMdb_0
 0001:002283C4       a386
 0001:002283C8       aHta
 0001:002283CC       aHtm
 0001:002283D0       aShs
 0001:002283D4       aPot
 0001:002283D8       aDrv_0
 0001:002283DC       aImg
 0001:002283E0       aOvr
 0001:002283E4       aIni
 0001:002283E8       aTd0
 0001:002283EC       aMrc
 0001:002283F0       aPhp
 0001:002283F4       aMht
 0001:002283F8       aRtf
 0001:002283FC       aSam
 0001:00228400       aPif
 0001:00228404       aMsg_0
 0001:00228408       aDb
 0001:0022840C       aScript
 0001:00228420       aIframe
 0001:00228434       aNscriptJs_50_1
 0001:00228458       aNscriptJs_75_1
 0001:0022847C       aNscriptJs_at_1
 0001:002284A4       aNscriptJs_at_0
 0001:002284C8       aNot_0
 0001:002284D0       aJsEmulationPar
 0001:00228510       aJsEmulationExe
 0001:00228558       aJsEmulationMem
 0001:002285A0       aJsEmulationRec
 0001:002285E8       aStartingJsEmul
 0001:00228618       aJsEmulationLas
 0001:00228668       aJsEmulationEnd
 0001:002286B4       aEvalString_fro
 0001:002286D0       aString_fromcha
 0001:0022870C       aSend
 0001:00228714       aMemlimit
 0001:00228720       aReclimit
 0001:0022872C       aDocumentwrite
 0001:0022873C       aLimitmet
 0001:00228748       aUnknown
 0001:00228750       aFunctioncall
 0001:00228760       aThrow
 0001:00228778       aInitialisation
 0001:002287A4       aInitialisati_0
 0001:002287C4       aInitialisati_1
 0001:002287F8       aRuntimeBuiltIn
 0001:00228818       aFailedToAddFor
 0001:00228844       aFailedToRemove
 0001:00228874       aUncaughtExce_2
 0001:00228894       aUncaughtExce_1
 0001:002288B8       aUncaughtExce_0
 0001:002288F0       aProcessMemoryE
 0001:0022890C       aInternal
 0001:00228918       aBadHtmldocum_1
 0001:00228940       aBadHtmldocum_2
 0001:00228968       aBadHtmldocum_0
 0001:00228998       aBadHtmldocumen
 0001:002289C4       aAbortHeartbeat
 0001:002289E8       aZeroRangeForBu
 0001:00228A04       aRunRecursiveCa
 0001:00228A24       aMemoryLimitMet
 0001:00228A38       aAssignmentToIn
 0001:00228A54       aSymbolIsUndefi
 0001:00228A68       aFatalErrorInLo
 0001:00228A84       a15s4d
 0001:00228A90       a@ifS
 0001:00228AA4       aIf1
 0001:00228AAC       a@elifS
 0001:00228AC4       aElseIf1
 0001:00228AD4       a@_win32
 0001:00228ADC       a@_win16
 0001:00228AE4       a@_mac
 0001:00228AEC       a@_alpha
 0001:00228AF4       a@else
 0001:00228AFC       aElse
 0001:00228B08       a@end
 0001:00228B10       a5
 0001:00228B14       a@_jscript
 0001:00228B20       a@_fast
 0001:00228B28       a@_debug
 0001:00228B30       a@_x86
 0001:00228B38       a@_win64
 0001:00228B40       a@_jscript_buil
 0001:00228B50       a@_jscript_vers
 0001:00228B64       aS@cc_on
 0001:00228B74       a@_3
 0001:00228B7C       aEncodeuriIsUni
 0001:00228B98       aParseintIsNotA
 0001:00228BB8       aIsfinite_0
 0001:00228BC4       aEscapeIsNotACo
 0001:00228BE4       aUnescapeIsNotA
 0001:00228C04       aParsefloatIsNo
 0001:00228C28       a?@
 0001:00228C34       aDecodeuri_0
 0001:00228C40       aDecodeuricom_0
 0001:00228C6C       aDecodeuricom_1
 0001:00228C80       aTruncatedInput
 0001:00228CA8       aBadHexInputToD
 0001:00228CD0       aDecodeuriIsNot
 0001:00228CF4       aSettimeoutIsNo
 0001:00228D18       aFirstArgumen_0
 0001:00228D48       aUnableToSetNew
 0001:00228D70       aEncodeuricom_1
 0001:00228D9C       aCollectgarba_0
 0001:00228DC4       aCleartimeoutIs
 0001:00228DE8       aFirstArgumentT
 0001:00228E1C       aFailedToConver
 0001:00228E48       aFailedToDelete
 0001:00228E68       aFailedToConv_0
 0001:00228E94       aForeignFunctio
 0001:00228EDC       aCannotConvertO
 0001:00228F00       aInfinity_0
 0001:00228F0C       aInvalidTypeFor
 0001:00228F40       aBugBadStageOfD
 0001:00228F60       aRightHandSideO
 0001:00228FA4       aRightHandSid_0
 0001:00228FE4       aConstructorIsN
 0001:00229004       aInstanceofCall
 0001:00229028       aI32d
 0001:00229030       aNumber_proto_3
 0001:00229064       aNumber_proto_4
 0001:002290A0       aInvalidRadixFo
 0001:002290CC       aInvalidNumberF
 0001:00229100       aNumber_proto_2
 0001:00229134       aNumber_proto_1
 0001:00229160       aNumber_proto_0
 0001:00229190       aNumber_prototy
 0001:002291C0       aNumber_proto_5
 0001:002291F0       aNumber_proto_6
 0001:0022922C       aNumber_valueof
 0001:0022923C       aObject_proto_2
 0001:0022926C       aObject_proto_3
 0001:002292A0       aObject_proto_0
 0001:002292D0       aObject_prototy
 0001:00229308       aObject_proto_4
 0001:0022933C       aObject_proto_1
 0001:00229374       aBool_tostring
 0001:00229384       aBoolean_tostri
 0001:002293B8       aBoolean_valueo
 0001:002293EC       aBoolean_prot_0
 0001:00229420       aBoolean_protot
 0001:00229454       aBool_valueof
 0001:00229468       aString_proto_6
 0001:002294C0       aString_prot_14
 0001:002294F0       aString_proto_5
 0001:00229520       aString_proto_4
 0001:00229550       aString_prot_15
 0001:00229580       aStr_concat
 0001:0022958C       aString_prot_10
 0001:002295C0       aString_proto_3
 0001:002295F0       a1_3
 0001:002295F4       aString_prot_12
 0001:00229628       aString_proto_1
 0001:00229658       aString_proto_0
 0001:0022968C       aString_prot_11
 0001:002296BC       aString_prot_13
 0001:002296EC       aString_proto_8
 0001:0022971C       aString_proto_7
 0001:0022974C       aString_proto_2
 0001:00229780       aString_proto_9
 0001:002297B4       aString_fromc_0
 0001:002297E0       aError_prototyp
 0001:00229810       aInvalidSecondA
 0001:00229834       aObjectCannotBe
 0001:0022984C       aFunction_proto
 0001:0022987C       aMalformedArgum
 0001:002298B0       aObjectCannot_0
 0001:002298CC       aFunction_pro_0
 0001:002298FC       aMisplacedConti
 0001:0022991C       aMisplacedBreak
 0001:00229938       aArray_protot_3
 0001:00229968       aArray_protot_4
 0001:00229994       aArray_protot_0
 0001:002299CC       aArray_protot_9
 0001:002299F4       aArray_protot_8
 0001:00229A24       aArray_protot_5
 0001:00229A50       aArray_protot_6
 0001:00229A80       aArray_protot_7
 0001:00229AB0       aArray_pop
 0001:00229ABC       aArray_proto_10
 0001:00229AE8       aArray_splice
 0001:00229AF8       aArray_proto_11
 0001:00229B28       aArray_protot_2
 0001:00229B58       aArray_protot_1
 0001:00229B88       aInvalidParam_5
 0001:00229BB0       aMath_abs
 0001:00229BBC       aMath_acos
 0001:00229BC8       aMath_absIsNotA
 0001:00229BE8       aMath_ceil
 0001:00229BF4       aMath_atanIsNot
 0001:00229C18       aMath_cos
 0001:00229C24       aMath_ceilIsNot
 0001:00229C48       aMath_asin
 0001:00229C54       aMath_acosIsNot
 0001:00229C78       aMath_atan
 0001:00229C84       aMath_asinIsNot
 0001:00229CA8       aMath_log
 0001:00229CB4       aMath_logIsNotA
 0001:00229CD4       aMath_exp
 0001:00229CE0       aMath_cosIsNotA
 0001:00229D00       aMath_expIsNotA
 0001:00229D20       aMath_tan
 0001:00229D2C       aMath_sqrtIsNot
 0001:00229D50       aMath_atan2IsNo
 0001:00229D74       aMath_tanIsNotA
 0001:00229D94       aMath_sin
 0001:00229DA0       aMath_sqrt
 0001:00229DAC       aMath_sinIsNotA
 0001:00229DCC       aMath_powIsNotA
 0001:00229DEC       aMath_min
 0001:00229DF8       aMath_randomIsN
 0001:00229E1C       aMath_maxIsNotA
 0001:00229E3C       aMath_atan2
 0001:00229E48       aMath_minIsNotA
 0001:00229E68       aMath_max
 0001:00229E74       a02d02d02dUtc
 0001:00229E88       aSDSD
 0001:00229E94       aDate_protot_26
 0001:00229EC4       aDate_protot_40
 0001:00229EF8       aDate_todatestr
 0001:00229F0C       aDate_totimestr
 0001:00229F20       aDate_protot_41
 0001:00229F5C       aDate_protot_39
 0001:00229F98       aDate_protot_38
 0001:00229FCC       aDate_protot_20
 0001:0022A000       aDate_protot_25
 0001:0022A030       aDate_protot_19
 0001:0022A060       aDate_protot_18
 0001:0022A090       aDate_protot_23
 0001:0022A0C0       aDate_protot_17
 0001:0022A0F0       aDate_protot_21
 0001:0022A124       aDate_protot_24
 0001:0022A154       aDate_protot_13
 0001:0022A18C       aDate_protot_22
 0001:0022A1C0       aDate_protot_15
 0001:0022A1F8       aDate_setmillis
 0001:0022A210       aDate_protot_31
 0001:0022A250       aDate_protot_37
 0001:0022A28C       aDate_protot_36
 0001:0022A2C0       aDate_protot_14
 0001:0022A2F0       aDate_protot_30
 0001:0022A324       aDate_protot_29
 0001:0022A35C       aDate_protot_28
 0001:0022A38C       aDate_protot_16
 0001:0022A3BC       aDate_sethours
 0001:0022A3CC       aDate_protot_32
 0001:0022A3FC       aDate_setsecond
 0001:0022A40C       aDate_setminute
 0001:0022A41C       aDate_protot_33
 0001:0022A458       aDate_protot_27
 0001:0022A48C       aDate_setmonth
 0001:0022A49C       aDate_protot_35
 0001:0022A4D4       aDate_protot_34
 0001:0022A504       aDate_parse
 0001:0022A510       aDate_parseIsNo
 0001:0022A534       aDate_utc
 0001:0022A540       aDate_utcIsNotA
 0001:0022A560       aCanTSupplyFlag
 0001:0022A5A0       aBadRegularEx_0
 0001:0022A5C0       aRegexp_proto_2
 0001:0022A5F4       aRegexp_tostrin
 0001:0022A604       aRegexp_proto_0
 0001:0022A640       aRegexp_prototy
 0001:0022A670       aRegexp_proto_1
 0001:0022A6A0       aNode_appendc_2
 0001:0022A6C8       aNode_appendchi
 0001:0022A6F0       aNode_appendc_0
 0001:0022A724       aNode_appendc_3
 0001:0022A754       aNodelist_itemI
 0001:0022A77C       aDocument_cre_2
 0001:0022A7AC       aDocument_cre_1
 0001:0022A7DC       aDocument_cre_4
 0001:0022A80C       aDocument_cre_3
 0001:0022A83C       aNode_appendc_4
 0001:0022A878       aNode_appendc_1
 0001:0022A8CC       aDocument_cre_0
 0001:0022A8FC       aDocument_creat
 0001:0022A92C       aNode_insertbef
 0001:0022A958       aElement_gete_0
 0001:0022A990       aNode_insertb_1
 0001:0022A9C4       aNode_insertb_0
 0001:0022A9FC       aDocument_cre_6
 0001:0022AA30       aDocument_cre_5
 0001:0022AA60       aElement_getele
 0001:0022AA94       aDocument_getel
 0001:0022AAC4       aFfffff
 0001:0022AACC       aText
 0001:0022AAD4       aAttributes
 0001:0022AAE0       aBgcolor
 0001:0022AAE8       aNode_insertb_3
 0001:0022AB3C       aNode_insertb_2
 0001:0022AB74       aDocument_write
 0001:0022AB9C       aNode_insertb_4
 0001:0022ABD8       aGetelementsbyt
 0001:0022ABF0       aAppendchild
 0001:0022ABFC       aNodetype
 0001:0022AC08       aChildnodes
 0001:0022AC14       aTagname
 0001:0022AC1C       aNodevalue
 0001:0022AC28       aDocument_bodyN
 0001:0022AC44       aCreatetextnode
 0001:0022AC54       aCreateelement
 0001:0022AC64       aWriteln
 0001:0022AC6C       aGetelementbyid
 0001:0022AC80       aNavigator_java
 0001:0022AD04       a_ps
 0001:0022AD0C       aBin
 0001:0022AD14       a_eps
 0001:0022AD50       a6JX_gzCEmbedde
 0001:0022AD6D       aAbsatzStandard
 0001:0022AD89       aDefaultParagra
 0001:0022ADA0       aPwd
 0001:0022ADD0       aOp_lithi8
 0001:0022ADDC       aOp_litdi8
 0001:0022ADE8       aNosn
 0001:0022ADF4       aOp_litoi8
 0001:0022AE00       a__srp_
 0001:0022AE10       aDtable
 0001:0022AE20       a_vba_project_c
 0001:0022AE44       aMacros
 0001:0022AE54       a_acros
 0001:0022B1C0       aSS_8
 0001:0022B1DC       aCHuG2wN1eb
 0001:0022B1EE       aW_2
 0001:0022B1F0       aSWs
 0001:0022B1FC       aArguments_0
 0001:0022B208       aSystemrootSy_2
 0001:0022B244       aSystemrootTask
 0001:0022B26C       aCommand
 0001:0022B274       aExec
 0001:0022B280       aSoftwareMic_34
 0001:0022B30C       a_job
 0001:0022B318       aHklm_0
 0001:0022B324       a5lt0x7pdIe2BPi
 0001:0022B3B4       aUnp_method_exe
 0001:0022B3CC       aUnp_method_inf
 0001:0022B4B0       aHereisbootcode
 0001:0022B7F0       aS_?W1is5QSucce
 0001:0022B808       aFailed
 0001:0022B83C       aUnsupported_ap
 0001:0022BBD8       aNoEntyPoint
 0001:0022BBEC       aExe
 0001:0022BBF0       aArm
 0001:0022BC6C       aMacosNvir_aids
 0001:0022BC7C       aFilepredatorvr
 0001:0022BC8C       aFasduas
 0001:0022BC98       a_aevtoappnull
 0001:0022BCC0       aPeff
 0001:0022BCE4       aMain_0
 0001:0022BCEC       aCharset
 0001:0022BCF8       aWinchangedhand
 0001:0022BD0C       aEndhandler
 0001:0022BD38       aInvalid_string
 0001:0022BDF0       aElamMicrosoftA
 0001:0022BE38       aElamWindowsDef
 0001:0022BE64       aSignaturesvers
 0001:0022BE88       aSignatures
 0001:0022BEA0       aMeasured
 0001:0022BEB4       aD_DDWsWs
 0001:0022BEE4       aConfigElam
 0001:0022BF10       aByConfig_
 0001:0022BF28       aOfflineScan_
 0001:0022BF44       aLocalstore
 0001:0022BF5C       aUserdbpathDoes
 0001:0022BF94       aNoUserdbpath_
 0001:0022BFC4       aLastbld_dat
 0001:0022BFFC       aDamagedsize
 0001:0022C014       aSigseq_10
 0001:0022C024       aOsarch
 0001:0022C034       aDamagedsha256
 0001:0022C050       aCleansha256
 0001:0022C068       aCleansymbolnam
 0001:0022C088       aFilepath
 0001:0022C09C       aCleansize
 0001:0022C0C8       aWsWs_7
 0001:0022C0DC       aWsI64u_0
 0001:0022C0F0       aError_7
 0001:0022C100       aAdvancedsymbol
 0001:0022C130       aUsesfpremediat
 0001:0022C154       aCleansymboltim
 0001:0022C180       aCleansymbolsiz
 0001:0022C1A0       aResmgrFileWsSi
 0001:0022C1E4       aResmgrBadident
 0001:0022C204       aProps
 0001:0022C214       aInvalid_1
 0001:0022C244       aWs_016i64x
 0001:0022C270       aWs_Ws_Ws_Ws_Ws
 0001:0022C2B0       a??????????????
 0001:0022C2D4       a????????
 0001:0022C2E8       aDllcache
 0001:0022C330       aSoftwarePoli_2
 0001:0022C3A0       aSoftwarePoli_1
 0001:0022C418       aTrue_3
 0001:0022C424       aFalse_3
 0001:0022C430       aList
 0001:0022C440       aFail
 0001:0022C480       aOperandNameToo
 0001:0022C498       aUnknownOperati
 0001:0022C4AC       aEmptySubexpres
 0001:0022C4C0       aDuplicateKey
 0001:0022C4D0       aIllFormatedExp
 0001:0022C4E8       aInternalError
 0001:0022C4F8       aInvalidOperato
 0001:0022C50C       aExpressionTooL
 0001:0022C540       aNdisProtocol_0
 0001:0022C554       aSysenter
 0001:0022C560       aImportTable
 0001:0022C570       aDriverObject
 0001:0022C580       aIdt
 0001:0022C584       aGdt
 0001:0022C588       aSsdt
 0001:0022C590       aNtfs_0
 0001:0022C598       aMsdos
 0001:0022C5B0       aExfat
 0001:0022C5D8       aHstrD_log
 0001:0022C5F0       aHstr_log
 0001:0022C614       aExtensionS
 0001:0022C630       aBmp
 0001:0022C634       aJpg
 0001:0022C638       aPng
 0001:0022C63C       aGif
 0001:0022C690       aMpfastkcrcexfi
 0001:0022C6B4       aPid_1
 0001:0022C738       aSWasCalledOnAn
 0001:0022C760       aMpcontainerc_1
 0001:0022C794       aSsffindcloseWa
 0001:0022C7C8       a__vfo_closeWas
 0001:0022C7FC       a__add_vfo_obje
 0001:0022C838       aMpcontainerc_2
 0001:0022C874       aMpcontainerf_0
 0001:0022C8C0       aWarningRpfOldR
 0001:0022C998       aRpf_modules
 0001:0022C9B4       aRpf_module_upd
 0001:0022C9C8       aG_rpfrootinfo_
 0001:0022C9D8       aRpf_module_cle
 0001:0022C9EC       aCanNotMapAPefi
 0001:0022CA04       aRpf_modules_dl
 0001:0022CA28       aFailedToEnumer
 0001:0022CA48       aFailedToAttach
 0001:0022CA68       aRpf_module_ini
 0001:0022CA88       aTemp_1
 0001:0022CA94       aMpinternal_b_1
 0001:0022CAC8       aMpinternal_b_0
 0001:0022CAF8       aTmp_0
 0001:0022CB40       aHku
 0001:0022CB48       aHkey_local_mac
 0001:0022CB80       aHklmSoftware
 0001:0022CB9C       aHkey_users
 0001:0022CBB4       aHkey_current_u
 0001:0022CBD8       aHkcuSoftwareCl
 0001:0022CC40       aGetsystemdirec
 0001:0022CC60       aCreateglobalcs
 0001:0022CC74       aCreateglobalen
 0001:0022CC88       aCreateofflinec
 0001:0022CC9C       aCreatedevicema
 0001:0022CCAC       aRetrievecsid_0
 0001:0022CCD4       aRetrievecsidlp
 0001:0022CCFC       aSystem_folder_
 0001:0022CD18       aMpgetversionex
 0001:0022CD28       aSystemroot_4
 0001:0022CD44       aCuserprofilesI
 0001:0022CD58       aCreatevolumema
 0001:0022CD78       aCurrent
 0001:0022CD88       aSelect
 0001:0022CD98       aSoftware_0
 0001:0022CDAC       aRegistryMach_3
 0001:0022CDD8       a8fa9205b20144a
 0001:0022CE24       aCsdversion
 0001:0022CE3C       aCurrentversion
 0001:0022CE60       aMicrosoftWin_1
 0001:0022CEA8       aClient_0
 0001:0022CEB8       aServer_0
 0001:0022CEC8       aInstallationty
 0001:0022CEEC       aCurrentbuildnu
 0001:0022CF14       aSystem32Conf_0
 0001:0022CF44       aSystem32Config
 0001:0022CF78       aBf1a281bAd7b44
 0001:0022CFC8       a8fa9205b2014_0
 0001:0022D024       aHklmSystem
 0001:0022D03C       aHklmSoftware_2
 0001:0022D058       aCurrentcontrol
 0001:0022D07C       aSControlset03d
 0001:0022D0A0       ValueName
 0001:0022D0B8       SubKey
 0001:0022D108       aHklmWsWs
 0001:0022D124       aSSystem32
 0001:0022D13C       aServicePack
 0001:0022D158       aMsdart_hivel_0
 0001:0022D180       aMsdart_hiveloc
 0001:0022D1BC       aDosdevices
 0001:0022D1D8       aMounteddevices
 0001:0022D218       aAppid
 0001:0022D224       aDestport
 0001:0022D238       aDestip
 0001:0022D248       aHkcu_2
 0001:0022D254       aSD_0
 0001:0022D260       aS04x04x04x04x0
 0001:0022D2B8       aSD_D_D_D
 0001:0022D2F8       aWszvalue
 0001:0022D304       aWsztype
 0001:0022D30C       aWszdetails
 0001:0022D318       aWszerror
 0001:0022D324       aWszfunction
 0001:0022D330       aWszname
 0001:0022D338       aPszsampledata
 0001:0022D348       aWszsampledata
 0001:0022D358       aNullptrM_sampl
 0001:0022D384       aNullptrM_sigqu
 0001:0022D3A0       aM_rootelement
 0001:0022D3B0       aRtpheartbeatst
 0001:0022D3D4       aPaths
 0001:0022D3E0       aCategorys
 0001:0022D3F4       aSeverities
 0001:0022D40C       aU_1
 0001:0022D418       aSoftwareMic_37
 0001:0022D488       aPregistration
 0001:0022D498       aCadca5fe87d34b
 0001:0022D4E4       aBiosversion
 0001:0022D500       aHardwareDescri
 0001:0022D544       aBiosreleasedat
 0001:0022D564       aNewprocesses
 0001:0022D580       aOldprocesses
 0001:0022D59C       aProcessexclusi
 0001:0022D5C0       aExtensions
 0001:0022D5D8       a000000000000_0
 0001:0022D628       aFalseInvalidIn
 0001:0022D658       aAmcoreMpeng_29
 0001:0022D69C       aVector
 0001:0022D6A4       aFilenameNull
 0001:0022D6C8       aPwszfilenameNu
 0001:0022D6E0       aI64x
 0001:0022D6EC       a0UnknownFileLa
 0001:0022D714       aPwszsha1attrna
 0001:0022D798       aUdp_0
 0001:0022D7A0       aTcp_0
 0001:0022D7A8       aPszname
 0001:0022D7B8       aAmcoreMpeng_47
 0001:0022D7F8       aImphash_1
 0001:0022D800       aOriginalsigs_3
 0001:0022D810       aScanmode_0
 0001:0022D81C       a0UnknownReport
 0001:0022D838       aExcludedthre_1
 0001:0022D848       aOriginalsha2_2
 0001:0022D858       aOriginalsize_1
 0001:0022D868       aSigattrevent_1
 0001:0022D878       aNamedattribu_2
 0001:0022D888       aExtendedkcrc_1
 0001:0022D898       aContainertyp_1
 0001:0022D8A8       aClusterhash_1
 0001:0022D8B4       aResearchdata_2
 0001:0022D8C4       aAllsigseqs
 0001:0022D8D0       aS0x016i64x
 0001:0022D8E0       aAllsigshas
 0001:0022D8F0       a000000000000_2
 0001:0022D934       a000000000000_1
 0001:0022D960       aM_dwindex0
 0001:0022D970       a0Dwindex
 0001:0022D97C       aM_file_nameNul
 0001:0022D990       aM_coreNull
 0001:0022D9A0       a000000000000_3
 0001:0022D9C8       a000000000000_4
 0001:0022DA4C       aRetvalueNo_err
 0001:0022DA64       aValueNull
 0001:0022DA74       aTarget_1
 0001:0022DA7C       aClsid_nameNull
 0001:0022DA90       a_ocx_0
 0001:0022DA9C       a_cab_0
 0001:0022DAA8       aSpynet_reportB
 0001:0022DAE0       aFfffffffffffff
 0001:0022DB24       aFfffffffffff_0
 0001:0022DB50       a__8
 0001:0022DB54       aClsid_nodeNull
 0001:0022DB78       aPszpathNullptr
 0001:0022DB8C       aNullPszhash
 0001:0022DB9C       aNullPszpath
 0001:0022DBAC       aAmcoreMpeng_48
 0001:0022DBE8       aDrv_keyboard
 0001:0022DC04       aDrv_printer
 0001:0022DC1C       aDrv_comm
 0001:0022DC30       aDrv
 0001:0022DC38       aDrv_system
 0001:0022DC50       aDrv_mouse
 0001:0022DC64       aDrv_display
 0001:0022DC7C       aDrv_language
 0001:0022DC98       aDll
 0001:0022DCA0       aApp
 0001:0022DCA8       a010i64u
 0001:0022DCBC       aPvs
 0001:0022DCC0       a@_1
 0001:0022DCC4       a@_2
 0001:0022DCD0       aDrv_unknown
 0001:0022DCE8       aDrv_network
 0001:0022DD00       aDrv_versioned_
 0001:0022DD2C       aDrv_installabl
 0001:0022DD4C       aStatic_lib
 0001:0022DD64       aVxd
 0001:0022DD6C       aFont
 0001:0022DD78       aM_file_name_ge
 0001:0022DD8C       a0FileNotSet
 0001:0022DDA0       aHttps
 0001:0022DDAC       aFinfoM_outin_0
 0001:0022DDC0       aFinfoM_outinde
 0001:0022DDE8       aInvalidWs
 0001:0022DE00       aNullptrM_file_
 0001:0022DE64       a0UnexpectedNul
 0001:0022DE90       aMp_failedHrcod
 0001:0022DEA4       aFailedHrcode
 0001:0022DEB8       aAmcoreMpeng_51
 0001:0022DF14       aGetrootNull
 0001:0022DF28       aProotkitinform
 0001:0022DF3C       aPregistrychang
 0001:0022DF50       aUnsupportedDat
 0001:0022DF84       a0InvalidRegist
 0001:0022DFA4       aRewkernel
 0001:0022DFB8       aI32x
 0001:0022DFC4       aPprocessmodifi
 0001:0022DFE8       a0UnknownArTele
 0001:0022E00C       a08i32x
 0001:0022E01C       aCurrentresp_11
 0001:0022E050       aPreNonNullAttr
 0001:0022E078       a0InvalidAttrib
 0001:0022E0B8       aCurrentrespo_1
 0001:0022E0E8       aCurrentrespo_2
 0001:0022E118       aCurrentrespo_3
 0001:0022E14C       aCurrentrespo_4
 0001:0022E180       aCurrentrespo_0
 0001:0022E1E0       aCurrentrespons
 0001:0022E244       a0CoreResponseD
 0001:0022E270       aAmcoreMpeng_53
 0001:0022E2B0       aCurrent_sigr_0
 0001:0022E300       aCurrent_sigreq
 0001:0022E348       aCurrentrespo_9
 0001:0022E37C       aCurrentresp_10
 0001:0022E3AC       aCurrentrespo_5
 0001:0022E3D8       aCurrentrespo_8
 0001:0022E418       aSampleSubmis_3
 0001:0022E488       aM_responsedata
 0001:0022E4AC       aCurrentrespo_6
 0001:0022E4EC       aCurrentrespo_7
 0001:0022E524       aKv@Jo?CBuS
 0001:0022E538       aTruePresmgrctx
 0001:0022E580       aAmcoreMpeng_54
 0001:0022E5BC       aDlldirectory
 0001:0022E5D8       aSystemCurren_2
 0001:0022E650       aPspynetreportN
 0001:0022E66C       aPszfullfilepat
 0001:0022E688       aFilereportFile
 0001:0022E6B0       aWs_dll
 0001:0022E6C0       aCchbase64encod
 0001:0022E6EC       aMpdtdynloadpat
 0001:0022E700       aPresmgrctxNull
 0001:0022E718       aM_hfileM_hfile
 0001:0022E738       aAmcoreMpeng_56
 0001:0022E778       a0Fcomplete
 0001:0022E788       a0Frecurseok
 0001:0022E798       a0Wszmatchstrin
 0001:0022E7AC       a0Pwszsearchstr
 0001:0022E7C4       aAmcoreMpeng_55
 0001:0022E800       aPcontainerhand
 0001:0022E8BC       aHku_0
 0001:0022E8C8       aWs_bak
 0001:0022E8D8       aRpcss
 0001:0022E8E4       aTermservice
 0001:0022E8FC       aDcomlaunch
 0001:0022E924       a_Physicaldri_1
 0001:0022E94C       aFile_5
 0001:0022E95C       aScanResourceWs
 0001:0022E980       a0x_0
 0001:0022E988       a0x
 0001:0022E990       aSS_9
 0001:0022E9D0       aUeWPbigr
 0001:0022EA18       aDefender_en_21
 0001:0022EA38       aDefender_en_20
 0001:0022EA9C       aWs_5
 0001:0022EAA8       aX0Tb8
 0001:0022EB14       aAmcoreMpeng_19
 0001:0022EB44       aFriendlyfiles
 0001:0022EB54       aM_eng_cfgNullC
 0001:0022EB84       aPgroupdescript
 0001:0022EB98       aPpseudothreatl
 0001:0022EBC4       a0InvalidInde_0
 0001:0022EBEC       aG_mini_threats
 0001:0022EC04       aG_full_threats
 0001:0022EC1C       a0BugNofail
 0001:0022EC30       aG_crt_mini_ixG
 0001:0022EC50       aIs_special_sig
 0001:0022ECB4       aCfgNullConfigP
 0001:0022ECF4       aInvalid_threat
 0001:0022ED14       aCfgAdvexcpt
 0001:0022ED24       aIxInvalid_thre
 0001:0022ED3C       aPcegroupdescri
 0001:0022ED50       aG_crt_full_ixG
 0001:0022ED6C       aPthreatcontext
 0001:0022ED7C       aNodeDelcnt0
 0001:0022ED90       aNullTc
 0001:0022ED9C       aSig_idSignatur
 0001:0022EDB4       aIs_magic_threa
 0001:0022EDD0       aSig_id3Pthreat
 0001:0022EDF4       aResmgr_invalid
 0001:0022EE24       aBugInvalidHand
 0001:0022EE44       aNullObject_nam
 0001:0022EE58       aIx1IxPresnodeN
 0001:0022EE7C       aBase_ixBaseNum
 0001:0022EE94       aBase_ix1
 0001:0022EEA4       aInvalidSigid0
 0001:0022EEBC       aNullTcNullPt
 0001:0022EEE0       aHandler_idInva
 0001:0022EF40       aIxPseudo_ix
 0001:0022EF50       aIsthreatThreat
 0001:0022EF64       aAdd_index
 0001:0022EF70       aTdata
 0001:0022EF78       aIx1
 0001:0022EF84       aNullPt
 0001:0022EF90       a0ThreatIdNotPr
 0001:0022EFB4       aResourceindexD
 0001:0022EFD4       a0InvalidResour
 0001:0022EFF4       aTempresindex1
 0001:0022F008       aResourceindex1
 0001:0022F01C       aNullTdata
 0001:0022F02C       a0ResourceIndex
 0001:0022F048       aEvent_eventtyp
 0001:0022F08C       aUnkres_ixTempD
 0001:0022F0AC       aAdd_indexBas_0
 0001:0022F0C8       aJN_res
 0001:0022F0D4       aAdd_indexBasic
 0001:0022F0F0       aChildres_ix1
 0001:0022F104       aRes_ix1
 0001:0022F114       aG_max_full
 0001:0022F120       aThreatindexInv
 0001:0022F144       aResource_schem
 0001:0022F154       aInvalidPseudoT
 0001:0022F178       aTc_infoLaten_0
 0001:0022F1C4       aTc_infoShared_
 0001:0022F1EC       aTc_infoThreats
 0001:0022F210       aTc_infoLatent_
 0001:0022F238       aNullHandle
 0001:0022F248       aTc_infoBfpdrop
 0001:0022F268       aTc_infoLaten_2
 0001:0022F2C8       aTc_infoLaten_1
 0001:0022F324       nullsub_11
 0001:0022F68C       aX@
 0001:00232E28       aErrorTooManyTe
 0001:00232E50       aBootsector_0
 0001:00232E6C       aSystemroot_5
 0001:00232E8C       aSystem32Driver
 0001:00232EB0       aPartition_2
 0001:00232EC4       aSystemroot_6
 0001:00232EDC       a?Unc_2
 0001:00232EE8       a?_9
 0001:00232EF4       aSystemVolumeIn
 0001:00232F28       a?_3
 0001:00233470       aI64x_0
 0001:00233484       aCdefghijklmnop
 0001:00233508       a23456789abcd_1
 0001:00233538       aWsWsWsWsWsWsWs
 0001:0023357C       aWsWs_5
 0001:002335B0       a1_0_0
 0001:002335B8       aVersion_1
 0001:002335E0       aGt_0
 0001:002335EC       aLt_0
 0001:002335F8       aAmp_0
 0001:00233604       aEncoding
 0001:00233618       aQuot_0
 0001:00233628       aApos
 0001:00233640       a?_6
 0001:00233648       a?xml
 0001:002339D0       aMicrosoftBaseC
 0001:00233A48       aFailedToDropWs
 0001:00233A90       aPayloadmgr
 0001:00233AA8       aFailedToDropTh
 0001:00233AF0       aValidationFail
 0001:00233B38       aSmpengine_info
 0001:00233B58       aSmpengine_exe
 0001:00233B78       aFailedToCreate
 0001:00233BC0       aSoftwareMicr_6
 0001:00233C2C       aNoResponseRece
 0001:00233C58       aInitialRespons
 0001:00233C8C       aFinalResponseR
 0001:00233CBC       aUnknownResult
 0001:00233CDC       aRtsd_0
 0001:00233CE8       aReceivedResult
 0001:00233D28       aDssTimeout
 0001:00233D40       aRtsd_patch_rec
 0001:00233D88       aRtsdPatchRecei
 0001:00233DDC       a_ResourcesToRe
 0001:00233E10       aSchema
 0001:00233E28       aUnknown_2
 0001:00233E3C       aPath_1
 0001:00233E50       a_TimeToFirstRe
 0001:00233E90       a_TimeToFinalRe
 0001:00233ED0       a_AnSdnSignatur
 0001:00233F10       a_ASampleSubmis
 0001:00233F70       aDevice_3
 0001:00233F94       aVerifyisfrie_0
 0001:00233FD4       aVfzw
 0001:00233FF0       aWsDWsDWs
 0001:00234010       aWsDWs
 0001:00234024       aEfi
 0001:0023402C       a_Physicaldri_2
 0001:00234054       a?S
 0001:00234064       aNtfs_2
 0001:00234070       aFat32
 0001:0023407C       aRecovery
 0001:00234090       aDynamicDisk
 0001:002340AC       aFat12
 0001:002340B8       aFat16
 0001:002340C4       aExtended
 0001:002340D8       aDeviceCdrom
 0001:002340F8       aErrorHresult_0
 0001:00234150       aErrorHresult_1
 0001:002341A8       aRegistry_0
 0001:002341BC       aEngineksl
 0001:002341D0       aKsl
 0001:002341D8       aErrorHresult0x
 0001:00234228       aKsl_0
 0001:0023422C       aSS_sys
 0001:00234240       aS08x
 0001:00234250       aAllowedprocess
 0001:00234278       aErrorHresult_2
 0001:002342D8       aErrorHresult_3
 0001:0023432C       a_Ws_0
 0001:0023433C       aMpksldrv
 0001:00234350       aSystemrootSy_3
 0001:00234390       aRegistryMach_7
 0001:002343B4       a??_1
 0001:002343C0       aHklm_1
 0001:002343CC       aChangelist
 0001:002343E4       aSS_sys_0
 0001:00234418       aLaststaticbuil
 0001:00234440       aLastmaintenanc
 0001:00234474       aLastmaintena_0
 0001:002344B0       aMpasynclaten_4
 0001:002344D0       aMpasynclaten_5
 0001:002344F0       aMpasynclaten_6
 0001:00234510       aMpasynclaten_2
 0001:00234530       aMpasynclaten_3
 0001:00234560       aCurrentdrivele
 0001:00234588       a?Ws_0
 0001:0023459C       aWsU
 0001:002345B8       aServiceinclusi
 0001:002345DC       aAppVirtAppfs
 0001:00234600       aInfiniteLoopDe
 0001:00234648       aPanicRoutineCa
 0001:00234660       aNA_I64x
 0001:0023466C       aFailedToAllocC
 0001:00234688       aInvalidSizeFor
 0001:002346AC       aAttemptToWrite
 0001:002346DC       aAttemptToWri_0
 0001:00234714       aAttemptToWri_1
 0001:0023474C       aUnknownMembe_0
 0001:00234768       aInvalidIndex_2
 0001:0023478C       aUnknownMembe_1
 0001:002347A8       aHstrlogNotAvai
 0001:002347C0       aInvalidIndex_7
 0001:002347E0       aFailedToGetHst
 0001:0023480C       aHeaderpageNotA
 0001:00234828       aFooterpageNotA
 0001:00234844       aInvalidIndex_6
 0001:00234864       aInvalidInde_10
 0001:00234884       aInvalidIndex_9
 0001:002348A4       aInvalidIndex_1
 0001:002348C0       aInvalidIndex_3
 0001:002348DC       aMatch_offsets
 0001:002348EC       aLocation
 0001:002348F8       aExpectedAttrib
 0001:00234928       aUtf8p1
 0001:00234930       aImage_path
 0001:0023493C       aThis_sigattr_4
 0001:00234974       aThis_sigattr_5
 0001:002349A4       aTimestamp_1
 0001:002349B0       aThis_sigattr_2
 0001:002349E8       aPpid
 0001:002349F0       aThis_sigattr_3
 0001:00234A20       aUtf8p2
 0001:00234A28       aMultibytetowid
 0001:00234A54       aMallocFailed
 0001:00234A68       aThis_sigattr_1
 0001:00234AB8       aInvalidIndex_8
 0001:00234AE8       aThis_sigattr_0
 0001:00234B08       aInvalidIndex_5
 0001:00234B2C       aTail
 0001:00234B34       aSigattrlogNotA
 0001:00234B50       aAttemptToWri_2
 0001:00234B98       aSUtilwidecharf
 0001:00234BC0       aDatabaseVarSTy
 0001:00234BFC       aSMultistringpu
 0001:00234C24       aSVector_insert
 0001:00234C48       aDatabaseVarS_1
 0001:00234C74       aDatabaseVarS_0
 0001:00234CA4       aFailedToGetAll
 0001:00234CC8       aNri_gethttpsta
 0001:00234CF4       aSubjectUtf8Con
 0001:00234D14       aNri_gethttpr_1
 0001:00234D44       aNri_gethttpres
 0001:00234D80       aNri_gethttpver
 0001:00234DAC       aNri_gethttpcom
 0001:00234DD8       aNri_gethttpr_0
 0001:00234E08       aNri_gethttpreq
 0001:00234E40       aFailedToInsert
 0001:00234E64       aHostname
 0001:00234E78       aReferer
 0001:00234E88       aHrduplicates_0
 0001:00234EA4       aFailedToForm_0
 0001:00234EC0       aFailedToForm_1
 0001:00234EDC       aIssuerUtf8Conv
 0001:00234EFC       aFailedToGetA_0
 0001:00234F1C       a04u02u02u02u02
 0001:00234F4C       aUtilwidechar_0
 0001:00234F78       aConvertppidtos
 0001:00234FA0       aAttemptToWri_3
 0001:00234FF8       a__mmap_exDFail
 0001:00235010       aUfsseekreadDFa
 0001:00235028       aMmap_patch_buf
 0001:00235044       aMmap_patchBuff
 0001:00235064       a__mmap_exFaile
 0001:00235078       aPe_mofs_to_fof
 0001:00235094       aPe_get_regvalD
 0001:002350C4       aInvalidSection
 0001:002350FC       aConvertstringt
 0001:0023512C       aFailedToConv_1
 0001:00235158       aPe_fofs_to_mof
 0001:00235170       aImagenameIsNul
 0001:00235184       aXrayExpectedTa
 0001:002351A4       aPe_set_peattri
 0001:002351DC       aXrayFailedToAl
 0001:00235210       aStrheap_size
 0001:00235220       aStrheap_rva
 0001:0023522C       aUsheap_size
 0001:00235238       aUsheap_rva
 0001:00235244       aResourcesrva
 0001:00235254       aPe_metadata_de
 0001:00235278       aEpflags
 0001:00235280       aEptoken
 0001:00235288       aInvalidInde_11
 0001:002352B0       aNetmetadata_to
 0001:002352D4       aStringcchcopya
 0001:002352EC       aPe_vm_searchMa
 0001:00235314       aInvalidSigattr
 0001:00235330       aFnrva
 0001:00235338       aInvalidIndex_4
 0001:00235358       aPe_metadata__1
 0001:00235398       aTokens
 0001:002353A0       aInvalidInde_12
 0001:002353C0       aPe_metadata__0
 0001:002353EC       aBlheap_size
 0001:002353F8       aBlheap_rva
 0001:00235404       aGheap_size
 0001:00235410       aGheap_rva
 0001:0023541C       aInvalidSizeF_0
 0001:0023543C       aMp_readfileFai
 0001:00235470       aSeekDFailed
 0001:00235480       aVfo_createDFai
 0001:00235498       aVfo_add_buffer
 0001:002354BC       aQueuevfoFailed
 0001:002354D0       aVfo_writeFaile
 0001:002354E4       aBsplitNumbitsI
 0001:00235500       aUnknownBitOper
 0001:0023551C       aFailedToSetMpA
 0001:0023553C       aFailedToGrowLu
 0001:00235558       aCrc32InvalidIn
 0001:00235570       aMp_crc32Invali
 0001:002355B0       aCrc32Invalid_0
 0001:002355FC       aCrc32InvalidSi
 0001:00235638       aUtf16to8Buff_0
 0001:00235660       aMp_crc32Failed
 0001:00235694       aUtf16to8Buffer
 0001:002356BC       aInvalidNidD
 0001:002356CC       aMp_getclassifi
 0001:002356F8       aMp_readprotect
 0001:00235728       aStrrchrFailed
 0001:00235738       aHrduplicatestr
 0001:00235754       aMp_getclassi_0
 0001:00235784       aWcsrchrFailed
 0001:00235794       aWriteu_u32Inva
 0001:002357B4       aWriteu_u32Atte
 0001:002357EC       aWriteu_u32In_0
 0001:0023581C       aWriteu_u16Atte
 0001:00235854       aWriteu_u8Inv_0
 0001:00235880       aWriteu_u16In_0
 0001:002358B0       aWriteu_u16Inva
 0001:002358D0       aReadu_u32Inv_0
 0001:0023590C       aReadu_u32Strin
 0001:00235940       aWriteu_u8Inval
 0001:0023595C       aWriteu_u8Attem
 0001:00235990       aReadu_u16Strin
 0001:002359C4       aReadu_u16Inval
 0001:002359E0       aReadu_u32Inval
 0001:002359FC       aReadu_u16Inv_0
 0001:00235A38       aMp_mp_add_bm_0
 0001:00235A70       aMp_mp_add_bm_a
 0001:00235AA0       aMp_mp_add_bm_2
 0001:00235AD4       aMp_mp_add_bm_1
 0001:00235B10       aMp_mp_add_bm_3
 0001:00235B3C       aMp_mp_set_bm_0
 0001:00235B74       aMp_mp_add_bm_4
 0001:00235BB0       aMp_mp_add_bm_5
 0001:00235BE4       aIntegrity_leve
 0001:00235BF4       aToken_is_eleva
 0001:00235C08       aMp_mp_set_bm_f
 0001:00235C50       aCommand_line
 0001:00235C60       aTheArgumentIsN
 0001:00235C80       aToken_elevat_2
 0001:00235C98       aFailedToGetH_0
 0001:00235CBC       aMp_base64dec_1
 0001:00235CD8       aMp_base64dec_0
 0001:00235D08       aPathtowin32p_0
 0001:00235D28       aPathtowin32pat
 0001:00235D58       aUfssetmetadata
 0001:00235D80       aMp_ufsgetmetad
 0001:00235DAC       aMp_base64decod
 0001:00235DD0       aMp_ufssetmetad
 0001:00235E00       aBm_get_process
 0001:00235E30       aRawutf8p2
 0001:00235E3C       aUfsmetadataUti
 0001:00235E68       aReason
 0001:00235E70       aBm_get_proce_0
 0001:00235EA0       aMp_mp_add_bm_r
 0001:00235ED0       aRawutf8p1
 0001:00235EDC       aTag
 0001:00235EE0       aCheckurlwBuf_0
 0001:00235F08       aCheckurlUtilwi
 0001:00235F30       aMp_istrustedfi
 0001:00235F70       aCheckurlwBuffe
 0001:00235F98       aReportintern_0
 0001:00235FD0       aMp_reportlowfi
 0001:00235FF8       aMp_reportinter
 0001:0023602C       aMp_reportint_0
 0001:00236060       aMachineguidIsN
 0001:00236074       aFailedToRead_1
 0001:00236098       aMp_reportlow_0
 0001:002360C0       aReportlowfiUti
 0001:002360EC       aDevicepathtran
 0001:00236118       aGetmotwzoneFil
 0001:0023614C       aGetmotwhostu_1
 0001:00236184       aFailedToRead_0
 0001:002361A8       aInvalidExtensi
 0001:002361C4       aMp_getnormaliz
 0001:00236200       aMp_getbrutemat
 0001:00236238       aMp_contextua_0
 0001:00236278       aMp_contextua_1
 0001:002362C0       aMp_triggersc_1
 0001:002362F0       aMp_contextuale
 0001:00236330       aMp_contextua_2
 0001:0023637C       aMpgenrandbuffe
 0001:00236394       aMp_triggersc_2
 0001:002363C4       aMp_triggersc_0
 0001:002363F4       aMp_triggerscan
 0001:00236430       aWrongVersion_2
 0001:00236478       aRequestor
 0001:00236484       aLanguage
 0001:00236490       aAction_0
 0001:00236498       a08x04x04x02x_0
 0001:002364D0       aWrongVersion_3
 0001:00236518       aServerbinary
 0001:00236528       aFailedToFormat
 0001:0023654C       aApplicationnam
 0001:00236560       aWrongVersion_4
 0001:002365A8       aDllparameter
 0001:002365B8       aCommandline_0
 0001:002365C4       aRequestorpid
 0001:002365D4       aWrongVersionOf
 0001:00236600       aAutoelevate
 0001:0023660C       aTruststate
 0001:00236618       aUnknownAmsi_ua
 0001:00236644       aIsmotwforfil_1
 0001:0023666C       aZone_identif_0
 0001:00236690       aWrongVersion_0
 0001:002366E0       aSourceurl
 0001:002366EC       aApplicationid
 0001:002366FC       aPackagefamilyn
 0001:00236710       aUpdates
 0001:00236718       aUpdatesource
 0001:00236728       aLocalinstallpa
 0001:00236740       aWrongVersion_1
 0001:00236784       aPackagepath
 0001:00236790       aManufacturer
 0001:002367A0       aUpdate
 0001:002367A8       aPackagesource
 0001:002367B8       aGetexecutablew
 0001:002367D4       aGetexecutabl_1
 0001:00236814       aSysiofileexist
 0001:00236844       aSysiofileexi_0
 0001:00236878       aMemscanqueryin
 0001:002368C0       aMemscanquery_0
 0001:002368F0       aGetexecutabl_2
 0001:00236930       aGetexecutableS
 0001:0023694C       aGetmotwforfile
 0001:0023697C       aGetmotwforfi_0
 0001:002369AC       aMp_getmotwhost
 0001:002369E4       aMp_getmotwzone
 0001:00236A1C       aIsmotwforfilew
 0001:00236A4C       aIsmotwforfil_0
 0001:00236A7C       aFailedToCrea_3
 0001:00236AA8       aMp_ismotwforfi
 0001:00236AD8       aSetpersistco_0
 0001:00236B10       aMp_getpersistc
 0001:00236B44       aSetpersistco_1
 0001:00236B7C       aSetpersistco_2
 0001:00236BAC       aGetpersistco_0
 0001:00236BDC       aRecorddata
 0001:00236BE8       aMp_getpersis_0
 0001:00236C10       aGetpersistco_1
 0001:00236C48       aMp_getdnscache
 0001:00236C88       aMp_getdnscac_0
 0001:00236CBC       aRecordname_0
 0001:00236CC8       aDnsname_0
 0001:00236CD0       aMp_ioavgeturlp
 0001:00236D04       aException
 0001:00236D10       aMp_ioavgetur_0
 0001:00236D40       aMp_ioavgetur_1
 0001:00236D6C       aInvalidGuidFor
 0001:00236D84       aMp_sethipsrule
 0001:00236DB4       aMp_isknownfr_0
 0001:00236DF4       aMp_ishipsrulee
 0001:00236E28       aSnidsearchExpe
 0001:00236E68       aMp_get_sigattr
 0001:00236EA8       aNdatregexpmatc
 0001:00236EE8       aSnidsearchEx_0
 0001:00236F2C       aAppendpersistc
 0001:00236F60       aQuerypersist_1
 0001:00236F7C       aAppendpersis_2
 0001:00236F98       aAppendpersis_0
 0001:00236FD4       aMp_setpersistc
 0001:00237008       aMp_setpersis_0
 0001:00237030       aQuerypersist_2
 0001:00237068       aQuerypersistco
 0001:002370A0       aBm_getmatchd_0
 0001:002370E4       aMp_mp_request_
 0001:0023710C       aMp_isknownfrie
 0001:00237144       aBm_getmatchdur
 0001:0023717C       aMp_mp_reques_0
 0001:002371C0       aCtlcontent
 0001:002371CC       aPkcs7dataconte
 0001:002371E0       aUnknowncontent
 0001:002371F0       aNotsupported
 0001:00237200       aMissinginfo
 0001:0023720C       aSha384
 0001:00237214       aSha512_2
 0001:00237220       aMp_getcertific
 0001:00237274       aBadArgumentDS
 0001:0023728C       aValueExpected
 0001:0023729C       aPanicUnprotect
 0001:002372D0       aSD_1
 0001:002372D8       aInvalidOptionS
 0001:002372EC       aCallingSOnBadS
 0001:0023730C       aTailCall
 0001:0023731C       aLua
 0001:00237320       aAttemptToCom_0
 0001:00237344       aNilOrTableExpe
 0001:0023735C       a__metatable
 0001:00237368       aLevelMustBeNon
 0001:00237384       aCannotChangeAP
 0001:002373A8       aBaseOutOfRange
 0001:002373BC       aAssertionFaile
 0001:002373D0       aLoad_0
 0001:002373D8       aIndexOutOfRang
 0001:002373EC       aTooManyResul_0
 0001:00237408       aSetstepmul
 0001:00237414       aSetpause
 0001:00237420       aReaderFunction
 0001:00237448       aTooManyNestedF
 0001:00237464       aStop
 0001:0023746C       aStep
 0001:00237474       aCollect
 0001:00237480       aInvalidLevel
 0001:00237490       aSetfenvCannotC
 0001:002374C4       aNoFunctionEnvi
 0001:002374F8       aSP
 0001:00237500       aBooleanOrProxy
 0001:0023751C       aTooManyResults
 0001:00237538       aCannotResumeSC
 0001:00237554       aLuaFunctionExp
 0001:0023756C       aDead
 0001:00237574       aTooManyArgum_1
 0001:00237594       aCoroutineExpec
 0001:002375A8       aSuspended
 0001:002375D0       aCannotResumeNo
 0001:002375F8       aAttemptToYield
 0001:0023762C       aStackOverflow
 0001:0023763C       aInvalidKeyToNe
 0001:00237654       aParserNotLoade
 0001:00237668       aInvalidValueSA
 0001:002376A0       aWrongNumberO_0
 0001:002376C8       aInvalidOrderFu
 0001:002376EC       aSetnIsObsolete
 0001:00237700       aUnableToDumpGi
 0001:00237720       aInvalidValue_0
 0001:00237730       a000
 0001:00237738       aR_10
 0001:0023773C       aInvalidFormatR
 0001:0023775C       aString_gfindWa
 0001:0023778C       aStringFunction
 0001:002377AC       aInvalidReplace
 0001:002377D0       aUnbalancedPatt
 0001:002377E4       aUnfinishedCapt
 0001:002377F8       aMissingAfterFI
 0001:0023781C       aInvalidCapture
 0001:00237834       aInvalidFormatW
 0001:00237864       aInvalidOptionC
 0001:00237888       aBadHeader
 0001:00237894       aCodeTooDeep
 0001:002378A4       aBinaryString
 0001:002378B4       aUnexpectedEnd
 0001:002378C4       aSSInPrecompile
 0001:002378E0       aBadConstant
 0001:002378F0       aBadInteger
 0001:002378FC       aAttemptToWri_4
 0001:00237924       aUnknownError_
 0001:00237934       aErrorTimeoutRe
 0001:0023794C       aClient
 0001:00237964       aFfrdriverdelet
 0001:00237980       aSystemCurre_16
 0001:002379C4       aScheduleffr
 0001:002379D0       aCleanresource
 0001:002379E0       aGetfilefromcle
 0001:002379F8       aResetbcdwmipar
 0001:00237A10       aBtrdeleteregke
 0001:00237A20       aBtrdeleteregva
 0001:00237A34       aBtrsetregvalue
 0001:00237A50       aBtrsetregval_0
 0001:00237A68       aDefaultspecial
 0001:00237A80       aSetremovalpoli
 0001:00237A94       aBtrdeletefile
 0001:00237AA4       aBtrmovefile
 0001:00237AB0       aSeterror
 0001:00237ABC       aFfrdriverswap
 0001:00237ACC       aSetrebootrequi
 0001:00237AE0       aSetcallistoreq
 0001:00237AF8       aWrongArgumentT
 0001:00237B40       aWrongArgumen_0
 0001:00237B84       aSigner_3
 0001:00237B8C       aUnexpectedPara
 0001:00237BAC       aInvalidLuaStat
 0001:00237BC0       aInvalidResourc
 0001:00237BF8       aWrongArgumen_1
 0001:00237C40       aRemediation_lu
 0001:00237C9C       aBcd_integer_bo
 0001:00237CBC       aBcd_boolean_op
 0001:00237CD8       aThreat
 0001:00237CE0       aBcd_boolean_te
 0001:00237CFC       aBcd_boolean_au
 0001:00237D20       aPersistedsto_1
 0001:00237D38       aBcd_boolean_ad
 0001:00237D58       aBcd_boolean_em
 0001:00237D70       aParentfilena_2
 0001:00237D80       aParentfileeven
 0001:00237D90       aParentprocessc
 0001:00237DAC       aParentprocessf
 0001:00237DC4       aEvent
 0001:00237DCC       aIstrackingenab
 0001:00237DE0       aEventstate
 0001:00237DEC       aModification_2
 0001:00237DFC       aSigattrevent_2
 0001:00237E0C       aPeattributes_2
 0001:00237E1C       aWeburl
 0001:00237E24       aScanreason_2
 0001:00237E30       aSigningtime_2
 0001:00237E3C       aSignerhash_2
 0001:00237E48       aNamedattribu_3
 0001:00237E58       aScanagent
 0001:00237E64       aHasremoteproce
 0001:00237E84       aRemoteprocessc
 0001:00237EA0       aRemoteproce_28
 0001:00237EBC       aRemoteproce_29
 0001:00237EDC       aParentprocesst
 0001:00237EFC       aHasparentproce
 0001:00237F1C       aRemoteproce_30
 0001:00237F34       aParentprocessi
 0001:00237F50       aFa9264936f1c41
 0001:00237FC0       aSystemChangesN
 0001:0023801C       aSupportsobject
 0001:0023802C       aVolumelabellen
 0001:00238040       aServicename
 0001:0023804C       aSetfileattri_0
 0001:00238060       aMovefilew
 0001:0023806C       aVolumeserialnu
 0001:00238080       aVolumecreation
 0001:00238094       aCmaxvaluelen
 0001:002380A4       aCmaxvaluenamel
 0001:002380B8       aLastwritetime
 0001:002380C8       aCbsecuritydesc
 0001:002380E0       aCmaxsubkeylen
 0001:002380F0       aCsubkeys
 0001:002380FC       aCvalues
 0001:00238104       aCmaxclasslen
 0001:00238114       aFacility
 0001:00238120       aCurrentstate
 0001:00238130       aServicetype
 0001:0023813C       aStarttime_0
 0001:00238148       aPid_6
 0001:0023814C       aDcqueryconfigs
 0001:0023816C       aDcqueryconfign
 0001:0023818C       aInvalidPpid
 0001:0023819C       aExpectedSizeIs
 0001:002381BC       aReportlowfiw_0
 0001:002381E8       aGetengineconte
 0001:00238214       aDcqueryconfigb
 0001:00238234       aReportlowfiwBu
 0001:00238260       aGetthreadspFai
 0001:00238288       aScanresource
 0001:00238298       aReport_threat_
 0001:002382BC       aInvalidSchemaW
 0001:002382D0       aCheckforactive
 0001:00238308       aFind_first_thr
 0001:00238340       aMpdetection_re
 0001:00238384       aMpdetection__0
 0001:002383B8       aMpdetection__1
 0001:002383F8       aMpdetection__2
 0001:00238438       aGetcurrentthre
 0001:0023844C       aReportresource
 0001:00238460       aMpdetection__3
 0001:002384A4       aScanningAborte
 0001:002384D4       aResources_0
 0001:002384E0       aSigseqhigh
 0001:002384EC       aId_3
 0001:002384F0       aSchema_0
 0001:002384F8       aRemovalpolicy
 0001:00238508       aSigseqlow
 0001:00238514       aPath_2
 0001:0023851C       aActive_0
 0001:00238568       aHu_Hu_Hu_Hu
 0001:00238588       aMetaInf
 0001:00238594       a??GlobalrootWs
 0001:002385B8       aNull_0
 0001:002385C8       a08x
 0001:002385D4       a1_1
 0001:002385DC       aElC5YLeGwr
 0001:002385EE       aE_20
 0001:002385F0       aMoveancestry
 0001:0023860C       aQueryancestry
 0001:00238628       a_wsf
 0001:00238634       a_vbs
 0001:00238640       a_js
 0001:00238648       a_wsh
 0001:00238654       nullsub_12
 0001:00238674       aRemediationfai
 0001:002386AC       aRemediation_0
 0001:002386C4       aMaxfilesizerea
 0001:002386EC       aMpengine
 0001:00238700       aMptelemetry_xm
 0001:00238720       aMetadata_0
 0001:00238734       aSS_5
 0001:00238744       aThreatid_1
 0001:00238758       aHkcr_1
 0001:00238764       aLoggedfile
 0001:0023888C       aLoggedregistry
 0001:002388B0       aHresult_0
 0001:002388C0       aValue_1
 0001:002388CC       aLoggedstring_0
 0001:002388EC       aLoggedstring
 0001:0023890C       aRemediationbtr
 0001:00238938       aRemediationcon
 0001:00238960       aKey
 0001:00238968       aProperty
 0001:0023897C       aNumberofresour
 0001:002389A0       aScanflags
 0001:002389B4       aScancontext
 0001:002389CC       aSystemcontext
 0001:002389E8       aAvsigversion_0
 0001:00238A04       aEngineversio_2
 0001:00238A20       aOpenPids
 0001:00238A38       aUsertoken
 0001:00238A4C       aProductversion
 0001:00238A6C       aProductid
 0001:00238A80       aPlatformversio
 0001:00238AA0       aPlatform_0
 0001:00238AB8       aSSStateUTypeUS
 0001:00238B10       aHostosver
 0001:00238B24       aOsver_0
 0001:00238B30       aContext_0
 0001:00238B48       aRemediationf_0
 0001:00238B80       aPid_2
 0001:00238B8C       aContext_1
 0001:00238B9C       aFailtelemetryp
 0001:00238BDC       aLHM_?Bxw7k
 0001:00238BF0       aWs_7
 0001:00238C1C       aHkey_classes_r
 0001:00238C40       aHkdd
 0001:00238C4C       aHkey_dyn_data
 0001:00238C68       aHkey_current_c
 0001:00238CA8       aHkey_local_m_0
 0001:00238CD0       aAmp_1
 0001:00238CD8       aGt_1
 0001:00238CEC       aCreatevssbacku
 0001:00238D10       aVssapi_dll
 0001:00238D58       aKernelunhook
 0001:00238D74       aThreattrack_10
 0001:00238D98       aNewthreatU
 0001:00238DB0       aNewtimeU
 0001:00238DC4       aThreattrack_11
 0001:00238DEC       aState_1
 0001:00238DF8       aId_1
 0001:00238E00       aActionstatus_0
 0001:00238E1C       aCreated
 0001:00238E2C       aRegistrykeys
 0001:00238E48       aRescount
 0001:00238E5C       aResU
 0001:00238E68       aDetU
 0001:00238E74       aThreatU
 0001:00238E88       aShaU
 0001:00238E94       aChangedU
 0001:00238EA8       aFoundU
 0001:00238EB8       aOldtimeU
 0001:00238ECC       aWsWsWs_0
 0001:00238EE4       aCh
 0001:00238EE8       aDh
 0001:00238EEC       aBl
 0001:00238EF0       aAh
 0001:00238EF4       aCl
 0001:00238EF8       aDl
 0001:00238EFC       aAl
 0001:00238F00       aEdi
 0001:00238F04       aRax
 0001:00238F08       aEbp
 0001:00238F0C       aEsi_0
 0001:00238F10       aEbx
 0001:00238F14       aEsp
 0001:00238F18       aEcx
 0001:00238F1C       aEdx
 0001:00238F20       aDi
 0001:00238F24       aEax
 0001:00238F28       aBp
 0001:00238F2C       aSi
 0001:00238F30       aDx
 0001:00238F34       aBx
 0001:00238F38       aAx
 0001:00238F3C       aCx
 0001:00238F40       aR15
 0001:00238F44       aEs_0
 0001:00238F48       aR13
 0001:00238F4C       aR14
 0001:00238F50       aR11
 0001:00238F54       aR12
 0001:00238F58       aR9
 0001:00238F5C       aR10
 0001:00238F60       aRdi
 0001:00238F64       aR8
 0001:00238F68       aRbp
 0001:00238F6C       aRsi
 0001:00238F70       aRbx
 0001:00238F74       aRsp
 0001:00238F78       aRcx
 0001:00238F7C       aRdx
 0001:00238F80       aR11b
 0001:00238F88       aR12b
 0001:00238F90       aR9b
 0001:00238F94       aR10b
 0001:00238F9C       aDil
 0001:00238FA0       aR8b
 0001:00238FA4       aBpl
 0001:00238FA8       aSil
 0001:00238FAC       aRip
 0001:00238FB0       aSpl
 0001:00238FB4       aGs
 0001:00238FB8       a?seg
 0001:00238FC0       aDs
 0001:00238FC4       aCs_0
 0001:00238FC8       aSs_1
 0001:00238FCC       aR11d
 0001:00238FD4       aR12d
 0001:00238FDC       aR9d
 0001:00238FE0       aR10d
 0001:00238FE8       aR15w
 0001:00238FF0       aR8d
 0001:00238FF4       aR13w
 0001:00238FFC       aR14w
 0001:00239004       aR11w
 0001:0023900C       aR12w
 0001:00239014       aR9w
 0001:00239018       aR10w
 0001:00239020       aR15b
 0001:00239028       aR8w
 0001:0023902C       aR13b
 0001:00239034       aR14b
 0001:0023903C       aXmm3
 0001:00239044       aXmm4
 0001:0023904C       aXmm1
 0001:00239054       aXmm2
 0001:0023905C       aMm7
 0001:00239060       aXmm0
 0001:00239068       aMm5
 0001:0023906C       aMm6
 0001:00239070       aMm3
 0001:00239074       aMm4
 0001:00239078       aMm1
 0001:0023907C       aMm2
 0001:00239080       aR15d
 0001:00239088       aMm0
 0001:0023908C       aR13d
 0001:00239094       aR14d
 0001:0023909C       aXmm15
 0001:002390A8       aAdd_0
 0001:002390AC       aPush_0
 0001:002390B1       aPop_0
 0001:002390B5       aOr_0
 0001:002390B8       aAdc
 0001:002390BC       aSbb
 0001:002390C0       aAnd_0
 0001:002390C4       aDaa_0
 0001:002390C8       aSub_0
 0001:002390CC       aDas
 0001:002390D0       aXor_1
 0001:002390D4       aAaa_0
 0001:002390D8       aCmp
 0001:002390DC       aAas
 0001:002390E0       aInc
 0001:002390E4       aDec_1
 0001:002390E8       aPusha
 0001:002390EE       aPopa
 0001:002390F3       aBound
 0001:002390F9       aArpl
 0001:002390FE       aImul
 0001:00239103       aInsb
 0001:00239108       aIns
 0001:0023910C       aOutsb
 0001:00239112       aOuts
 0001:00239117       aJo
 0001:0023911A       aJno
 0001:0023911E       aJb
 0001:00239121       aJnb
 0001:00239125       aJz
 0001:00239128       aJnz
 0001:0023912C       aJbe
 0001:00239130       aJnbe
 0001:00239135       aJs_0
 0001:00239138       aJns
 0001:0023913C       aJp
 0001:0023913F       aJnp
 0001:00239143       aJl
 0001:00239146       aJnl
 0001:0023914A       aJle
 0001:0023914E       aJnle
 0001:00239153       aTest_0
 0001:00239158       aXchg_0
 0001:0023915D       aMov
 0001:00239161       aLea
 0001:00239165       aNop_0
 0001:00239169       aC_17
 0001:0023916B       aCall_0
 0001:00239170       aWait
 0001:00239175       aPushf
 0001:0023917B       aPopf
 0001:00239180       aSahf
 0001:00239185       aLahf
 0001:0023918A       aMovsb
 0001:00239190       aMovs
 0001:00239195       aCmpsb
 0001:0023919B       aCmps
 0001:002391A0       aStosb
 0001:002391A6       aStos
 0001:002391AB       aLodsb
 0001:002391B1       aLods
 0001:002391B6       aScasb
 0001:002391BC       aScas
 0001:002391C1       aRetn
 0001:002391C6       aLes
 0001:002391CA       aLds
 0001:002391CE       aEnter
 0001:002391D4       aLeave_0
 0001:002391DA       aRetf
 0001:002391DF       aInt_3
 0001:002391E3       a3
 0001:002391E5       aInto_0
 0001:002391EA       aIret
 0001:002391EF       a1_4
 0001:002391F1       aAam
 0001:002391F5       aAad
 0001:002391F9       aSetalc
 0001:00239200       aXlat
 0001:00239205       aLoopnz
 0001:0023920C       aLoopz
 0001:00239212       aLoop
 0001:00239217       aJcxz
 0001:0023921C       aIn
 0001:0023921F       aOut
 0001:00239223       aJmp_0
 0001:00239227       aIcebpt
 0001:0023922E       aHlt
 0001:00239232       aCmc
 0001:00239236       aClc
 0001:0023923A       aStc
 0001:0023923E       aCli
 0001:00239242       aSti
 0001:00239246       aCld
 0001:0023924A       aStd
 0001:0023924E       a?_10
 0001:00239250       aMovsxd
 0001:00239257       aLar
 0001:0023925B       aLsl
 0001:0023925F       aClts
 0001:00239264       aInvd
 0001:00239269       aWbinvd
 0001:00239270       aUd2
 0001:00239274       aWrmsr
 0001:0023927A       aRdtsc
 0001:00239280       aRdmsr
 0001:00239286       aRdpmc
 0001:0023928C       aSysenter_0
 0001:00239295       aSysexit
 0001:0023929D       aGetsec
 0001:002392A4       aCmovo
 0001:002392AA       aCmovno
 0001:002392B1       aCmovc
 0001:002392B7       aCmovnc
 0001:002392BE       aCmovz
 0001:002392C4       aCmovnz
 0001:002392CB       aCmovbe
 0001:002392D2       aCmova
 0001:002392D8       aCmovs
 0001:002392DE       aCmovns
 0001:002392E5       aCmovp
 0001:002392EB       aCmovnp
 0001:002392F2       aCmovl
 0001:002392F8       aCmovnl
 0001:002392FF       aCmovle
 0001:00239306       aCmovnle
 0001:0023930E       aPunpcklbw
 0001:00239318       aPunpcklwd
 0001:00239322       aPunpckldq
 0001:0023932C       aPacksswb
 0001:00239335       aPcmpgtb
 0001:0023933D       aPcmpgtw
 0001:00239345       aPcmpgtd
 0001:0023934D       aPackuswb
 0001:00239356       aPunpckhbw
 0001:00239360       aPunpckhwd
 0001:0023936A       aPunpckhdq
 0001:00239374       aPackssdw
 0001:0023937D       aPunpcklqdq
 0001:00239388       aPunpckhqdq
 0001:00239393       aMovd
 0001:00239398       aMovq
 0001:0023939D       aSeto
 0001:002393A2       aSetno
 0001:002393A8       aSetb
 0001:002393AD       aSetnb
 0001:002393B3       aSetz
 0001:002393B8       aSetnz
 0001:002393BE       aSetbe
 0001:002393C4       aSetnbe
 0001:002393CB       aSets
 0001:002393D0       aSetns
 0001:002393D6       aSetp
 0001:002393DB       aSetnp
 0001:002393E1       aSetl
 0001:002393E6       aSetnl
 0001:002393EC       aSetle
 0001:002393F2       aSetnle
 0001:002393F9       aCpuid
 0001:002393FF       aBt
 0001:00239402       aShld
 0001:00239407       aRsm
 0001:0023940B       aBts
 0001:0023940F       aShrd
 0001:00239414       aCmpxchg
 0001:0023941C       aLss
 0001:00239420       aBtr
 0001:00239424       aLfs
 0001:00239428       aLgs
 0001:0023942C       aMovzx
 0001:00239432       aUd2_0
 0001:00239436       aBtc
 0001:0023943A       aBsf
 0001:0023943E       aBsr
 0001:00239442       aMovsx
 0001:00239448       aBswap
 0001:0023944E       aPsubusb
 0001:00239456       aPsubusw
 0001:0023945E       aPminub
 0001:00239465       aPand
 0001:0023946A       aPaddusb
 0001:00239472       aPaddusw
 0001:0023947A       aPmaxub
 0001:00239481       aPandn
 0001:00239487       aPsubsb
 0001:0023948E       aPsubsw
 0001:00239495       aPminsw
 0001:0023949C       aPor
 0001:002394A0       aPaddsb
 0001:002394A7       aPaddsw
 0001:002394AE       aPmaxsw
 0001:002394B5       aPxor
 0001:002394BA       aPsubb
 0001:002394C0       aPsubw
 0001:002394C6       aPsubd
 0001:002394CC       aPsubq
 0001:002394D2       aPaddb
 0001:002394D8       aPaddw
 0001:002394DE       aPaddd
 0001:002394E4       aApicall
 0001:002394EC       aRol
 0001:002394F0       aRor
 0001:002394F4       aRcl
 0001:002394F8       aRcr
 0001:002394FC       aShl_0
 0001:00239500       aShr_0
 0001:00239504       aSal
 0001:00239508       aSar
 0001:0023950C       aNot_5
 0001:00239510       aNeg_0
 0001:00239514       aMul_0
 0001:00239518       aDiv_1
 0001:0023951C       aIdiv
 0001:00239521       aSldt
 0001:00239526       aStr
 0001:0023952A       aLldt
 0001:0023952F       aLtr
 0001:00239533       aVerr
 0001:00239538       aVerw
 0001:0023953D       aSgdt
 0001:00239542       aSidt
 0001:00239547       aLgdt
 0001:0023954C       aLidt
 0001:00239551       aSmsw
 0001:00239556       aLmsw
 0001:0023955B       aInvlpg
 0001:00239562       aCmpxch8b
 0001:0023956B       aVmptrst
 0001:00239573       aPsrlw
 0001:00239579       aPsraw
 0001:0023957F       aPsllw
 0001:00239585       aPsrld
 0001:0023958B       aPsrad
 0001:00239591       aPslld
 0001:00239597       aPsrlq
 0001:0023959D       aPsrldq
 0001:002395A4       aPsllq
 0001:002395AA       aPslldq
 0001:002395B1       aFxsave
 0001:002395B8       aFxrstor
 0001:002395C0       aLdmxcsr
 0001:002395C8       aStmxcsr
 0001:002395D0       aXsave
 0001:002395D6       aXrstor
 0001:002395DD       aMfence
 0001:002395E4       aClflush
 0001:002395EC       aPrefetchnta
 0001:002395F8       aPrefetcht0
 0001:00239603       aPrefetcht1
 0001:0023960E       aPrefetcht2
 0001:00239619       aBx_0
 0001:0023961C       aSi_0
 0001:0023961F       aDi_0
 0001:00239622       aBp_0
 0001:00239625       aEax_0
 0001:00239629       aEcx_0
 0001:0023962D       aEdx_0
 0001:00239631       aEbx_0
 0001:00239635       aEsi_1
 0001:00239639       aEdi_0
 0001:0023963D       aEbp_0
 0001:00239641       aRax_0
 0001:00239645       aRcx_0
 0001:00239649       aRdx_0
 0001:0023964D       aRbx_0
 0001:00239651       aRip_0
 0001:00239655       aRsi_0
 0001:00239659       aRdi_0
 0001:0023965D       aRbp_0
 0001:00239661       aR8_0
 0001:00239664       aR9_0
 0001:00239667       aR10_0
 0001:0023966B       aR11_0
 0001:0023966F       aR14_0
 0001:00239673       aR15_0
 0001:00239677       aR13_0
 0001:0023967B       aFadd
 0001:00239680       aFmul
 0001:00239685       aFcom
 0001:0023968A       aFcomp
 0001:00239690       aFsub
 0001:00239695       aFsubr
 0001:0023969B       aFdiv
 0001:002396A0       aFdivr
 0001:002396A6       aFld
 0001:002396AA       aFst
 0001:002396AE       aFstp
 0001:002396B3       aFldenv
 0001:002396BA       aFldcw
 0001:002396C0       aFstenv
 0001:002396C7       aFstcw
 0001:002396CD       aFiadd
 0001:002396D3       aFimul
 0001:002396D9       aFicom
 0001:002396DF       aFicomp
 0001:002396E6       aFisub
 0001:002396EC       aFisubr
 0001:002396F3       aFidiv
 0001:002396F9       aFidivr
 0001:00239700       aFild
 0001:00239705       aFisttp
 0001:0023970C       aFist
 0001:00239711       aFistp
 0001:00239717       aFrstor
 0001:0023971E       aFsave
 0001:00239724       aFstsw
 0001:0023972A       aFbld
 0001:0023972F       aFbstp
 0001:00239735       aFxch
 0001:0023973A       aFnop
 0001:0023973F       aFstp1
 0001:00239745       aFchs
 0001:0023974A       aFabs_0
 0001:0023974F       aFtst
 0001:00239754       aFxam
 0001:00239759       aFld1
 0001:0023975E       aFldl2t
 0001:00239765       aFldl2e
 0001:0023976C       aFldpi
 0001:00239772       aFldlg2
 0001:00239779       aFldln2
 0001:00239780       aFldz
 0001:00239785       aF2xm1
 0001:0023978B       aFyl2x
 0001:00239791       aFptan
 0001:00239797       aFpatan
 0001:0023979E       aFxtract
 0001:002397A6       aFprem1
 0001:002397AD       aFdecstp
 0001:002397B5       aFincstp
 0001:002397BD       aFprem
 0001:002397C3       aFyl2xp1
 0001:002397CB       aFsqrt
 0001:002397D1       aFsincos
 0001:002397D9       aFrndint
 0001:002397E1       aFscale
 0001:002397E8       aFsin
 0001:002397ED       aFcos
 0001:002397F2       aFcmovb
 0001:002397F9       aFcmove
 0001:00239800       aFcmovbe
 0001:00239808       aFcmovu
 0001:0023980F       aFucompp
 0001:00239817       aFcmovnb
 0001:0023981F       aFcmovne
 0001:00239827       aFcmovnbe
 0001:00239830       aFcmovnu
 0001:00239838       aFclex
 0001:0023983E       aFinit
 0001:00239844       aFucomi
 0001:0023984B       aFcomi
 0001:00239851       aFfree
 0001:00239857       aFucom
 0001:0023985D       aFucomp
 0001:00239864       aFaddp
 0001:0023986A       aFmulp
 0001:00239870       aFcompp
 0001:00239877       aFsubrp
 0001:0023987E       aFsubp
 0001:00239884       aFdivrp
 0001:0023988B       aFdivp
 0001:00239891       aFfreep
 0001:00239898       aFstp8
 0001:0023989E       aFstp9
 0001:002398A4       aFucomip
 0001:002398AC       aFcomip
 0001:002398B3       aMovups
 0001:002398BA       aMovupd
 0001:002398C1       aMovsd
 0001:002398C7       aMovss
 0001:002398CD       aMovlps
 0001:002398D4       aMovlpd
 0001:002398DB       aMovddup
 0001:002398E3       aMovsldup
 0001:002398EC       aUnpcklps
 0001:002398F5       aUnpcklpd
 0001:002398FE       aUnpckhps
 0001:00239907       aUnpckhpd
 0001:00239910       aMovhps
 0001:00239917       aMovhpd
 0001:0023991E       aMovshdup
 0001:00239927       aMovaps
 0001:0023992E       aMovapd
 0001:00239935       aCvtpi2ps
 0001:0023993E       aCvtpi2pd
 0001:00239947       aCvtsi2sd
 0001:00239950       aCvtsi2ss
 0001:00239959       aMovntps
 0001:00239961       aMovntpd
 0001:00239969       aCvttps2pi
 0001:00239973       aCvttpd2pi
 0001:0023997D       aCvttsd2si
 0001:00239987       aCvttss2si
 0001:00239991       aCvtps2pi
 0001:0023999A       aCvtpd2pi
 0001:002399A3       aCvtsd2si
 0001:002399AC       aCvtss2si
 0001:002399B5       aUcomiss
 0001:002399BD       aUcomisd
 0001:002399C5       aComiss
 0001:002399CC       aComisd
 0001:002399D3       aMovmskps
 0001:002399DC       aMovmskpd
 0001:002399E5       aSqrtps
 0001:002399EC       aSqrtpd
 0001:002399F3       aSqrtsd
 0001:002399FA       aSqrtss
 0001:00239A01       aRsqrtps
 0001:00239A09       aRsqrtss
 0001:00239A11       aRccps
 0001:00239A17       aRcpss
 0001:00239A1D       aAndps
 0001:00239A23       aAndpd
 0001:00239A29       aAndnps
 0001:00239A30       aAndnpd
 0001:00239A37       aOrps
 0001:00239A3C       aOrpd
 0001:00239A41       aXorps
 0001:00239A47       aXorpd
 0001:00239A4D       aAddps
 0001:00239A53       aAddpd
 0001:00239A59       aAddsd
 0001:00239A5F       aAddss
 0001:00239A65       aMulps
 0001:00239A6B       aMulpd
 0001:00239A71       aMulsd
 0001:00239A77       aMulss
 0001:00239A7D       aCvtps2pd
 0001:00239A86       aCvtpd2ps
 0001:00239A8F       aCvtsd2ss
 0001:00239A98       aCvtss2sd
 0001:00239AAA       aCvtps2dq
 0001:00239AB3       aCvttps2dq
 0001:00239ABD       aSubps
 0001:00239AC3       aSubpd
 0001:00239AC9       aSubsd
 0001:00239ACF       aSubss
 0001:00239AD5       aMinps
 0001:00239ADB       aMinpd
 0001:00239AE1       aMinsd
 0001:00239EBC       aXmm13
 0001:00239EC4       aXmm14
 0001:00239ECC       aXmm11
 0001:00239ED4       aXmm12
 0001:00239EDC       aXmm9
 0001:00239EE4       aXmm10
 0001:00239EEC       aXmm7
 0001:00239EF4       aXmm8
 0001:00239EFC       aXmm5
 0001:00239F04       aXmm6
 0001:00239F0C       aX08x
 0001:00239F18       a08x08x
 0001:00239F24       a08x_2
 0001:00239F2C       aPtr
 0001:00239F34       aTbytePtr
 0001:00239F40       aDwordPtr
 0001:00239F4C       aQwordPtr
 0001:00239F58       aBytePtr
 0001:00239F64       aWordPtr
 0001:00239F70       aQ_0
 0001:00239F74       aT_15
 0001:00239F78       aI64x_1
 0001:00239F80       a02x_3
 0001:00239F88       a04x
 0001:00239F90       a04x08x
 0001:00239F9C       a04x04x
 0001:00239FA8       aPause
 0001:00239FB0       aCwde
 0001:00239FB8       aRep
 0001:00239FC0       aXchg
 0001:00239FC8       aLock
 0001:00239FD0       aRepnz
 0001:00239FD8       aFs
 0001:00239FDC       aGs_0
 0001:00239FE0       aSs_2
 0001:00239FE4       aDs_0
 0001:00239FE8       aEs_1
 0001:00239FEC       aCs_1
 0001:00239FF0       aDr_0
 0001:00239FF4       aTr_0
 0001:00239FFC       aCr
 0001:0023A000       aCbw
 0001:0023A004       aSt_0
 0001:0023A9C0       aObject_3
 0001:0023A9D0       aReturnvalue
 0001:0023A9E8       aStore
 0001:0023A9F4       aBcdstore
 0001:0023AA08       aOpenstore
 0001:0023AA1C       a_RootWmi
 0001:0023AA38       aBoolean_2
 0001:0023AA48       aSetbooleanelem
 0001:0023AA6C       aString_5
 0001:0023AA7C       aSetstringeleme
 0001:0023AAA0       aInteger_1
 0001:0023AAB0       aSetintegerelem
 0001:0023AAD4       aWql
 0001:0023AADC       a__class
 0001:0023AAEC       a__relpath
 0001:0023AB10       aErrorCallingGe
 0001:0023AB50       aInvalidState_0
 0001:0023ABF0       aInvalidStateTr
 0001:0023AC70       aRequestsamples
 0001:0023ACA8       aCreatesamplesu
 0001:0023ACE0       aInvalidState_1
 0001:0023AD50       aUnrecognizedCo
 0001:0023AD80       aSpynetIsOffWhe
 0001:0023ADC0       a0x08lxWs
 0001:0023ADDC       a0x08lx
 0001:0023ADF0       aInvalidState_2
 0001:0023AE94       aWszfilenameNul
 0001:0023AEAC       a0xXWs
 0001:0023AED0       aWsI64u
 0001:0023AEE4       aSystemfileca_2
 0001:0023AF04       aWs_Ws_0
 0001:0023AF14       aWsWs_Ws
 0001:0023AF2C       aNewlocation
 0001:0023AF48       aHkcuSoftware_0
 0001:0023AFE8       aHklmSoftware_4
 0001:0023B088       aHkcuSoftwareMi
 0001:0023B128       aHklmSoftware_3
 0001:0023B1C8       aSoftwareMic_38
 0001:0023B240       aConnectiondeta
 0001:0023B264       aWsWs_6
 0001:0023B270       aValidfrom04u02
 0001:0023B2E4       aHsWs
 0001:0023B2F0       aSt
 0001:0023B338       aNametreeAtTryi
 0001:0023B364       aVfs___SId
 0001:0023B374       aVfsSId
 0001:0023B384       aVfsId
 0001:0023B390       aFailureToIniti
 0001:0023B3C8       aAttemptingToIn
 0001:0023B418       aInvalidOffsetS
 0001:0023B458       aPage_nocache
 0001:0023B468       aPage_guard
 0001:0023B474       aPage_writecopy
 0001:0023B484       aPage_readwrite
 0001:0023B494       aPage_readonly
 0001:0023B4A4       aPage_noaccess
 0001:0023B4B4       aPage_execute_w
 0001:0023B4CC       aPage_execute_0
 0001:0023B4E4       aPage_execute_r
 0001:0023B4F8       aPage_execute
 0001:0023B508       aPage_writecomb
 0001:0023B51C       aInvalidAccess
 0001:0023B598       aVmmResi
 0001:0023B5AC       aDtForWs0x08lx
 0001:0023B848       aVoid_0
 0001:0023B850       aDelegate
 0001:0023B85C       aFieldinfo
 0001:0023B868       aSystem_reflect
 0001:0023B87C       aMethodinfo
 0001:0023B888       aParameterinfo
 0001:0023B898       aHstrSmartassem
 0001:0023B8B8       aL00ps1g
 0001:0023B8C0       a_I64d
 0001:0023B8C8       aMpdtboot_memor
 0001:0023B8E0       aMpvmp32fastent
 0001:0023B8F4       aMpvmp32entry
 0001:002407AC       aDeviceHarddi_8
 0001:002407E8       aDeviceHarddi_9
 0001:00240828       aDeviceHarddi_7
 0001:00240850       a_Mountpointman
 0001:0024088C       aFailurepositio
 0001:002408B0       aCleancount
 0001:002408C8       aInfectedcount
 0001:002408E8       aPreviouscleann
 0001:00240920       aValidationfail
 0001:00240950       aSuccessfulrest
 0001:00240988       aDone
 0001:00240994       aSkippedNotFoun
 0001:002409BC       aRestoreall
 0001:002409D4       aBoot_record_cl
 0001:00240A04       aErrorcode_0
 0001:00240A2C       aTimestamp_2
 0001:00240A44       aBackupall
 0001:00240A58       aPrevioustimest
 0001:00240A80       aOldesttimestam
 0001:00240AA4       aBackuptime
 0001:00240ABC       aDiskstotal
 0001:00240AD4       aEmptyserials
 0001:00240AF0       aMbrvolumestota
 0001:00240B14       aGptvolumestota
 0001:00240B38       aRawvolumestota
 0001:00240B5C       aMbrchanges
 0001:00240B74       aVbrchanges
 0001:00240B8C       aTontfschanges
 0001:00240BAC       aTofatchanges
 0001:00240BC8       aVaultrecords
 0001:00240BE4       aMaxhistorylen
 0001:00240C04       aAvgchangeinter
 0001:00240C2C       aLatestmbrcrc
 0001:00240C68       aHarddisk
 0001:00240C84       aVirtdisk_dll
 0001:00240CA0       aDiskfootprint
 0001:00240CC0       aDiskserialnumb
 0001:00240CE4       aPartition0
 0001:00240D0C       aInfrastructu_0
 0001:00240D24       aDefault_2
 0001:00240D34       aOriginalrecid
 0001:00240D50       aSmsrptDUI64xUI
 0001:00240D88       aLevelCN
 0001:00240D94       aPid_7
 0001:00240D9C       aPidIProcesssta
 0001:00240DB8       aBadConversion
 0001:00240DC8       aMprequestnosms
 0001:00240DD8       aMprequestnos_0
 0001:00240DEC       aMprequestsmsh
 0001:00240DFC       aMprequestsms_0
 0001:00240E0C       aMprequestsmsm
 0001:00240E1C       aMprequestsms_1
 0001:00240E2C       aMprequestsmsl
 0001:00240E3C       aMprequestsms_2
 0001:00240E4C       aMprequestsms1
 0001:00240E5C       aMprequestsms_3
 0001:00240E6C       aSms_config_txt
 0001:00240E94       aUnknownCompres
 0001:00240EB0       aInvalidWindowS
 0001:00240EC4       aIncorrectHeade
 0001:00240EDC       aNeedDictionary
 0001:00240EEC       aIncorrectDataC
 0001:00240F04       aInvalidBlockTy
 0001:00240F18       aInvalidStoredB
 0001:00240F38       aTooManyLengthO
 0001:00240F5C       aInvalidBitLeng
 0001:002419E8       aInsufficientMe
 0001:002419FC       aBufferError
 0001:00241A0C       aIncompatibleVe
 0001:00241A24       aIncompleteDyna
 0001:00241A48       aOversubscrib_1
 0001:00241A6C       aIncompleteLite
 0001:00241A8C       aOversubscrib_0
 0001:00241AAC       aIncompleteDist
 0001:00241AC8       aEmptyDistanceT
 0001:00241AEC       aOversubscribed
 0001:00241B14       aInvalidLiteral
 0001:00241B30       aInvalidDistanc
 0001:00241B58       aDbvar
 0001:00241B80       aBoot_0
 0001:00241B90       aSectorsizeD
 0001:00241BA0       aEfiPart
 0001:00241BAC       aPartitionUS
 0001:00241BD0       aS_2
 0001:00241BD8       aCurrentlbaI64u
 0001:00241BEC       aPartitionUType
 0001:00241C1C       aIsactiveD
 0001:00241C28       aVpathWs
 0001:00241C34       aBootsector_1
 0001:00241C60       a__9
 0001:00241C68       aMbr_1
 0001:00241C74       aContainertyp_0
 0001:00241D08       aU_2
 0001:00241D10       aStm_1
 0001:00241D18       aStm_0
 0001:00241DD8       aCcf_08id
 0001:00241E4C       aDatafork
 0001:00241E64       aSResourcefork
 0001:00241E88       aResourcefork
 0001:00241EA8       aSDatafork
 0001:00241F14       aSftobject
 0001:00241F5C       aPayloadD
 0001:00241F8C       aLd_csrContaine
 0001:00241FD0       aOffset_1
 0001:00241FD8       aApplicationXBz
 0001:00241FEC       aStyle
 0001:00241FF4       aApplicationXGz
 0001:00242CE4       aSimbootV1_0Dis
 0001:00242D0C       aMacosResourcef
 0001:00242D24       aMacosDatafork
 0001:00242E78       aRrRrvvrprrr_
 0001:00243174       aFilename_Id
 0001:00243190       aId_2
 0001:002431A8       aInvalidStoulAr
 0001:002431C0       aStoulArgumentO
 0001:002431DC       aNotCompressed
 0001:002431EC       aAutoitCompress
 0001:00243200       aAutoitReadingC
 0001:00243230       aAutoitignorere
 0001:00243248       aScript_1
 0001:00243258       aAutoitscriptin
 0001:00243270       aAutoit3exeinra
 0001:00243288       aAutoitOpenEr_0
 0001:002432DC       aAutoit
 0001:002432F0       aAutoitOpenEr_1
 0001:0024331C       aAutoitOpenErro
 0001:00243344       aAutoit_fileins
 0001:00243370       aAutoitString
 0001:00243380       aAutoit_emptyfi
 0001:002433A4       aAutoit_script
 0001:002433C0       aAu3Ea06
 0001:002433CC       aAutoitassumev3
 0001:002433E0       aIuCa99okciAuto
 0001:0024347C       a@
 0001:002434AC       aI
 0001:002434B4       aI64i
 0001:002434D4       aG_0
 0001:002434EC       aIshld04id
 0001:00243540       aC2rdatD
 0001:00243568       aInstallcreat_1
 0001:002435A0       aInstallcreat_0
 0001:002435C8       aWise04id
 0001:002435E0       aXILcMSz___
 0001:002435F8       aThisFileWasRem
 0001:0024368C       aWarn_txt
 0001:00243698       a_____
 0001:002436B9       a0123456789ab_4
 0001:002436FC       a04d02d02d02d02
 0001:00243720       aMessage_Id_S_0
 0001:00243738       aMessage_Id_SS
 0001:00243750       aMessage_Id_S_S
 0001:00243770       aMessage_IdUnti
 0001:0024378C       aSEnvelope_Id_S
 0001:002437A8       aSAttachment_Id
 0001:002437C4       aSEnvelope_IdUn
 0001:002437E4       aSMessage_IdUnt
 0001:00243800       aAppointment
 0001:0024380C       aUntitled
 0001:00243B88       aMessage_IuSS
 0001:00243DC0       aMessageId
 0001:00243DE8       aSU
 0001:00243DF8       aPartDFileidI64
 0001:00243E48       aSystemCurren_5
 0001:00243EC0       a????????????_1
 0001:00243F20       aQexentryCommit
 0001:00243FB4       aWsWsCC
 0001:00243FD0       aResourcedata
 0001:00243FFC       aBeginningActio
 0001:00244034       aBeginningThrea
 0001:00244068       aRevert
 0001:00244078       aUserdefined
 0001:00244090       aFinishedThreat
 0001:002440B8       aStartTime_0
 0001:002440D0       aThreatId
 0001:002440E4       aFinishedAction
 0001:00244118       aFinishedThre_0
 0001:00244148       aThreatResult
 0001:00244164       aThreatStatusFl
 0001:00244190       aSystemConfigSy
 0001:00244220       aSystemConfig_0
 0001:00244284       aEndTime_0
 0001:00244298       aResult
 0001:002442A8       aIgnore
 0001:002442B8       aIgnoreAlways
 0001:002442D4       aQuarantine
 0001:002442EC       aProgram_file_0
 0001:0024430C       aProgram_file_1
 0001:00244330       aSystemConfig_1
 0001:002443E0       aWindows_1
 0001:00244404       aActWs_dat
 0001:0024441C       aFirstdriverfil
 0001:00244440       aHklmSystemCurr
 0001:00244498       aAct_dat
 0001:002444AC       aHistoryReboot
 0001:002444DC       aFinishedShutdo
 0001:00244510       aHr
 0001:00244518       aSystemCurren_7
 0001:00244560       aFinishedShut_0
 0001:002445C0       aSoftwareMic_40
 0001:0024461C       aShutdownMessag
 0001:00244640       aSoftwareMic_39
 0001:002446E8       aPending
 0001:002446F8       aSkippingShut_0
 0001:00244770       aSkippingShutdo
 0001:002447E0       aSystemCurren_6
 0001:00244848       aWaittokillserv
 0001:0024487C       aBeginningThr_0
 0001:002448B0       aThreatName_0
 0001:002448C8       aFinishedThre_1
 0001:002448F8       aRecoveredResou
 0001:00244920       aRestoredResour
 0001:00244944       aSchema_1
 0001:00244954       aQuarantineId
 0001:00244970       aInternalbeha_1
 0001:00244984       aBeginningQuara
 0001:002449C0       aFinishedQuaran
 0001:00244A0C       aPost
 0001:00244A18       aResourceAction
 0001:00244A4C       aFilesystemname
 0001:00244A6C       aDevicetype
 0001:00244A84       aResourceRefcou
 0001:00244AA8       aFilesystemattr
 0001:00244AD4       aCharacterist_0
 0001:00244AF4       aPre
 0001:00244AFC       aVfs_0
 0001:00244B18       aTerminateThrea
 0001:00244B48       aProcessTermina
 0001:00244BA8       aMemscanTermina
 0001:00244BFC       aResultPassTwo
 0001:00244C20       aTerminateProce
 0001:00244C4C       aResultPassOne
 0001:00244C70       aHklmSoftwareWo
 0001:00244CA8       aFinishedRegist
 0001:00244CF0       aSoftwareMic_41
 0001:00244D3C       aKey_1
 0001:00244D44       aMse1
 0001:00244D50       aHardenediehpsp
 0001:00244D70       aMserbm
 0001:00244D80       aMse4
 0001:00244D8C       aIehp
 0001:00244D98       aHardenediesp
 0001:00244DB4       aIehpsp
 0001:00244DC4       aHardenediehp
 0001:00244DE0       aIe
 0001:00244DE8       a000000000000_6
 0001:00244E34       aIesp
 0001:00244E40       aHardenedie
 0001:00244E58       aPac
 0001:00244E64       aResetid
 0001:00244E78       aLinkid
 0001:00244E8C       aFc_0
 0001:00244E98       aSvcversion
 0001:00244EB0       a617911
 0001:00244EC0       a617912
 0001:00244ED0       a617914
 0001:00244EE0       a617910
 0001:00244EF0       a617909
 0001:00244F00       a617907
 0001:00244F10       aMsse
 0001:00244F1C       aMsert1
 0001:00244F2C       aMssedf
 0001:00244F3C       aMse0
 0001:00244F48       aSearchscopes_2
 0001:00244F6C       aHomepagereset
 0001:00244F88       aUe13
 0001:00244F94       aEupp
 0001:00244FA0       aTriggeredreset
 0001:00244FC0       aToolname
 0001:00244FD8       aHkcuSoftware_4
 0001:00245058       aHttpApi_bing_c
 0001:002451A8       aHttpGo_micro_0
 0001:00245254       aMachineguid_0
 0001:00245270       aHttpWww_bing_0
 0001:002452EC       aUe14
 0001:002452F8       aAvres005
 0001:0024530C       aAvres004
 0001:00245320       aUe12
 0001:0024532C       aAvres001
 0001:00245340       aUe15
 0001:0024534C       aAvres002
 0001:00245360       aUe16
 0001:0024536C       aAvres003
 0001:00245380       aUe11
 0001:0024538C       aAvres006
 0001:002453A0       aUserprofileA_3
 0001:002454A0       aUserprofileA_4
 0001:00245578       aUserprofileA_2
 0001:00245648       aUserprofileA_6
 0001:00245728       aUserprofileA_5
 0001:00245810       aUserprofileSta
 0001:00245880       aSoftwareMic_44
 0001:00245900       aSoftwareClas_2
 0001:00245950       aUserprofileS_0
 0001:00245A0C       aExtoff
 0001:00245A20       aUserprofileApp
 0001:00245AD8       aUserprofileA_0
 0001:00245BB4       aApplicationdes
 0001:00245BE8       aHomedriveHomep
 0001:00245C48       aProgramfilesIn
 0001:00245CA8       a@SystemrootSys
 0001:00245D00       aUserprofileA_1
 0001:00245DB4       aHomedriveHom_0
 0001:00245DE0       aBing
 0001:00245DF0       aHttpGo_microso
 0001:00245E60       aEuppProtectedI
 0001:00245F18       aUserPreference
 0001:00245FE0       aDsp
 0001:00245FE8       aDhp
 0001:00245FF0       aUrl_1
 0001:00245FF8       aDisplayname_3
 0001:00246010       aSuggestionsurl
 0001:00246030       aSecondaryStart
 0001:0024605C       aStartPage
 0001:00246074       aDefaultscope
 0001:00246090       aSoftwareMic_42
 0001:002460E4       aMain_1
 0001:002460F0       aSoftwareMic_43
 0001:00246154       aSearchscopes
 0001:00246170       aErrorcontrol
 0001:0024618C       a??Ws
 0001:0024619C       aControlset03u
 0001:002461BC       aServicesWs
 0001:002461D8       aArgs
 0001:002461E4       aHklmSystem_0
 0001:00246200       LoadOrderGroup
 0001:00246224       aWsServices
 0001:00246240       aWsMpsystem08x0
 0001:00246274       aImagepath_0
 0001:0024628C       aControlset
 0001:002462A4       aControl
 0001:002462B4       aWsMpsystem08_0
 0001:002462F0       aOffline_0
 0001:00246300       aControlSession
 0001:00246330       aRebootReplaceH
 0001:00246358       aSave
 0001:00246364       aRebootSaveHive
 0001:00246398       aPendingfileren
 0001:002463E0       aThreatstatus
 0001:002463FC       aSExecuteU
 0001:0024641C       aRequestedactio
 0001:0024643C       aEffectiveremov
 0001:0024646C       aInactive
 0001:00246490       aLuaPanicWs
 0001:002464B0       aLuaPanicUnknow
 0001:002464E4       aNoscript
 0001:00246500       aWsWasRestored
 0001:00246524       aWsSuccessfully
 0001:00246558       aGetfilefromc_0
 0001:002465A8       aNewCsysiorepos
 0001:002465F8       aStartServiceFa
 0001:00246634       aOpenscmanagerF
 0001:00246660       aStartservicewF
 0001:0024669C       aOpenservicewFa
 0001:002466D4       aSystemrootSy_5
 0001:00246718       aBitsStartStopP
 0001:00246760       aHklmSystemC_26
 0001:002467B8       aHklmSystemC_27
 0001:00246818       aRestore_wu_bit
 0001:0024684C       aServiceRestore
 0001:00246888       aSystemrootSy_6
 0001:002468D0       aRestore_wu_b_0
 0001:00246910       aQueryservicest
 0001:00246958       aGetspecialdefa
 0001:002469A4       aWsRegistryRest
 0001:002469D0       aInvestigateSer
 0001:00246A60       aInvestigateS_0
 0001:00246B00       aInternalErrorW
 0001:00246B48       aServicerestora
 0001:00246B70       aDefaultregkeyR
 0001:00246BC8       aWsWasNotRestor
 0001:00246CF0       aMpisregkeyva_0
 0001:00246D04       aRegkeyvalue_1
 0001:00246D24       aHkcrClsid
 0001:00246D40       aActionRestor_3
 0001:00246D88       aActionRestor_2
 0001:00246DC8       aHklmSoftwar_86
 0001:00246E28       aHklmSoftwar_85
 0001:00246E68       aHklmSoftwar_84
 0001:00246EBC       aHklmSoftwar_83
 0001:00246EF0       aActionRemove_3
 0001:00246F38       aActionRemove_2
 0001:00246F78       aHklmSystem_1
 0001:00246F90       aOldType
 0001:00246FA4       aReplacedRegist
 0001:00246FD4       aResultCode
 0001:00246FF0       aFailedToChange
 0001:00247030       aAddAclToRegist
 0001:00247060       aCreatedOpenedR
 0001:00247098       aAddedRegistryV
 0001:002470C4       aOldData
 0001:002470D8       aReplaceAclOnRe
 0001:00247110       aRegistryValueA
 0001:00247150       aFailedToDele_0
 0001:00247190       aSddl
 0001:002471A0       aRegistryDefa_0
 0001:002471E8       aRegistryDefaul
 0001:00247228       aOriginalType
 0001:00247244       aOpen_1
 0001:00247250       aCreate_1
 0001:00247260       aRestoringDefau
 0001:002472AC       aRemovedRegistr
 0001:002472E0       aFailedToRemo_0
 0001:00247320       aOriginalData
 0001:0024733C       aNewValue
 0001:00247350       aValueType
 0001:00247368       aValueName
 0001:00247380       aSubkey
 0001:002473A0       PrefixString
 0001:002473A8       aQuarantineOp_1
 0001:00247404       aWinsockLsp
 0001:00247420       aActionRemove_5
 0001:00247470       aActionRemove_4
 0001:002474B8       aInternalErro_0
 0001:002474DC       aNotFound
 0001:002474F4       aNamespace
 0001:00247508       aTransport
 0001:0024751C       aLspType
 0001:00247540       aPid_4
 0001:00247548       aPostscan
 0001:0024755C       aSchedule
 0001:00247570       aActionSchedu_0
 0001:002475C0       aActionSchedule
 0001:00247604       aBinaryName
 0001:0024761C       aPid_0
 0001:00247628       aProcesspeatt_0
 0001:00247658       aActionRestor_4
 0001:0024769C       aParametersServ
 0001:002476CC       aSvchost_exe_0
 0001:002476E8       aHklmSystemCu_0
 0001:00247738       aActionSetFailu
 0001:00247798       aActionCreateSu
 0001:002477E0       aActionCreateFa
 0001:00247820       aActionRestor_5
 0001:0024786C       aServiceName
 0001:00247888       aServiceRestart
 0001:00247934       aSetFailureActi
 0001:00247960       aActionSetFai_0
 0001:002479C4       aStart_0
 0001:002479D0       aActionStartSuc
 0001:00247A18       aActionStartFai
 0001:00247A58       aStartType
 0001:00247A70       aSystem32_0
 0001:00247A88       aSystemCurre_13
 0001:00247ACC       aIntOverflow_
 0001:00247ADC       aIndexOutOfRa_0
 0001:00247AF0       aSystemroot_8
 0001:00247B0C       aModifiedSvchos
 0001:00247B3C       aModified
 0001:00247B50       aDeleted
 0001:00247B60       aModify
 0001:00247B70       aSystemrootSy_7
 0001:00247BB0       aNewData
 0001:00247BC4       aGroup_0
 0001:00247BD4       aServiceRemov_0
 0001:00247C0C       aServiceRemoval
 0001:00247C38       aSuccess
 0001:00247C48       aDisplayname
 0001:00247C64       aServiceStillAc
 0001:00247C90       aServiceStatusF
 0001:00247CBC       aOpenServiceFai
 0001:00247CE4       aScmOpenFailed
 0001:00247D04       aDelete_3
 0001:00247D14       aServiceKeyDele
 0001:00247D48       aServiceRegkeyO
 0001:00247D88       aDeleteserviceF
 0001:00247DC8       aType_5
 0001:00247DD8       aSoftwareMic_50
 0001:00247E44       aApppath
 0001:00247E58       aTypelibVersion
 0001:00247E7C       aVersion_5
 0001:00247E94       aTypelib_0
 0001:00247EAC       aRes_0
 0001:00247EB4       aAppname_0
 0001:00247EC8       aWin64
 0001:00247EDC       aWin32_1
 0001:00247EF0       aWin16_0
 0001:00247F04       aScriptsSS
 0001:00247F24       aFilesyspath
 0001:00247F40       aI8QbDTv0nH
 0001:00247F52       aT_16
 0001:00247F54       aAfileShellOpen
 0001:00247F8C       aExefileShellOp
 0001:00247FC8       aComfileShellOp
 0001:00248004       aCmdfileShellOp
 0001:00248040       aRegedit_exe1
 0001:00248064       aRegfileShellOp
 0001:002480A0       aPiffileShellOp
 0001:002480E0       aSystemrootS_10
 0001:00248130       aSystemrootS_11
 0001:0024817C       aTxtfileShellOp
 0001:002481B8       a1S
 0001:002481C8       aScrfileShellOp
 0001:00248204       aValueData
 0001:0024821C       aRegistryKey
 0001:00248238       aSystemrootS_12
 0001:0024828C       aVbsfileShellOp
 0001:002482C8       aActionRestor_6
 0001:0024830C       a1_2
 0001:0024831C       aBatfileShellOp
 0001:00248358       aKeyentry
 0001:00248370       aActionRestor_7
 0001:002483BC       aRegistryValue
 0001:002483DC       aReplace_0
 0001:002483F0       aActionReplaceS
 0001:00248448       aActionReplaceF
 0001:002484B8       aProgid_2
 0001:002484CC       aScript_4
 0001:002484E0       aMenutext_1
 0001:002484F8       aExec_4
 0001:00248508       aInstalledver_1
 0001:00248548       aContainsFile_0
 0001:00248568       aDownloadinform
 0001:002485A8       aInstalledver_2
 0001:002485D0       aDownloadinfo_0
 0001:00248604       aDebugger_3
 0001:0024861C       aBandclsid_0
 0001:00248634       aClsidextensi_0
 0001:00248658       aBand
 0001:00248664       aDomainprofile
 0001:00248680       aStandardprofil
 0001:002486A0       aDomainprofil_0
 0001:002486CC       aHttps_0
 0001:002486E0       aHttp_0
 0001:002486F0       aSubscribedurl
 0001:00248710       aSCS
 0001:00248720       aAsync
 0001:0024872C       aDebug
 0001:00248738       aAutoformat
 0001:00248750       aAutocheck
 0001:00248764       aListval
 0001:00248778       aActionRestor_9
 0001:002487C8       aActionRestor_8
 0001:0024880C       aRegkey_3
 0001:0024881C       aOriginalConten
 0001:00248840       aReplacingInReg
 0001:0024886C       aComponent
 0001:00248880       aRemovingListEn
 0001:002488A8       aListEntryRemov
 0001:002488E0       aSuccessfullyRe
 0001:00248930       aArscanstatusU
 0001:00248940       a_Sect
 0001:00248954       aVpath_0
 0001:0024895C       aBootSector
 0001:00248978       aActionCleanS_0
 0001:002489C8       aActionCleanF_0
 0001:00248A10       aSectorsize_0
 0001:00248A1C       aIsactive_1
 0001:00248A28       aCurrentlba_1
 0001:00248A34       aBootsigoffse_1
 0001:00248A44       aSuspiciosus
 0001:00248A60       aNorecursive
 0001:00248A7C       aRecursive
 0001:00248A94       aRawdiff
 0001:00248AA8       aRawexecutables
 0001:00248AC8       aRexecutables
 0001:00248AE4       aExecutables
 0001:00248B00       aRhiddenonly
 0001:00248B1C       aHiddenonly
 0001:00248B34       aRawdiffexecuta
 0001:00248B7C       aIeprotectstrea
 0001:00248BB8       aApp_name
 0001:00248BCC       aContent_1
 0001:00248BDC       aRedirect_chain
 0001:00248BFC       aContent_name
 0001:00248C18       aAmsistream
 0001:00248C4C       aMpfileexists
 0001:00248C68       aMpgetprocessna
 0001:00248C8C       aGeneratefilesh
 0001:00248CB0       aK
 0001:00248CB4       aVcIfktIMcUM
 0001:00248CCC       aZ_1
 0001:00248CD0       aJ_2
 0001:00248CD4       aZ_2
 0001:00248CD8       aD_8
 0001:00248CDC       aD_9
 0001:00248CE0       aG_7
 0001:00248CE4       aRestoreRequest
 0001:00248D28       aWsWsWs_1
 0001:00248D70       aAddcommonstrea
 0001:00248DA4       aS_S
 0001:00248DB0       aWsLlu
 0001:00248DC4       aSS_10
 0001:00248DD0       aT?nAkleS
 0001:00248DE4       aEllverb
 0001:00248DF4       aShellexecute
 0001:00248E10       aSS_11
 0001:00248E1C       aShellCommand
 0001:00248E4C       aSystemdrive_0
 0001:00248E78       aRestoreReque_0
 0001:00248EB4       aRemediatedAppx
 0001:00248F04       aAppxblockmap_x
 0001:00248F28       aAppxmanifest_x
 0001:00248F6C       aAppxsignature_
 0001:00248FA0       aInfected_0
 0001:00248FAC       aHkcu@WsWs
 0001:00248FC4       a@WsWs
 0001:00248FD8       aSoftwareMicros
 0001:00249030       aVLud18FW
 0001:00249044       a_RootDefault
 0001:00249064       aSelectFrom__ev
 0001:0024909C       aSelectFrom___0
 0001:002490D8       a_RootCimv2
 0001:002490F8       a_RootSubscript
 0001:00249124       a__path
 0001:00249138       aSelectFrom___1
 0001:002491A0       aSelectFrom(float,int)
 0001:002491F0       aDetectionIsBot
 0001:00249234       aMpiswmimofscan
 0001:0024926C       aWsUWsU
 0001:00249288       aName_2
 0001:00249298       aWsUWsUWsS
 0001:002492C4       aThreadstart
 0001:002492DC       aProc
 0001:002492E8       aName_3
 0001:002492F4       aProcessstart_0
 0001:00249310       aTid
 0001:00249318       aPid_3
 0001:00249330       aThread_0
 0001:00249340       aTid_0
 0001:00249358       aWsWcWsU
 0001:00249394       aSDI64d
 0001:002493AC       a0xI64x
 0001:002493BC       aSmsrpt
 0001:002493CC       aSmsrptDDUI64u
 0001:002493F8       aPidDProcesssta
 0001:0024944C       aBoottimetool
 0001:00249468       aDat
 0001:00249470       aSys
 0001:00249488       aFailedWritti_0
 0001:00249500       aUnexpectedEr_0
 0001:00249580       aDataIsCorrupt_
 0001:002495D0       aDataIsCorrup_0
 0001:00249638       aDataIsCorrup_1
 0001:002496A8       aItemHeaderCrcM
 0001:00249710       aErrorReadingDa
 0001:00249770       aDataCrcMismatc
 0001:002497D0       aUnexpectedErro
 0001:00249860       aFailedDeleting
 0001:002498C8       aErrorNtstatus0
 0001:00249928       aErrorInAddremf
 0001:00249988       aErrorInAddre_0
 0001:002499E8       aInvalidParamTo
 0001:00249A28       aRemcreatefileF
 0001:00249A98       aFailedToWriteH
 0001:00249B10       aFailedWritting
 0001:00249B98       aInvalidParam_4
 0001:00249BE8       aErrorReadingHe
 0001:00249C50       aRemopenfileFai
 0001:00249CB8       aRemreadfileFai
 0001:00249D20       aInvalidMagicNu
 0001:00249D88       aMainFileHeader
 0001:00249EE0       a08x04x04x02x_3
 0001:00249F4C       aRegistryMach_8
 0001:00249F84       aInvalidValuePa
 0001:00249FB8       aError0xXDele_1
 0001:00249FFC       aDeletedSS
 0001:0024A020       aBadPathDataInR
 0001:0024A070       aRemovedS
 0001:0024A08C       aError0xXMoving
 0001:0024A0C8       aMovedSToS
 0001:0024A0E8       aBadPathDataI_0
 0001:0024A138       aError0xXSettin
 0001:0024A180       aUpdatedSS
 0001:0024A1A0       aError0xXDeleti
 0001:0024A1DC       aSuccess0xXDele
 0001:0024A21C       aError0xXDele_0
 0001:0024A25C       aDeletedS
 0001:0024A278       aError0xXGettin
 0001:0024A2D8       aError0xXGett_0
 0001:0024A348       aError0xXRemovi
 0001:0024A37C       aGenericItemS
 0001:0024A3A4       aTypeDNotSuppor
 0001:0024A404       aSigroutine_inp
 0001:0024A444       aAmcoreMpeng_57
 0001:0024A480       aCallinfo_statu
 0001:0024A4D8       aSigroutine_out
 0001:0024A508       riid
 0001:0024A518       rclsid
 0001:0024A548       aCloseadapterco
 0001:0024A584       aPnpeventhandle
 0001:0024A5A4       aUnloadhandler
 0001:0024A5C0       aUninstallhandl
 0001:0024A5E4       aBindadapterhan
 0001:0024A610       aUnbindadapterh
 0001:0024A640       aOpenadapterc_0
 0001:0024A680       aSendnetbufferl
 0001:0024A6C4       aCostatushandle
 0001:0024A6E8       aCoafregisterno
 0001:0024A71C       aCoreceivenetbu
 0001:0024A75C       aRequestcomplet
 0001:0024A78C       aStatushandler
 0001:0024A7B0       aStatuscomplete
 0001:0024A7DC       aReceivenetbuff
 0001:0024A818       aNdisProtocolBl
 0001:0024A82C       aNdis_sys
 0001:0024A840       aNdisgetversion
 0001:0024A850       aNdisregisterpr
 0001:0024A868       aNdisderegister
 0001:0024A880       aTransferdataco
 0001:0024A8B8       aResetcompleteh
 0001:0024A8E4       aReceivehandler
 0001:0024A908       aReceivecomplet
 0001:0024A938       aCosendnetbuffe
 0001:0024A980       aOpenadaptercom
 0001:0024A9B8       aCloseadapter_0
 0001:0024A9F0       aSendcompleteha
 0001:0024AA18       aCoreceivepacke
 0001:0024AA48       aOidrequestcomp
 0001:0024AA7C       aReceivehandl_0
 0001:0024AA9C       aStatushandle_0
 0001:0024AAB8       aReceivepacketh
 0001:0024AAE4       aBindadapterh_0
 0001:0024AB0C       aUnbindadapte_0
 0001:0024AB38       aCosendcomplete
 0001:0024AB64       aCMtF6JA3
 0001:0024AB74       aKbdclass
 0001:0024AB88       aNdis
 0001:0024AB94       aTcpip
 0001:0024ABA0       aDisk_0
 0001:0024ABAC       aAlureon_starti
 0001:0024ABD8       aDriverinit0xI3
 0001:0024AC04       aAtapi
 0001:0024AC10       aAlureon_rsrc_g
 0001:0024AC34       a_rsrc
 0001:0024AC3C       aAlureon_gen
 0001:0024AC64       aIp
 0001:0024AC6C       aTcp
 0001:0024AC74       aUdp
 0001:0024AC7C       aMux
 0001:0024AC84       aUdfs
 0001:0024AC90       aFat
 0001:0024AC98       aWebdav
 0001:0024ACA8       aRedirector
 0001:0024ACC0       aMup
 0001:0024ACC8       aDeviceSDriverW
 0001:0024ACF8       aPointer
 0001:0024AD08       aNtfs_1
 0001:0024AD14       aCdfs
 0001:0024AD20       aRaw
 0001:0024AD28       aKeyboard
 0001:0024AD4C       aSrvnttransac_0
 0001:0024AD6C       aSrv_sys
 0001:0024AD7C       aUnableToLocate
 0001:0024ADBC       aSrvtransaction
 0001:0024ADDC       aSrvnttransacti
 0001:0024AE08       aSrv_sysIsNotSi
 0001:0024AE20       aPage
 0001:0024AE28       a_data
 0001:0024AE30       a_rdata
 0001:0024AE58       aGdtr_hi
 0001:0024AE60       aGdtr_lo
 0001:0024AE78       aSysentr_lo
 0001:0024AEB4       aUnknown_9
 0001:0024AEC8       aCodemodificati
 0001:0024AEDC       aKeservicedescr
 0001:0024AEF8       aKeservicedes_0
 0001:0024AF2C       aNtdll_dll_2
 0001:0024AF44       aZw
 0001:0024AF48       aAlignmentCheck
 0001:0024AF58       aMachineCheck
 0001:0024AF68       aSimdFloatingPo
 0001:0024AF88       aGeneralProtect
 0001:0024AF9C       aPageFault
 0001:0024AFA8       aIntelReserved
 0001:0024AFB8       aX86FpuFloating
 0001:0024AFE4       aIntelReserve_0
 0001:0024AFF4       aNmi
 0001:0024AFF8       aBreakpoint
 0001:0024B004       aOverflow
 0001:0024B010       aDivideError
 0001:0024B020       aCoprocessorSeg
 0001:0024B03C       aInvalidTss
 0001:0024B048       aSegmentNotPres
 0001:0024B05C       aStackSegmentFa
 0001:0024B070       aBoundRangeExce
 0001:0024B088       aInvalidOpcodeU
 0001:0024B0AC       aDeviceNotAvail
 0001:0024B0D8       aDoubleFault
 0001:0024B108       aKddisabledebug
 0001:0024B11C       aKddebuggerenab
 0001:0024B150       aCr4_lo
 0001:0024B158       aCr3_lo
 0001:0024B178       aAntirootkitPla
 0001:0024B1B8       aSvchost_exe
 0001:0024B1E4       aKomoku_mem
 0001:0024B1FC       aKomoku_cpu
 0001:0024B214       aCPagefile3_sys
 0001:0024B238       aCWindows_0
 0001:0024B250       aCWindowsSystem
 0001:0024B27C       aU254s0xX
 0001:0024B28C       aCPagefile_sys
 0001:0024B2AC       aCPagefile1_sys
 0001:0024B2D0       aCPagefile2_sys
 0001:0024B304       aIUcd6Qnqdi
 0001:0024D224       a@_4
 0001:0024D684       aAsprotectEmbed
 0001:0024D69C       aAsprotectSim_0
 0001:0024D6B4       aAsprotectLicen
 0001:0024E6FC       __SEH_prolog4
 0001:0024E741       __SEH_epilog4
 0001:0024F3B8       aAssemblyXmlnsU
 0001:0024F9F0       aMpAsprotectLic
 0001:0024FA28       aAbcdefghijklmn
 0001:0024FA94       aSavekey
 0001:0024FA9C       aRemovekey
 0001:0024FAA8       aGethardwareide
 0001:0024FAB8       aGetregistratio
 0001:0024FACC       aGetregistrat_0
 0001:0024FAE8       aCheckkey
 0001:0024FAF4       aCheckkeyanddec
 0001:0024FB08       aGetexpirationd
 0001:0024FB1C       aGetmodeinforma
 0001:0024FB30       aGethardwareid
 0001:0024FB40       aSetuserkey
 0001:0024FB4C       aGetkeydate
 0001:0024FB58       aGetkeyexpirati
 0001:0024FB70       aGettrialdays
 0001:0024FB80       aGettrialexecs
 0001:0024FB90       aAspr_ide_dll
 0001:0024FBA0       aRaiseexception
 0001:0024FC50       aZip
 0001:0024FC68       aMaximumNumberO
 0001:0024FC84       aTooManyImporte
 0001:0024FCD0       aCrypter1337VD_
 0001:0024FCE8       aSplit_0
 0001:0024FD0C       aOptions_txtHer
 0001:0024FD30       aCrypted_exe_uc
 0001:0024FD5C       aHe3NspackDamag
 0001:0025002C       aSvkpVD_DS
 0001:00251178       aIRrrrrrrrrrrrr
 0001:00253114       aDamaged_0
 0001:0025311C       aUpxw64
 0001:00253124       aUpxwDamaged
 0001:00253218       aNotEplApplicat
 0001:00253230       aFailedToOpenFi
 0001:00253248       aKrnln_fnr
 0001:00253284       aCatalog_entr_0
 0001:002532A4       aCatalog_entrie
 0001:002532C8       aNum_catalog__0
 0001:002532F0       aNum_catalog_en
 0001:0025331C       aProviderid
 0001:00253334       a012d
 0001:00253340       aDisplaystring
 0001:0025335C       aLibrarypath
 0001:00253374       aPackedcatalogi
 0001:00253398       aRS1ec2_s?mug
 0001:002533AA       aW_3
 0001:002533AC       aS2_32_dll
 0001:002533C0       aWscupdateprovi
 0001:002533D4       aWsagetlasterro
 0001:002533E4       aWscinstallprov
 0001:002533F8       aWscenumprotoco
 0001:0025340C       aWsacleanup
 0001:00253418       aWsastartup
 0001:00253424       aWscuninstallna
 0001:0025343C       aWscwriteprovid
 0001:00253454       aWscdeinstallpr
 0001:0025346C       aWsaenumnamespa
 0001:00253488       aWscgetprovider
 0001:002534BC       aSTemp_reg
 0001:002534F8       aSystemCurre_10
 0001:002535CC       aNnmzcop9_IVaIx
 0001:00253808       aArgument
 0001:00253814       aRequestguid_1
 0001:00253820       aHold_1
 0001:00253828       aTtl_1
 0001:0025382C       aDisableblob_1
 0001:00253838       aDisable_0
 0001:00253840       aEnableblob_1
 0001:0025384C       aEnable_1
 0001:00253854       aCompression_1
 0001:00253860       aBlobsasuri_0
 0001:0025386C       aRevision_1
 0001:00253878       aSamplerate_0
 0001:00253884       aXmlns_1
 0001:0025389C       aDomainname_s_1
 0001:002538B0       aDomainname_1
 0001:002538BC       aFullcommandl_4
 0001:002538D8       aFullcommandl_3
 0001:002538E8       aCommandline__1
 0001:00253900       aCommandline_1
 0001:0025390C       aState_3
 0001:00253914       aRemoteport_1
 0001:00253920       aLocalport_0
 0001:0025392C       aRemoteip_1
 0001:00253938       aProtocol_1
 0001:00253944       aModule_0
 0001:0025394C       aIssuer_3
 0001:00253954       aInstalledver_3
 0001:00253968       aSigner_2
 0001:00253970       aLastmodified_2
 0001:00253980       aVa_2
 0001:00253984       aDriverlog_1
 0001:00253990       aUsername_scr_0
 0001:002539A4       aTokenelevati_3
 0001:002539B4       aIntegritylev_1
 0001:002539C4       aUsername_0
 0001:002539D0       aTokenelevati_4
 0001:002539E4       aCodebase_0
 0001:002539F0       aInf
 0001:002539F4       aCodebase_scr_1
 0001:00253A08       aFirstfiletim_1
 0001:00253A18       aExpensivefil_1
 0001:00253A2C       aNotfoundcoun_1
 0001:00253A3C       aLastfiletime_1
 0001:00253A4C       aCollectionty_0
 0001:00253A5C       aSelectionrat_0
 0001:00253A6C       aReportlimit_1
 0001:00253A78       aTotalfilecou_1
 0001:00253A88       aPath_5
 0001:00253A90       aOriginalname_1
 0001:00253AA0       aPearch_1
 0001:00253AA8       aPath_scrubbe_1
 0001:00253AB8       aKcrc3n_1
 0001:00253AC0       aKcrc3_2
 0001:00253AC8       aNewfiletype_1
 0001:00253AD4       aMarkoftheweb_1
 0001:00253AE4       aSignerhash_1
 0001:00253AF0       aTimestampuin_0
 0001:00253B00       aPublisher_1
 0001:00253B0C       aPetype_1
 0001:00253B14       aSamplesubmis_1
 0001:00253B38       aSampleconsen_1
 0001:00253B50       aClassificati_1
 0001:00253B60       aAuthenticode_3
 0001:00253B74       aIssuerhash_1
 0001:00253B80       aHashedpath_1
 0001:00253B8C       aKcrc2_2
 0001:00253B94       aKcrc1_2
 0001:00253B9C       aCreationtime_1
 0001:00253BAC       aFiletype_1
 0001:00253BB8       aFilename_2
 0001:00253BC4       aReghive_1
 0001:00253BCC       aVal_1
 0001:00253BD0       aDisplayname_2
 0001:00253BDC       aCommand_scru_1
 0001:00253BF0       aCommand_2
 0001:00253BF8       aVal_scrubbed_1
 0001:00253C08       aVersion_6
 0001:00253C10       aIsprimary_0
 0001:00253C1C       aWscservice_1
 0001:00253C28       aClean_1
 0001:00253C30       aProduct_1
 0001:00253C38       aUptodate_0
 0001:00253C44       aProductexpir_1
 0001:00253C54       aActionstatus_2
 0001:00253C64       aDeterminatio_1
 0001:00253C74       aCylinders_1
 0001:00253C80       aSectornumber
 0001:00253C90       aUrl_0
 0001:00253C94       aOrder_2
 0001:00253C9C       aUrl_scrubbed_1
 0001:00253CAC       aRegvaluedata_2
 0001:00253CBC       aRegkey_1
 0001:00253CC4       aRegvaluename_1
 0001:00253CD4       aRegvaluedata_3
 0001:00253CEC       aReporttype_1
 0001:00253CF8       aOriginalsigs_4
 0001:00253D08       aRpfscsirewbl_1
 0001:00253D18       aRpfremediati_1
 0001:00253D30       aFilterdriver_1
 0001:00253D44       aDisksize_1
 0001:00253D50       aMediatype_1
 0001:00253D5C       aInfectedrpfs_1
 0001:00253D74       aVpath_scrubb_1
 0001:00253D84       aTrackspercyl_1
 0001:00253D98       aWin32actions_1
 0001:00253DAC       aSurplussecto_0
 0001:00253DBC       aSectorspertr_0
 0001:00253DCC       aThreattrack_13
 0001:00253DE0       aThreatid_3
 0001:00253DEC       aBehaviorname_1
 0001:00253DFC       aBehaviordeta_0
 0001:00253E0C       aSignatureid_1
 0001:00253E18       aBehaviorvalu_3
 0001:00253E30       aBehaviorvalu_2
 0001:00253E40       aSensorid_1
 0001:00253E4C       aModulename_1
 0001:00253E58       aDescription_1
 0001:00253E64       aDetectionnam_1
 0001:00253E74       aFeatureid_1
 0001:00253E80       aArdata_0
 0001:00253E88       aArsigid_1
 0001:00253E90       aArscore_1
 0001:00253E98       aHandle_1
 0001:00253EA0       aFlags_2
 0001:00253EA8       aImagename_1
 0001:00253EB4       aHooktype_1
 0001:00253EC0       aEventmin_1
 0001:00253ECC       aEventmax_1
 0001:00253ED8       aExploitmode_1
 0001:00253EE4       aExploitinfo_1
 0001:00253EF0       aWmicaller_1
 0001:00253EFC       aThreadid_1
 0001:00253F08       aLogtype_1
 0001:00253F10       aInjectiontyp_1
 0001:00253F20       aTarget_scrub_1
 0001:00253F30       aOperationmet_1
 0001:00253F44       aDrivername_2
 0001:00253F50       aCveid_1
 0001:00253F58       aEtwid_1
 0001:00253F60       aDriverpath_1
 0001:00253F6C       aAccessrights_0
 0001:00253F7C       aCallbackaddr_1
 0001:00253F8C       aApiresults_1
 0001:00253F98       aTargetpid_1
 0001:00253FA4       aTargetimage__1
 0001:00253FBC       aGroup_3
 0001:00253FC4       aVmaccessremo_1
 0001:00253FD4       aTargetimage_1
 0001:00253FE0       aAccessmask_0
 0001:00253FEC       aActionid_1
 0001:00253FF8       aIsinfected_1
 0001:00254004       aIshotpluggab_1
 0001:00254014       aBootsectorba_0
 0001:0025402C       aDevicename_s_1
 0001:00254040       aDevicename_1
 0001:0025404C       aIskernel_1
 0001:00254058       aIsduplicate_1
 0001:00254064       aDesktopname_1
 0001:00254070       aDesktopacces_0
 0001:00254080       aLshash_1
 0001:00254088       aLowintegrity_1
 0001:0025409C       aMotwhostip_1
 0001:002540A8       aLshashs_2
 0001:002540B0       aHoldineligib_1
 0001:002540C8       aHashedfullpa_1
 0001:002540D8       aIsvfz_1
 0001:002540E0       aImphash_2
 0001:002540E8       aPeheader_1
 0001:002540F4       aPartialcrc3_2
 0001:00254100       aRealpath_scr_1
 0001:00254114       aRealpath_0
 0001:00254120       aMotwhosturl__1
 0001:00254138       aMotwhosturl_1
 0001:00254144       aPartialcrc2_2
 0001:00254150       aPartialcrc1_2
 0001:0025415C       aAgent_0
 0001:00254164       aCtph_1
 0001:0025416C       aCrc16_1
 0001:00254174       aFilequeryonl_1
 0001:00254184       aFilechanged_1
 0001:00254190       aClassifiersc_7
 0001:002541A0       aAuthenticode_7
 0001:002541B4       aClassifiersc_9
 0001:002541C8       aClassifiersc_8
 0001:002541DC       aFileindex_1
 0001:002541E8       aRam_0
 0001:002541EC       aNames_2
 0001:002541F4       aWebfilebrows_1
 0001:00254204       aScenario_1
 0001:00254210       aWebfileurl_1
 0001:0025421C       aWebfileip_1
 0001:00254228       aResearchdata_3
 0001:00254240       aRequeryineli_1
 0001:00254258       aRtpprocessna_2
 0001:00254268       aWebfileurl_s_1
 0001:0025427C       aProfiletype_0
 0001:00254288       aWmipath_scru_1
 0001:0025429C       aWmipath_1
 0001:002542A4       aMenutext_2
 0001:002542B0       aGuid_3
 0001:002542B8       aDebugger_0
 0001:002542C4       aExec_scrubbe_1
 0001:002542D4       aSigseqstring_1
 0001:002542E4       aRegvalue_1
 0001:002542F0       aRegvalue_scr_1
 0001:00254304       aProgid_0
 0001:0025430C       aFrom_scrubbe_1
 0001:0025431C       aCheckpoint_1
 0001:00254328       aApplicationp_1
 0001:0025433C       aDestinationa_4
 0001:00254358       aDestinationa_3
 0001:0025436C       aSourceaddres_1
 0001:00254384       aSourceaddres_0
 0001:00254394       aSourceport_1
 0001:002543A0       aSourcenetwor_0
 0001:002543B0       aDestinationp_1
 0001:002543C0       aDestinationn_1
 0001:002543D4       aNrisigid_1
 0001:002543E0       aNridata_1
 0001:002543E8       aFilename_scr_1
 0001:002543FC       aTableid_1
 0001:00254404       aFunctionname_1
 0001:00254414       aTablename_1
 0001:00254420       aSigrev
 0001:00254428       aManipulation_1
 0001:0025443C       aRegkeylastwr_1
 0001:00254450       aRegistryvalu_3
 0001:00254468       aRegistryvalu_2
 0001:00254478       aTo_scrubbed_1
 0001:00254484       aFunctioninde_0
 0001:00254494       aRegkeyvalue__1
 0001:002544AC       aRegkeyvalue_3
 0001:002544B8       aPartialsigna_1
 0001:002544CC       aBehaviortime_0
 0001:002544DC       aAccountid_sc_1
 0001:002544F0       aAccountid_0
 0001:002544FC       aProcesstaint_3
 0001:00254510       aProcesstaint_2
 0001:00254520       aSignature_2
 0001:0025452C       aScore_0
 0001:00254534       aLevel_1
 0001:0025453C       aEnforcerestr_1
 0001:00254558       aMultiprocess_0
 0001:00254568       aModulelist_1
 0001:00254574       aBmeventids_0
 0001:00254580       aRtpnewfilehi_1
 0001:00254590       aRtpdesiredac_0
 0001:002545A4       aClsid_2
 0001:002545AC       aUri_scrubbed_1
 0001:002545BC       aRtpprocessfr_1
 0001:002545D0       aSourceip_0
 0001:002545DC       aDestinationi_3
 0001:002545F4       aUri_2
 0001:002545F8       aSourceip_scr_0
 0001:0025460C       aDestinationip
 0001:0025461C       aIpv6sourcehi_4
 0001:00254634       aIpv6sourcehi_3
 0001:00254644       aIpv6sourcelo_3
 0001:0025465C       aIpv6sourcelo_2
 0001:0025466C       aIpv6destinat_8
 0001:0025468C       aIpv6destinat_7
 0001:002546A0       aIpv6destina_10
 0001:002546BC       aIpv6destinat_9
 0001:002546D0       aDynamicloade_0
 0001:002546E0       aProtocolid_1
 0001:002546EC       aIpv4destinat_4
 0001:00254708       aIpv4destinat_3
 0001:00254718       aIpv4source_s_1
 0001:0025472C       aIpv4source_1
 0001:00254738       aDeprecatedip_4
 0001:00254750       aDeprecatedipv6
 0001:0025476C       aSystemfileca_4
 0001:00254780       aSystemdisksi_0
 0001:00254790       aVsssnapshotc_1
 0001:002547A4       aVsspathscoun_1
 0001:002547B4       aCompetitives_1
 0001:002547D4       aAutomaticsteps
 0001:002547E8       aSystemdiskfr_0
 0001:002547F8       aQuarantinesi_1
 0001:00254808       aAdditionalfa_1
 0001:00254820       aActionname_1
 0001:0025482C       aFullpath_2
 0001:00254838       aFilelocation_1
 0001:00254848       aFullpath_scr_1
 0001:0025485C       aErrorcode_2
 0001:00254868       aSizeondisk_0
 0001:00254874       aInstallutcti_1
 0001:00254884       aInstallerr_1
 0001:00254890       aDetectutctim_1
 0001:002548A0       aDetecterr
 0001:002548AC       aDownloadutct_1
 0001:002548BC       aDownloaderr_1
 0001:002548C8       aVsssnapshott_1
 0001:002548D8       aVsssnapshote_1
 0001:002548EC       aIsuser_1
 0001:002548F4       aExtension_0
 0001:00254900       aIpv6low_1
 0001:00254908       aIpv6high_0
 0001:00254914       aIpv4_1
 0001:0025491C       aAdapterindex_0
 0001:0025492C       aActivereason_1
 0001:0025493C       aActive_2
 0001:00254944       aAmsicontentn_4
 0001:00254954       aAmsiappid_1
 0001:00254960       aLsp_3
 0001:00254964       aIevext_2
 0001:0025496C       aTaskschedule_1
 0001:0025497C       aSafeboot_2
 0001:00254988       aBootverifica_2
 0001:0025499C       aAppmodelmoni_1
 0001:002549AC       aChecksum_2
 0001:002549B8       aCertinvalidd_1
 0001:002549CC       aAmsiredirect_2
 0001:002549E0       aAmsicontentn_5
 0001:002549FC       aAmsiuacident_1
 0001:00254A10       aAmsisessioni_1
 0001:00254A20       aAppmodeldeve_0
 0001:00254A34       aAppinitdll_0
 0001:00254A40       aGinadll_2
 0001:00254A48       aAutorun_1
 0001:00254A50       aFriendlysupp_1
 0001:00254A64       aFriendlysigs_6
 0001:00254A74       aGenericstrea_4
 0001:00254A90       aGenericstrea_3
 0001:00254AA8       aFrameurl_scr_1
 0001:00254ABC       aFrameurl_1
 0001:00254AC8       aFriendlysigs_5
 0001:00254AE0       aFriendlysigs_4
 0001:00254AF0       aIscontainer_1
 0001:00254AFC       aIscloudsigna_1
 0001:00254B10       aIsincontaine_1
 0001:00254B20       aIsesusig_1
 0001:00254B2C       aHostappversi_1
 0001:00254B3C       aGenericstrea_5
 0001:00254B54       aIscatalogsig_1
 0001:00254B64       aIsautoruninf_1
 0001:00254B74       aCrc4_1
 0001:00254B7C       aCpuarch_1
 0001:00254B84       aCscleanhash_1
 0001:00254B90       aCrc8_1
 0001:00254B98       aControlhtml_1
 0001:00254BA4       aControlguid_1
 0001:00254BB0       aControlversi_1
 0001:00254BC0       aControlpath_1
 0001:00254BCC       aFilesystem_1
 0001:00254BD8       aFiledevicety_1
 0001:00254BE8       aFrameip_1
 0001:00254BF0       aFramehtml_2
 0001:00254BFC       aCsrepos_1
 0001:00254C04       aCsremoteresu_1
 0001:00254C14       aFiledevicech_1
 0001:00254C30       aFileaccess_1
 0001:00254C3C       aSigningtime_0
 0001:00254C48       aSignaturetim_1
 0001:00254C5C       aStreamip_0
 0001:00254C68       aStartupuserf_0
 0001:00254C7C       aReswin32acti_1
 0001:00254C94       aRestoretype_1
 0001:00254CA0       aSha512_0
 0001:00254CA8       aScanreason_0
 0001:00254CB4       aTargetdisksi_1
 0001:00254CC4       aTargetdiskfr_1
 0001:00254CD4       aTobesignedha_1
 0001:00254CE4       aThreatidex_1
 0001:00254CF0       aStreamurl_1
 0001:00254CFC       aStreamtype_0
 0001:00254D08       aSubtype_1
 0001:00254D10       aStreamurl_sc_1
 0001:00254D24       aLockingproce_1
 0001:00254D38       aLastmodified_3
 0001:00254D4C       aLoopilhash_2
 0001:00254D58       aIsmplcencode_1
 0001:00254D68       aIsinheritedm_1
 0001:00254D78       aLastaccessed_1
 0001:00254D8C       aIsruntimepac_1
 0001:00254D9C       aReferrerurl__1
 0001:00254DB4       aReferrerurl_1
 0001:00254DC0       aResourcesche_1
 0001:00254DD0       aRemediationc_8
 0001:00254DE8       aOwnersid_1
 0001:00254DF4       aMftshadowfil_1
 0001:00254E10       aPagecontext_1
 0001:00254E1C       aWinlogonsyst_2
 0001:00254E2C       aUsntimestamp_0
 0001:00254E3C       aWinlogontask_2
 0001:00254E4C       aTriggersigse_2
 0001:00254E60       aTriggersigse_1
 0001:00254E70       aUrlzone_0
 0001:00254E78       aTriggersigsh_1
 0001:00254E88       aParentevent_1
 0001:00254E94       aModification_1
 0001:00254EA4       aParentfilefu_4
 0001:00254EC0       aParentfilefu_3
 0001:00254ED4       aAllsiblingsh_1
 0001:00254EE4       aAllsha1_1
 0001:00254EEC       aEngineversio_4
 0001:00254EFC       aAvsigversion_2
 0001:00254F0C       aPersistevent_3
 0001:00254F20       aPersistevent_2
 0001:00254F30       aPersistscanr_1
 0001:00254F44       aPersistguid_1
 0001:00254F50       aParentfilepa_3
 0001:00254F60       aParentfilena_1
 0001:00254F70       aPersistedtim_1
 0001:00254F80       aParentfilepa_4
 0001:00254F98       aAllchildrens_0
 0001:00254FA8       aAllancestrys_0
 0001:00254FB8       aRemoteproce_23
 0001:00254FD4       aRemoteproce_22
 0001:00254FF4       aRemoteproce_25
 0001:0025501C       aRemoteproce_24
 0001:0025503C       aRemoteproce_19
 0001:00255060       aRemoteproce_18
 0001:0025507C       aRemoteproce_21
 0001:00255094       aRemoteproce_20
 0001:002550AC       aContentsha25_1
 0001:002550BC       aContentsha1_0
 0001:002550C8       aRemoteproce_27
 0001:002550E8       aRemoteproce_26
 0001:00255104       aSigversion_1
 0001:00255110       aProcessfilep_6
 0001:0025512C       aProcessfilep_5
 0001:0025513C       aProcessinteg_1
 0001:00255154       aProcessid_2
 0001:00255160       aProcessfilef_3
 0001:00255174       aProcesseleva_1
 0001:00255188       aProcessfilen_1
 0001:00255198       aProcessfilef_4
 0001:002551B8       aProgenitorpe_3
 0001:002551D0       aProcesstoken_4
 0001:002551EC       aRemoteproce_17
 0001:00255204       aProgenitorpe_4
 0001:0025521C       aProcessstart_7
 0001:0025523C       aProcessstart_6
 0001:00255254       aProcesstoken_3
 0001:0025526C       aProcessstart_8
 0001:00255280       aRkhash_1
 0001:00255288       aAssociatedfi_0
 0001:002552A0       aDeepscan_1
 0001:002552AC       aCollectreaso_1
 0001:002552BC       aChildindices_1
 0001:002552CC       aRelatedto_1
 0001:002552D8       aParentindice_1
 0001:002552E8       aRttimestddev_1
 0001:002552F8       aRttimehistor_1
 0001:00255308       aSdn_0
 0001:0025530C       aScansource_0
 0001:00255318       aDsssource_1
 0001:00255324       aAveragerttim_0
 0001:00255334       aRtsd_2
 0001:0025533C       aLowficount_1
 0001:00255348       aLastchangeti_1
 0001:00255358       aIschanged_1
 0001:00255364       aOriginalthre_1
 0001:00255378       aNewthreatid_1
 0001:00255384       aFound_1
 0001:0025538C       aChangevalidate
 0001:0025539C       aValidationty_1
 0001:002553AC       aData_scrubbe_1
 0001:002553BC       aSchema_3
 0001:002553C4       aSampletype_0
 0001:002553D0       aSampleparame_0
 0001:002553E0       aSampledata_0
 0001:002553EC       aHeartbeatfun_1
 0001:00255404       aHeartbeatfea_1
 0001:0025541C       aHeartbeaterr_8
 0001:00255434       aHeartbeaterr_3
 0001:0025544C       aLaststartupt_1
 0001:0025545C       aLastofflinet_1
 0001:0025546C       aHresult_2
 0001:00255474       aErrorfield_1
 0001:00255480       aEnvironment_0
 0001:0025548C       aDeploymentun_0
 0001:0025549C       aInstanceid_0
 0001:002554A8       aGeo_0
 0001:002554AC       aContenttype
 0001:002554B8       aRequestcount_0
 0001:002554C8       aRequestcity_0
 0001:002554D4       aUnused_1
 0001:002554DC       aRequestorgan_0
 0001:002554F4       aMatchedprepr_0
 0001:00255510       aMatcheddsbst_0
 0001:0025552C       aRegion_0
 0001:00255534       aProtocol_2
 0001:00255540       aExclusionval_4
 0001:00255558       aExclusionval_3
 0001:00255568       aExclusiontyp_1
 0001:00255578       aStringvalue_0
 0001:00255584       aIdentifier_0
 0001:00255590       aEndtime
 0001:00255598       aHighpriority_1
 0001:002555A8       aWcdmachineid_0
 0001:002555B8       aDatatype_1
 0001:002555C4       aLastupdatedt_1
 0001:002555D4       aIntegralvalu_1
 0001:002555E4       aDatamode
 0001:002555F0       aHashedproces_1
 0001:00255604       aHashedfilepa_1
 0001:00255614       aMaximumfiles_1
 0001:0025562C       aIsprocessfri_1
 0001:00255640       aFilesha1_1
 0001:0025564C       aClosescanscoun
 0001:0025565C       aLostfiletime_1
 0001:0025566C       aEndtimefiletim
 0001:0025567C       aRealfilepath_3
 0001:00255694       aRealfilepath_2
 0001:002556A4       aRealprocessp_4
 0001:002556C0       aRealprocessp_3
 0001:002556D0       aOpenscanscou_1
 0001:002556E0       aMinimumfiles_1
 0001:002556F8       aProcesssha1_1
 0001:00255704       aProcessname_1
 0001:00255710       aScantimems_1
 0001:0025571C       aNotbeforetim_1
 0001:00255730       aNewsize_1
 0001:00255738       aNotaftertime_1
 0001:0025574C       aTotalrtpeven_1
 0001:00255760       aTelemetryerr_1
 0001:00255778       aTotaltimems_1
 0001:00255784       aProcesserror_1
 0001:00255798       aLostprocesst_1
 0001:002557AC       aStarttimefil_0
 0001:002557C0       aQueueerrorsc_1
 0001:002557D4       aFilestillexi_1
 0001:002557E4       aNewsha256_1
 0001:002557F0       aNewsha1_1
 0001:002557F8       aDnsname_2
 0001:00255800       aIpv4data_1
 0001:0025580C       aDnsname_scru_1
 0001:00255820       aPointerdata__1
 0001:00255838       aPointerdata_1
 0001:00255844       aRecordname_2
 0001:00255850       aPreference_1
 0001:0025585C       aIpv6datalow_1
 0001:00255868       aIpv6datahigh_1
 0001:00255878       aMxname_scrub_1
 0001:00255888       aMxname_1
 0001:00255890       aAxurl_1
 0001:00255898       aAutoelevate_1
 0001:002558A4       aComrequestor_1
 0001:002558B4       aComclsid_1
 0001:002558C0       aExeappname_1
 0001:002558CC       aComserverbin_1
 0001:002558DC       aBlocked_1
 0001:002558E4       aAxurl_scrubb_1
 0001:002558F4       aBlockingtrig_4
 0001:0025590C       aBlockingtrig_3
 0001:00255924       aTrustedstate_1
 0001:00255934       aRequestorsha_1
 0001:00255944       aCurrentsha1_1
 0001:00255950       aCompletiontime
 0001:00255960       aMsiaction_1
 0001:0025596C       aExedllparame_1
 0001:0025597C       aMsipackagepa_4
 0001:00255994       aMsipackagepa_3
 0001:002559A4       aExeappsha1_1
 0001:002559B0       aExeappname_s_1
 0001:002559C4       aExecommandli_4
 0001:002559DC       aExecommandli_3
 0001:002559EC       aRequestoril_1
 0001:002559F8       aPkappfamilyn_1
 0001:00255A08       aRequestornam_3
 0001:00255A20       aRequestornam_2
 0001:00255A30       aPkappappname_1
 0001:00255A40       aPkappappid_1
 0001:00255A4C       aPkappcommand_4
 0001:00255A68       aPkappcommand_3
 0001:00255A7C       aValuehash_1
 0001:00255A88       aNamespacegui_1
 0001:00255A98       aValuestart_1
 0001:00255AA4       aValuesize_1
 0001:00255AB0       aVariablename_1
 0001:00255AC0       aVariableattr_1
 0001:00255AD4       aRsignalcode_1
 0001:00255AE0       aResourceresu_1
 0001:00255AF0       aScanid_1
 0001:00255AF8       aRsignalresul_1
 0001:00255B08       aTriggeringpr_1
 0001:00255B20       aResourcecreate
 0001:00255B34       aMapshttpstat_2
 0001:00255B44       aMapshresult_2
 0001:00255B50       aMapsonconnec_5
 0001:00255B68       aMapsonconnec_4
 0001:00255B7C       aMapsclientla_2
 0001:00255B90       aMapsgenerate_2
 0001:00255BA4       aMapscreateco_2
 0001:00255BC0       aMapsonsendst_2
 0001:00255BD4       aMapsonsenden_2
 0001:00255BE8       aMapsreadresp_2
 0001:00255C00       aMapsparselat_2
 0001:00255C14       aMapsonfirsts_2
 0001:00255C2C       aMapsonfirstr_2
 0001:00255C48       aMapsonresolv_5
 0001:00255C60       aMapsonresolv_4
 0001:00255C78       aChangedsha1_1
 0001:00255C84       aBafsextended_0
 0001:00255CA0       aFilereadtick_1
 0001:00255CB0       aFilecopytick_1
 0001:00255CC0       aMpcmdrunspin_1
 0001:00255CD4       aMapsroundtri_1
 0001:00255CE8       aCompressiont_1
 0001:00255CFC       aChangedsha25_1
 0001:00255D0C       aEndtoendtick_1
 0001:00255D1C       aConsentticks_1
 0001:00255D2C       aMapssendurla_2
 0001:00255D40       aMapssendrequ_2
 0001:00255D54       aMapsreportgu_2
 0001:00255D64       aMapsreceiver_2
 0001:00255D7C       aMapssendover_2
 0001:00255D94       aMapssendlate_2
 0001:00255DA4       aSubstatus_0
 0001:00255DB0       aRemaininghol_1
 0001:00255DC4       aQueuedticks_1
 0001:00255DD0       aSubmissionty_0
 0001:00255DE0       aRescaninelig_1
 0001:00255DF8       aBfsigversion_2
 0001:00255E08       aBfsigversion_1
 0001:00255E18       aBiosversion_2
 0001:00255E24       aBiosreleased_2
 0001:00255E34       aAzurenodeid__1
 0001:00255E4C       aAzurenodeid_1
 0001:00255E58       aAzurevirtual_4
 0001:00255E7C       aAzurevirtual_3
 0001:00255E94       aCachedproxys_3
 0001:00255EA8       aCachedaccess_1
 0001:00255EBC       aCachedtpmid_1
 0001:00255EC8       aCachedproxys_4
 0001:00255EE4       aBmnotificati_1
 0001:00255EF8       aBmhresult_1
 0001:00255F04       aBmstarttime_1
 0001:00255F10       aBmprocessarg_1
 0001:00255F28       aSpynetreport_2
 0001:00255F3C       aAunotificati_1
 0001:00255F4C       aAssigversion_1
 0001:00255F5C       aAutosampleop_4
 0001:00255F74       aAutosampleop_3
 0001:00255F84       aAik_1
 0001:00255F88       aTesthook_0
 0001:00255F94       aAsimovdevice_1
 0001:00255FA8       aAppversion_2
 0001:00255FB4       aGradualrelea_1
 0001:00255FC4       aGeoid_1
 0001:00255FCC       aHeartbeatcon_1
 0001:00255FE4       aHasavcompatv_1
 0001:00255FF8       aEsusigversio_1
 0001:00256008       aEnginereport_1
 0001:0025601C       aFirewall_1
 0001:00256028       aEsusigversio_2
 0001:0025603C       aIsmsftintern_1
 0001:0025604C       aIsheartbeat_1
 0001:00256058       aIsmanaged_1
 0001:00256064       aIsbeta_1
 0001:0025606C       aIever_1
 0001:00256074       aIesmartscree_1
 0001:00256084       aIp_address_s_0
 0001:00256098       aIp_address_0
 0001:002560A4       aComputerdnsn_6
 0001:002560C0       aComputerdnsn_5
 0001:002560D0       aComputernetb_3
 0001:002560E4       aComputerdnsn_7
 0001:002560F8       aCampgradualr_1
 0001:0025610C       aCachedtpmid__1
 0001:00256124       aCloudblockle_1
 0001:00256134       aCioptions_1
 0001:00256140       aDssrecoveryr_1
 0001:0025615C       aDeviceid_scr_1
 0001:00256170       aEngineloadti_0
 0001:00256180       aEkpub_1
 0001:00256188       aCurrenttimes_1
 0001:0025619C       aComputernetb_4
 0001:002561BC       aDeviceid_1
 0001:002561C8       aDep_1
 0001:002561CC       aMsamachineid_3
 0001:002561E4       aMsamachineid_2
 0001:002561F4       aNonce_1
 0001:002561FC       aMsrtheartbea_1
 0001:00256210       aMinutessince_3
 0001:00256228       aMinutessince_2
 0001:00256244       aMpgearversio_1
 0001:00256254       aMpfilterhear_1
 0001:0025626C       aOldmachinegu_4
 0001:00256284       aOldmachinegu_3
 0001:00256294       aOrgid_scrubb_1
 0001:002562A4       aOrgid_2
 0001:002562AC       aNrisigversio_1
 0001:002562BC       aNrienginever_1
 0001:002562D0       aOfficeversio_1
 0001:002562E0       aOahresult_1
 0001:002562EC       aLastquicksca_1
 0001:00256300       aLastfullscan_1
 0001:00256310       aLocalipaddre_1
 0001:00256320       aLcid_1
 0001:00256328       aIssevilleena_1
 0001:0025633C       aIspassivemod_2
 0001:0025634C       aIssxspassive_1
 0001:00256360       aIssqmtest_1
 0001:0025636C       aMachinesqmid_3
 0001:00256384       aMachinesqmid_2
 0001:00256394       aMembership_1
 0001:002563A0       aMapsorigin_1
 0001:002563AC       aMachineguid__1
 0001:002563C4       aMachineguid_2
 0001:002563D0       aMachinename__1
 0001:002563E8       aMachinename_1
 0001:002563F4       aQueryonly_1
 0001:00256400       aPvpring_1
 0001:00256408       aRtpconfigfla_1
 0001:00256418       aReporttime_1
 0001:00256424       aProxyserver_1
 0001:00256430       aProxypacurl_1
 0001:0025643C       aPuamode_1
 0001:00256444       aProxyserver__1
 0001:0025645C       aSdnrevisionn_0
 0001:0025646C       aSdnrevision_0
 0001:00256478       aSenseguid_sc_0
 0001:0025648C       aSenseguid_1
 0001:00256498       aRtpstate_1
 0001:002564A4       aRtphresult_1
 0001:002564B0       aScanconfigfl_1
 0001:002564C0       aRtpstatebitf_1
 0001:002564D4       aOstype_2
 0001:002564DC       aOssuite_1
 0001:002564E4       aOsver_2
 0001:002564EC       aOsupgraded_1
 0001:002564F8       aOsbuildlab_1
 0001:00256504       aOsbuild_1
 0001:0025650C       aOsproducttyp_1
 0001:0025651C       aOsmetrics_1
 0001:00256528       aPbrdata_1
 0001:00256530       aPartnerguid__1
 0001:00256548       aProductguid_1
 0001:00256554       aProcessor_1
 0001:00256560       aOwnerauthful_1
 0001:00256570       aOwnerauthadm_1
 0001:00256580       aPartnerguid_1
 0001:0025658C       aParentproces_1
 0001:0025659C       aUacconsentus_0
 0001:002565AC       aUacconsentad_0
 0001:002565BC       aUacluaenable_0
 0001:002565CC       aUacdesktoppr_0
 0001:002565E0       aTpmready_1
 0001:002565EC       aTpmmanufactu_1
 0001:00256600       aTpmuniqueid__1
 0001:00256618       aTpmuniqueid_1
 0001:00256624       aWdolastrun_1
 0001:00256630       aVia_1
 0001:00256634       aWuuniqueid_1
 0001:00256640       aWerconsentva_1
 0001:00256650       aUimode_1
 0001:00256658       aUefisecurebo_1
 0001:00256670       aUniqueid_scr_0
 0001:00256684       aUniqueid_0
 0001:00256690       aSmartscreen_0
 0001:0025669C       aSigupdatessi_1
 0001:002566B4       aStillalivehe_0
 0001:002566C8       aSmode_0
 0001:002566D0       aSigbackupdis_1
 0001:002566E4       aServicestate_0
 0001:002566F4       aSigneddigest_0
 0001:00256704       aSignatureupd_1
 0001:00256718       aSystemmanufa_0
 0001:0025672C       aSysmodel_0
 0001:00256738       aTestsignings_1
 0001:0025674C       aSystemproduc_0
 0001:00256760       aSupportedcom_0
 0001:00256778       aStudyid_1
 0001:00256780       aSysmfg_0
 0001:00256788       aSysmarker_0
 0001:00256794       aWuuniqueid_s_1
 0001:002567A8       a04d
 0001:002567B0       a03d
 0001:002567B8       a06_3f
 0001:002567C0       a_16g
 0001:002567C8       a02d02d02d
 0001:002567D8       a04d02d02d02d_0
 0001:002567F8       a02d
 0001:00256800       aUnableToUseFun
 0001:00256834       a_SWS
 0001:00256840       aLlu
 0001:00256848       aLlu_0
 0001:00256850       aSz09
 0001:0025685C       aUnordered
 0001:00256868       aNoskipscan
 0001:00256874       aCannotDetachDa
 0001:00256890       aNoSuchDatabase
 0001:002568A8       aDatabaseSIsLoc
 0001:002568C0       a_F
 0001:002568C8       aIntegerOverflo
 0001:002568DC       aEscapeExpressi
 0001:0025690C       aLikeOrGlobPatt
 0001:00256930       aInteger_0
 0001:00256938       aBlob_0
 0001:00256940       aReal
 0001:00256948       a_20e
 0001:00256950       aAutomaticExten
 0001:00256978       aQ
 0001:0025697C       aSchemaHidden
 0001:0025698C       aArgHidden
 0001:00256998       aQ_
 0001:0025699C       aPragma
 0001:002569A4       aCreateTableX
 0001:002569B4       aS_19
 0001:002569BC       aCS_1
 0001:002569C4       aNoSuchSModeS
 0001:002569D8       aAccess
 0001:002569E0       aNoSuchVfsS
 0001:002569F0       aSModeNotAllowe
 0001:00256A08       aRo
 0001:00256A0C       aMode
 0001:00256A14       aRwc
 0001:00256A18       aRw
 0001:00256A1C       aInvalidUriAuth
 0001:00256A38       aLocalhost_1
 0001:00256A44       aPrivate_0
 0001:00256A4C       aCache
 0001:00256A58       aUnableToDelete
 0001:00257CB0       aThreat_0
 0001:00257CB8       aSame
 0001:00257CC0       aDiff
 0001:00257CD0       aMax_scan
 0001:00258158       a_textLp00mpeng
 0001:0025817C       a_textLp01mpeng
 0001:00258198       aP_10
 0001:002581A0       a_textLp03mpeng
 0001:002581C4       aPC
 0001:002581CC       a_textLp04mpeng
 0001:002581F8       a_textLp06mpeng
 0001:0029A5B0       GetSigFiles
 0001:0029B3B0       rsignal
 0001:0029B460       __rsignal
 0001:00399F20       FreeSigFiles
 0001:003A0320       nullsub_18
 0001:003A5600       nullsub_13
 0001:003C72B0       nullsub_14
 0001:00496030       nullsub_15
 0001:00504DFB       nullsub_16
 0001:00534D30       nullsub_23
 0001:00538330       DllEntryPoint
 0001:005419E0       LocaleEnumProc
 0001:00550289       RtlUnwind
 0001:0055028F       RtlNtStatusToDosError
 0001:005502A0       GetLastError
 0001:005502B0       HeapAlloc
 0001:005502C0       GetProcessHeap
 0001:005502D0       HeapFree
 0001:005502E0       QueryPerformanceCounter
 0001:005502F0       GetCurrentProcessId
 0001:00550300       GetSystemTimeAsFileTime
 0001:00550310       MultiByteToWideChar
 0001:00550320       WideCharToMultiByte
 0001:00550330       OutputDebugStringA
 0001:00550340       OutputDebugStringW
 0001:00550350       HeapSize
 0001:00550360       HeapReAlloc
 0001:00550370       WriteFile
 0001:00550380       FlushFileBuffers
 0001:00550390       CloseHandle
 0001:005503A0       CreateFileW
 0001:005503B0       Sleep
 0001:005503C0       GetTickCount
 0001:005503D0       SetFilePointer
 0001:005503E0       GetFileAttributesW
 0001:005503F0       GetFullPathNameW
 0001:00550400       CreateFileMappingW
 0001:00550410       MapViewOfFile
 0001:00550420       UnmapViewOfFile
 0001:00550430       GetSystemInfo
 0001:00550440       DeleteFileW
 0001:00550450       GetFileAttributesExW
 0001:00550460       SystemTimeToFileTime
 0001:00550470       GetTempPathW
 0001:00550480       GetFileSize
 0001:00550490       ReadFile
 0001:005504A0       WaitForSingleObject
 0001:005504B0       LocalFree
 0001:005504C0       GetVersionExW
 0001:00556C50       StartAddress
 0001:0056AF40       FormatMessageW
 0001:0056AF50       FormatMessageA
 0001:0056AF60       CreateFileA
 0001:0056AF70       GetSystemTime
 0001:0056AF80       HeapCreate
 0001:0056AF90       HeapValidate
 0001:0056AFA0       HeapDestroy
 0001:0056AFB0       WaitForSingleObjectEx
 0001:0056AFC0       SetEndOfFile
 0001:0056AFD0       GetTempPathA
 0001:0056AFE0       HeapCompact
 0001:0056AFF0       CreateMutexW
 0001:0056B000       GetFileAttributesA
 0001:0056B010       GetDiskFreeSpaceW
 0001:0056FC40       AreFileApisANSI
 0001:0056FC50       LockFile
 0001:0056FC60       GetFullPathNameA
 0001:0056FC70       UnlockFileEx
 0001:0056FC80       GetDiskFreeSpaceA
 0001:0056FC90       FlushViewOfFile
 0001:0056FCA0       GetVersionExA
 0001:0056FCB0       DeleteFileA
 0001:0056FCC0       UnlockFile
 0001:0056FCD0       CreateFileMappingA
 0001:0056FCE0       LockFileEx
 0001:00594485       __EH_prolog3_GS_align
 0001:005944F3       __EH_prolog3_align
 0001:00594556       __EH_prolog3_catch_GS_align
 0001:005945C5       __EH_prolog3_catch_align
 0001:0059AABF       sub_5A69BABF
 0001:0059E933       j_nullsub_13_49
 0001:005A08D4       j_nullsub_13_50
 0001:005A0D80       j_nullsub_13_51
 0001:005A2DF0       j_nullsub_13_52
 0001:005A2E0A       j_nullsub_13_53
 0001:005A411D       j_nullsub_13_54
 0001:005A75D8       j_nullsub_13_55
 0001:005A77EF       j_nullsub_13_56
 0001:005A7C26       j_nullsub_13_57
 0001:005A8058       j_nullsub_13_58
 0001:005A8F9E       SEH_5A6DB3D0
 0001:005AA339       j_nullsub_13_59
 0001:005AA419       j_nullsub_13_60
 0001:005AAAF1       j_nullsub_13_61
 0001:005AB1DF       j_nullsub_13_62
 0001:005AC6BE       j_nullsub_13_63
 0001:005AE5D8       j_nullsub_13_64
 0001:005AFB1E       j_nullsub_13_65
 0001:005AFCB4       j_nullsub_13_66
 0001:005B1AF1       j_nullsub_13_67
 0001:005B1F96       j_nullsub_13_68
 0001:005B333F       j_nullsub_13_69
 0001:005B33AD       j_nullsub_13_70
 0001:005B3400       j_nullsub_13_71
 0001:005B3B4F       j_nullsub_13_72
 0001:005B4723       j_nullsub_13_73
 0001:005B4ED1       j_nullsub_13_74
 0001:005B65B2       j_nullsub_13_75
 0001:005B8C6C       j_nullsub_13_76
 0001:005BC321       j_nullsub_13_77
 0001:005BE8EB       j_nullsub_13_78
 0001:005BE8F8       j_nullsub_13_79
 0001:005BF073       j_nullsub_13_81
 0001:005BF212       j_nullsub_13_80
 0001:005C0C9C       j_nullsub_13_82
 0001:005C12F3       j_nullsub_13_84
 0001:005C132D       j_nullsub_13_83
 0001:005C1C08       j_nullsub_13_88
 0001:005C1C15       j_nullsub_13_89
 0001:005C1C4F       j_nullsub_13_87
 0001:005C1C89       j_nullsub_13_86
 0001:005C1CC3       j_nullsub_13_85
 0001:005C4DF7       j_nullsub_13_90
 0001:005C5707       j_nullsub_13_91
 0001:005C6E8C       j_nullsub_13_92
 0001:005C8E2E       j_nullsub_13_93
 0001:005C8E3E       j_nullsub_13_94
 0001:005CBF0A       j_nullsub_13_95
 0001:005CBF58       j_nullsub_13_96
 0001:005CC7B0       j_nullsub_13_97
 0001:005CC7B5       j_nullsub_13_98
 0001:005D9900       j_nullsub_13_48
 0001:005D9930       j_nullsub_13
 0001:005D9970       j_nullsub_13_0
 0001:005D99B0       j_nullsub_13_1
 0001:005D99F0       j_nullsub_13_2
 0001:005D9A30       j_nullsub_13_3
 0001:005D9A70       j_nullsub_13_4
 0001:005DA270       j_nullsub_13_5
 0001:005DA480       j_nullsub_13_6
 0001:005DA4C0       j_nullsub_13_7
 0001:005DA500       j_nullsub_13_8
 0001:005DA540       j_nullsub_13_9
 0001:005DA580       j_nullsub_13_10
 0001:005DA5C0       j_nullsub_13_11
 0001:005DA600       j_nullsub_13_12
 0001:005DA640       j_nullsub_13_13
 0001:005DA680       j_nullsub_13_14
 0001:005DA6C0       j_nullsub_13_15
 0001:005DA700       j_nullsub_13_16
 0001:005DA740       j_nullsub_13_17
 0001:005DA780       j_nullsub_13_18
 0001:005DA7C0       j_nullsub_13_19
 0001:005DA800       j_nullsub_13_20
 0001:005DA840       j_nullsub_13_21
 0001:005DA880       j_nullsub_13_22
 0001:005DA8C0       j_nullsub_13_23
 0001:005DA900       j_nullsub_13_24
 0001:005DA940       j_nullsub_13_25
 0001:005DA980       j_nullsub_13_26
 0001:005DA9C0       j_nullsub_13_27
 0001:005DAA00       j_nullsub_13_28
 0001:005DAA40       j_nullsub_13_29
 0001:005DAA80       j_nullsub_13_30
 0001:005DAAC0       j_nullsub_13_31
 0001:005DAB00       j_nullsub_13_32
 0001:005DAB40       j_nullsub_13_33
 0001:005DAB80       j_nullsub_13_34
 0001:005DABC0       j_nullsub_13_35
 0001:005DAC00       j_nullsub_13_36
 0001:005DAC40       j_nullsub_13_37
 0001:005DAC80       j_nullsub_13_38
 0001:005DACC0       j_nullsub_13_39
 0001:005DAD00       j_nullsub_13_40
 0001:005DAD40       j_nullsub_13_41
 0001:005DAD80       j_nullsub_13_42
 0001:005DADC0       j_nullsub_13_43
 0001:005DAE00       j_nullsub_13_44
 0001:005DAE40       j_nullsub_13_45
 0001:005DAE80       j_nullsub_13_46
 0001:005DAEC0       j_nullsub_13_47
 0001:005DB050       nullsub_24
 0001:006D2A6A       nullsub_25
 0001:006D8040       MpContainerAnalyze
 0001:006D8070       MpContainerClose
 0001:006D80C0       MpContainerCloseObject
 0001:006D80E0       MpContainerCommit
 0001:006D8110       MpContainerDelete
 0001:006D8140       MpContainerFreeObjectInfo
 0001:006D8160       MpContainerGetNext
 0001:006D81A0       MpContainerOpen
 0001:006D82C0       MpContainerOpenObject
 0001:006D82F0       MpContainerRead
 0001:006D8330       MpContainerSetSize
 0001:006D8360       MpContainerWrite
 0001:006D8390       MpBootStrap
 0001:009FFA4C       TlsStart
 0001:009FFA54       TlsEnd
 0001:00A69242       aMpengine_dll
 0001:00A6924F       aMpbootstrap
 0001:00A6925B       aFreesigfiles
 0001:00A69268       aGetsigfiles
 0001:00A69274       aMpcontainerana
 0001:00A69287       aMpcontainerclo
 0001:00A69298       aMpcontainerc_0
 0001:00A692AF       aMpcontainercom
 0001:00A692C1       aMpcontainerdel
 0001:00A692D3       aMpcontainerfre
 0001:00A692ED       aMpcontainerget
 0001:00A69300       aMpcontainerope
 0001:00A69310       aMpcontainero_0
 0001:00A69326       aMpcontainerrea
 0001:00A69336       aMpcontainerset
 0001:00A69349       aMpcontainerwri
 0001:00A6935A       a__rsignal
 0001:00A69364       aRsignal
 0002:00001970       aLsm
 0002:00001C70       aDs_1
 0002:00001C80       aTO
 0002:00001DF0       aVZl
 0002:00001E00       aTis
 0002:00001E30       a1i
 0002:00001E40       aXR
 0002:00001E78       a?16
 0002:00003780       aRrb
 0002:00003790       aAq4l
 0002:00003C00       a_?auluaversion
 0002:00003C28       a_?avlib_7z@@
 0002:00003C40       a_?avi7z@@
 0002:00003C80       a_?avzheader@@
 0002:00003C98       a_?avdtstate@dt
 0002:00003D08       a_?avnufsp_ar@@
 0002:00003D20       a_?avnufsp_ishl
 0002:00003D40       a_?avnufsp_mach
 0002:00003D60       a_?avnufsp_binh
 0002:00003D98       a_?aujsarrayobj
 0002:00003DE8       a_?aujsheapobje
 0002:00003E68       a_?av?Znumberar
 0002:00003E88       a_?avzreadonreq
 0002:00003EA8       a_?av?_ref_coun
 0002:00003EE0       a_?avcpkcs7sign
 0002:00003F08       a_?avcpkcs7si_0
 0002:00003F28       a_?avcx509certi
 0002:00003F50       a_?avcpkcs6cert
 0002:00003F70       a_?avmetadatava
 0002:00003F98       a_?av?Crefobjec
 0002:00003FD8       a_?auimetadatav
 0002:00004078       a_?avcctlconten
 0002:00004098       a_?avctimestamp
 0002:000040E0       a_?aumodificati
 0002:00004158       a_?aujsfunction
 0002:00004178       a_?aujsregexpob
 0002:00004198       a_?avvmm_x32_co
 0002:000041B8       a_?av?Vmm_conte
 0002:00004208       a_?avvmm_contex
 0002:00004228       a_?avvmm_cont_0
 0002:00004260       a_?av?Crefobj_0
 0002:00004298       a_?auivaluestor
 0002:000042D8       a_?av?Crefobj_1
 0002:00004340       a_?avcresmgrfol
 0002:00004378       a_?aukcrcuserda
 0002:00004398       a_?avssffiledir
 0002:000043D0       a_?avssffilestr
 0002:00004410       a_?avzipfilenam
 0002:00004440       a_?avcsignature
 0002:00004478       a_?avipublickey
 0002:000044E0       a_?avvirtualfil
 0002:00004548       a_?avcpecompact
 0002:00004570       a_?av?Ctype@d@s
 0002:000045B0       a_?avpolyboxdec
 0002:000045D0       a_?audecryptor@
 0002:000045E8       a_?avvmm_x64_co
 0002:00004608       a_?av?Vmm_con_0
 0002:00004658       a_?aussffindite
 0002:00004690       a_?avunjc@@
 0002:000046B8       a_?avunpackfilt
 0002:000046E0       a_?avufsreader@
 0002:000046F8       a_?aupage@modif
 0002:00004718       a_?aviohelper@@
 0002:00004730       a_?avi7z_iohelp
 0002:00004750       a_?av?Vmm_con_1
 0002:000047A0       a_?avautocoinit
 0002:000047C0       a_?avout_of_ran
 0002:000047E0       a_?avruntime_er
 0002:00004800       a_?avapiredirec
 0002:00004820       a_?avmodelppm@p
 0002:00004840       a_?av?Net_conte
 0002:00004860       a_?avzippkwaree
 0002:000048F0       a_?av?Crefobj_2
 0002:00004970       a_?av?_func_imp
 0002:00004A08       a_?avmyfixupinf
 0002:00004A30       a_?av?_func_i_0
 0002:00004AB8       a_?av?_func_bas
 0002:00004B00       a_?av?_func_i_1
 0002:00004B98       a_?av?_func_i_2
 0002:00004C50       a_?avunplibmemr
 0002:00004CB0       a_?avvfowriter@
 0002:00004CC8       a_?avstreambuff
 0002:00004D38       a_?authreadobje
 0002:00004DB8       a_?ausemaphoreo
 0002:00004E08       a_?av?Unplibgen
 0002:00004E70       a_?av?Unplibg_0
 0002:00004EE0       a_?av?Unplibg_1
 0002:00004F30       a_?av?Unplibg_2
 0002:00004F78       a_?av?Unplibg_3
 0002:00004FC0       a_?avunplibread
 0002:00004FE0       a_?avunplibwrit
 0002:000050B0       a_?av?Unplibg_4
 0002:00005100       a_?av?Unplibg_5
 0002:00005148       a_?avssffilefat
 0002:00005180       a_?avufsnodefin
 0002:000051D8       a_?aviufsnodefi
 0002:000051F8       a_?avnufsp_cab@
 0002:00005210       a_?avnufsp_quan
 0002:00005248       a_?avufsionotif
 0002:00005268       a_?avcsmscontex
 0002:000052A0       a_?avasyncworkc
 0002:00005308       a_?aucleanupthr
 0002:00005358       a_?av?Crefobj_3
 0002:000053A0       a_?auimpthreadp
 0002:000053C8       a_?avcdeobfusca
 0002:000053F8       a_?avcemulation
 0002:00005440       a_?avdtlibemuen
 0002:00005460       a_?avibaseemula
 0002:000054B0       a_?avufsnode@@
 0002:000054C8       a_?avcrefvirtua
 0002:00005518       a_?aviufsnode@@
 0002:00005530       a_?aviufsfileio
 0002:00005570       a_?avufsmtscanu
 0002:000055E8       a_?avnufsp_nati
 0002:00005648       a_?avcresmgrfil
 0002:000056B0       a_?avrpffilerea
 0002:000056F0       a_?av?Crefobj_4
 0002:00005730       a_?auasyncresou
 0002:000057A8       a_?avcprofilemg
 0002:000057F8       a_?avcudfdirect
 0002:00005870       a_?avcpmprofile
 0002:000058C8       a_?avscanhandle
 0002:000058E8       a_?auiscanhandl
 0002:00005920       a_?avsignatureh
 0002:00005940       a_?avzmainstrea
 0002:00005960       a_?avzheaderenc
 0002:00005980       a_?autaskmanage
 0002:00005A08       a_?avmpengineco
 0002:00005A50       a_?avzunpackinf
 0002:00005A90       a_?avnufsp_svfo
 0002:00005AB0       a_?avufspluginm
 0002:00005AD0       a_?avnufsp_chm@
 0002:00005AE8       a_?avnufsp_html
 0002:00005B38       a_?avnufsp_unic
 0002:00005BB8       a_?avnufsp_mime
 0002:00005BF0       a_?avcontextual
 0002:00005C10       a_?avattributem
 0002:00005C60       a_?avautoselfvf
 0002:00005C80       a_?auvfsfiledat
 0002:00005CB8       a_?avsigdetecti
 0002:00005D70       a_?auimpthrea_0
 0002:00005DA0       a_?aujsheap@@
 0002:00005DB8       a_?aumutablesto
 0002:00005DF0       a_?avcudfvolume
 0002:00005E28       a_?av?Refcustom
 0002:00005E70       a_?av?Customque
 0002:00005F80       a_?av?Priority_
 0002:000060C0       a_?av?Crefobj_5
 0002:00006148       a_?av?Crefobj_6
 0002:000061A0       a_?avcofflinere
 0002:000061C0       a_?avthrottling
 0002:000061E0       a_?avx64_il_tra
 0002:00006200       a_?avx86_il_com
 0002:00006240       a_?avdt_context
 0002:00006278       a_?avop_manager
 0002:000062B0       a_?avfusion_swi
 0002:00006308       a_?avx86_il_tra
 0002:00006328       a_?avcmpthreadp
 0002:000063D8       a_?avarscansche
 0002:000063F8       a_?avsysio@@
 0002:00006448       a_?auisysiocont
 0002:00006498       a_?avzsizes@@
 0002:000064B0       a_?avznumunpack
 0002:000064D0       a_?av?Znumber_0
 0002:000064F0       a_?avzunpacksiz
 0002:00006520       a_?av?Znumber_1
 0002:00006540       a_?avdnsinforeg
 0002:00006560       a_?avndatreneri
 0002:00006588       a_?auresmgrclea
 0002:000065E8       a_?avnufsp_udf@
 0002:00006600       a_?avscavengert
 0002:00006798       a_?avpdf_dictio
 0002:000067B8       a_?avscheduledt
 0002:000067F8       a_?av?Crefobj_7
 0002:00006838       a_?auitlskey@co
 0002:00006880       a_?avlsasysioli
 0002:000068D8       a_?av?Crefobj_8
 0002:00006940       a_?avcwimcompre
 0002:00006968       a_?avrawwriteha
 0002:00006988       a_?avpevirtualm
 0002:000069A8       a_?avmemorywrit
 0002:000069E0       a_?av?Enable_sh
 0002:00006A20       a_?aussffindhan
 0002:00006A90       a_?av?Csysiopro
 0002:00006B78       a_?auisysioinfo
 0002:00006B98       a_?auunpackcont
 0002:00006BF8       a_?av?_ref_co_0
 0002:00006C30       a_?avssffile@@
 0002:00006C48       a_?av?Csysiop_0
 0002:00006C88       a_?avpefilewrit
 0002:00006CC0       a_?av?Enable__0
 0002:00006D78       a_?avufsiocache
 0002:00006DF8       a_?av?Csysiop_1
 0002:00006E50       a_?avcsysioinfo
 0002:00006E90       a_?av?Csysiop_2
 0002:00006ED8       a_?avcsysiorequ
 0002:00006F18       a_?avpdf_array@
 0002:00006F30       a_?avcpkcs7cont
 0002:00006F50       a_?av?Csysiop_3
 0002:00007010       a_?avlzstreamra
 0002:00007050       a_?avbuffer_7z@
 0002:00007068       a_?avzstreammgr
 0002:000070C8       a_?avdecompress
 0002:000070F0       a_?avzipfilerea
 0002:00007128       a_?avswfhstrcle
 0002:00007178       a_?avautocleanu
 0002:000071D0       a_?avautoclea_0
 0002:00007248       a_?av?Rallocarr
 0002:00007290       a_?av?Filteredt
 0002:00007308       a_?avnufsp_vfz@
 0002:00007320       a_?avnufsp_chmi
 0002:00007358       a_?avnufsp_ole2
 0002:00007390       a_?avnufsp_zip@
 0002:000073A8       a_?avnufsp_imag
 0002:000073F8       a_?avnufsp_lh@@
 0002:00007410       a_?avnufsp_sit@
 0002:00007428       a_?avufstar@@
 0002:00007440       a_?avnufsp_bh@@
 0002:00007458       a_?avnufsp_bga@
 0002:00007470       a_?avnufsp_nsv1
 0002:000074C0       a_?avtotalpacke
 0002:000074E0       a_?avcfailurete
 0002:00007500       a_?auifailurete
 0002:00007520       a_?avcresmgrpro
 0002:00007540       a_?avprocessnot
 0002:00007568       a_?aupersisteds
 0002:000075D8       a_?av?Mrulist@u
 0002:00007628       a_?av?Mrulist_0
 0002:00007718       a_?aujsprototyp
 0002:00007740       a_?au?Jsproxied
 0002:000077E0       a_?aujsprotot_0
 0002:00007808       a_?au?Jsproxi_0
 0002:00007848       a_?aujsconstruc
 0002:00007910       a_?aujsprotot_1
 0002:00007A08       a_?au?Jsproxi_1
 0002:00007B40       a_?au?Jsproxi_2
 0002:00007B80       a_?aujsdomobjec
 0002:00007BB8       a_?au?Jsproxi_3
 0002:00007D20       a_?avcpasswordd
 0002:00007D68       a_?avstatsclass
 0002:00007D90       a_?aujsforeignf
 0002:00007DB8       a_?au?Jsproxi_4
 0002:00007DF0       a_?aujsfuncti_0
 0002:00007E20       a_?au?Jsfunctio
 0002:00007EC8       a_?au?Jsfunct_0
 0002:00007F30       a_?au?Jsfunct_1
 0002:00007F98       a_?au?Jsfunct_2
 0002:00007FE0       a_?au?Jsfunct_3
 0002:00008028       a_?aujsconstr_0
 0002:00008050       a_?au?Jsfunct_4
 0002:00008090       a_?aujsconstr_1
 0002:000080B8       a_?au?Jsfunct_5
 0002:00008120       a_?au?Jsfunct_6
 0002:00008168       a_?au?Jsfunct_7
 0002:000081A8       a_?au?Jsfunct_8
 0002:00008210       a_?au?Jsfunct_9
 0002:00008258       a_?au?Jsfunc_10
 0002:000082E0       a_?au?Jsfunc_11
 0002:00008348       a_?avdebugregis
 0002:00008368       a_?avnamedbreak
 0002:00008388       a_?aujsnonnativ
 0002:000083B0       a_?auvirtualreg
 0002:00008418       a_?av?Crefobj_9
 0002:00008480       a_?auidetection
 0002:000084E0       a_?av?Crefob_10
 0002:00008518       a_?auienvmatch@
 0002:00008530       a_?aujsargument
 0002:00008550       a_?aujsstringob
 0002:00008570       a_?avupack39@@
 0002:00008588       a_?avupack37@@
 0002:000085A0       a_?avupack35@@
 0002:000085B8       a_?avupack33@@
 0002:000085D0       a_?avupack24@@
 0002:000085E8       a_?avupack22@@
 0002:00008600       a_?avupack20@@
 0002:00008618       a_?avupack10@@
 0002:00008630       a_?avpe_upack@@
 0002:00008648       a_?avupack38@@
 0002:00008660       a_?avlogskip@@
 0002:00008678       a_?avcdelayedst
 0002:000086C0       a_?avctimercall
 0002:000086F0       a_?av?Crefob_11
 0002:00008738       a_?auitimercall
 0002:00008760       a_?auadvsamples
 0002:000087E8       a_?autree@virtu
 0002:00008838       a_?avcfoldergua
 0002:00008860       a_?aufilesstash
 0002:000088C8       a_?avnotificati
 0002:000088E8       a_?avcitem@asyn
 0002:00008908       a_?avwidevirtua
 0002:00008928       a_?avvirtualstr
 0002:00008988       a_?auitsdbase@c
 0002:000089F8       a_?avmetavaultr
 0002:00008A30       a_?avwscdpaclie
 0002:00008A60       a_?av?Netemu_en
 0002:00008A98       a_?avnetemu_env
 0002:00008AC0       a_?avnative_il_
 0002:00008AE0       a_?aviufsiocall
 0002:00008B00       a_?av?Netemu__0
 0002:00008B38       a_?avpdf_string
 0002:00008B70       a_?avpdf_consta
 0002:00008C00       a_?aureadonlyst
 0002:00008C58       a_?avvdll_data_
 0002:00008CB8       a_?aujsregexpen
 0002:00008CD8       a_?avcsxsbackup
 0002:00008D08       a_?avclocalcach
 0002:00008D38       a_?avbestposeva
 0002:00008D58       a_?avcpmenviron
 0002:00008D98       a_?avrealvolume
 0002:00008DF0       a_?avrawscanlis
 0002:00008E10       a_?av?Crefob_12
 0002:00008EA8       a_?av?Cstdptrli
 0002:00008F20       a_?av?Cstdptrco
 0002:00008FC8       a_?av?Cstdptr_0
 0002:00009070       a_?ausigdeliver
 0002:000090E8       a_?avksldriver@
 0002:00009100       a_?avccleanfile
 0002:00009198       a_?avcadvsample
 0002:000091E0       a_?avcdistingui
 0002:00009208       a_?avcdisting_0
 0002:00009270       a_?avcasprotect
 0002:000092B0       a_?avichecktrus
 0002:000092D0       a_?av?_ref_co_1
 0002:00009350       a_?aumatchedpro
 0002:000093F8       a_?avdetectionq
 0002:00009418       a_?audospathinf
 0002:00009450       a_?avbmdetectio
 0002:00009498       a_?avcscanuserd
 0002:000094B8       a_?av?Clowereng
 0002:00009580       a_?avimporthand
 0002:000095D8       a_?av?_ref_co_2
 0002:00009650       a_?avcpetite14u
 0002:00009670       a_?avcpetite13u
 0002:00009690       a_?avfinddatawv
 0002:00009768       a_?avvolumewrap
 0002:000097A0       a_?avntfsreside
 0002:000097C0       a_?avntfsnonres
 0002:00009818       a_?av?Cautorefa
 0002:00009868       a_?av?Vector@v?
 0002:000098F0       a_?av?_vector_a
 0002:00009998       a_?avcrequested
 0002:000099D8       a_?avvalueinfo@
 0002:000099F0       a_?auluascripth
 0002:00009A18       a_?auluascrip_0
 0002:00009A38       a_?auluascrip_1
 0002:00009AB8       a_?avmetastorel
 0002:00009B18       a_?avbootrecord
 0002:00009B58       a_?av?Crefob_13
 0002:00009BB0       a_?auibootrecor
 0002:00009C38       a_?avupx30lzmau
 0002:00009C58       a_?avupxw896unp
 0002:00009C78       a_?avcconstobje
 0002:00009C98       a_?avcobjectid@
 0002:00009CB0       a_?avfpautoscan
 0002:00009D10       a_?avufsmtsca_0
 0002:00009D68       a_?avutilfilepa
 0002:00009DA8       a_?auithreatdat
 0002:00009DE8       a_?av?Statemap@
 0002:00009E28       a_?avfilecollec
 0002:00009E48       a_?av?Crefob_14
 0002:00009F20       a_?avmatch_stat
 0002:00009F70       a_?aujsarraylit
 0002:0000A018       a_?aujsblockstm
 0002:0000A038       a_?aujsstringre
 0002:0000A098       a_?avfsgunpacke
 0002:0000A0B8       a_?avfsgunpac_0
 0002:0000A0D8       a_?avcjdpack20u
 0002:0000A0F8       a_?avcjdpack101
 0002:0000A138       a_?avpe_morphin
 0002:0000A158       a_?avpe_morph_0
 0002:0000A178       a_?avpe_morph_1
 0002:0000A198       a_?avcpetite12u
 0002:0000A1B8       a_?avautounmana
 0002:0000A1E0       a_?av?_ref_co_3
 0002:0000A230       a_?avcpropertyr
 0002:0000A258       a_?avcdcstate@@
 0002:0000A270       a_?avmoacentryf
 0002:0000A290       a_?avimoacentry
 0002:0000A2F8       a_?aufilenamein
 0002:0000A320       a_?avfilteroplo
 0002:0000A358       a_?avcwin32file
 0002:0000A3A0       a_?aubmfileinfo
 0002:0000A478       a_?avcuserdbqua
 0002:0000A4C8       a_?av?Circularb
 0002:0000A4F8       a_?av?Circula_0
 0002:0000A540       a_?avchresultex
 0002:0000A570       a_?avchresult_0
 0002:0000A5E8       a_?avcmpglobalv
 0002:0000A6B8       a_?av?_ref_co_4
 0002:0000A708       a_?aujsmegabina
 0002:0000A7F0       a_?au?Jsmultitr
 0002:0000A820       a_?aujsmultivar
 0002:0000A848       a_?au?Jsmulti_0
 0002:0000A898       a_?avimportreco
 0002:0000A8D0       a_?avcmolebox@@
 0002:0000A8E8       a_?avcpespinunp
 0002:0000A908       a_?avcpetiteunp
 0002:0000A928       a_?av?_ref_co_5
 0002:0000A980       a_?avcpmenvir_0
 0002:0000A9E0       a_?avunjc_46@@
 0002:0000A9F8       a_?avunlznt1@@
 0002:0000AA10       a_?avcompress5@
 0002:0000AA28       a_?avunas@@
 0002:0000AA70       a_?avbitstreamn
 0002:0000AAC0       a_?avcbitstream
 0002:0000AAF0       a_?avexestream@
 0002:0000AB08       a_?avvaluemappu
 0002:0000AB28       a_?avcasyncproc
 0002:0000ABA8       a_?avmetavaul_0
 0002:0000AC60       a_?av?Dtlibvmm@
 0002:0000ACE8       a_?avznames@@
 0002:0000AD00       a_?avcarea51v11
 0002:0000AD80       a_?avpackdumper
 0002:0000ADC8       a_?avupxw60unpa
 0002:0000ADE8       a_?avcpefile@@
 0002:0000AE00       a_?avpeunpackca
 0002:0000AE90       a_?avmatchstate
 0002:0000AED8       a_?avcmpcryptpr
 0002:0000AF08       a_?avimpcryptpr
 0002:0000AF60       a_?avcmpoverlap
 0002:0000AFB8       a_?avcflatenumf
 0002:0000AFE0       a_?av?Multipatt
 0002:0000B020       a_?av?Nodealloc
 0002:0000B090       a_?av?Allocator
 0002:0000B150       a_?avcachedfile
 0002:0000B170       a_?aujsrefstrin
 0002:0000B1C8       a_?aujsconcatst
 0002:0000B1E8       a_?aujssubstrin
 0002:0000B238       a_?av?Filechang
 0002:0000B288       a_?avcpmuser@@
 0002:0000B2A0       a_?av?Crefob_15
 0002:0000B2D8       a_?avcpmbase@@
 0002:0000B2F0       a_?avrunset@@
 0002:0000B308       a_?avcvolumecac
 0002:0000B360       a_?avworkitemhe
 0002:0000B3C0       a_?avquantum@@
 0002:0000B3D8       a_?avunjc_4@@
 0002:0000B3F0       a_?avunjc_45@@
 0002:0000B408       a_?avunsitd@@
 0002:0000B420       a_?avunmsg@@
 0002:0000B460       a_?av?Unlzmabas
 0002:0000B490       a_?avupack@@
 0002:0000B538       a_?avlzmastream
 0002:0000B570       a_?av?Cbitstrea
 0002:0000B5A0       a_?av?Cbitstr_0
 0002:0000B5D0       a_?av?Cbitstr_1
 0002:0000B668       a_?av?Cbitstr_2
 0002:0000B698       a_?av?Cbitstr_3
 0002:0000B6C8       a_?avbitstreamu
 0002:0000B6E8       a_?avbitstreaml
 0002:0000B720       a_?avpetiteouts
 0002:0000B740       a_?avunrar@@
 0002:0000B770       a_?avunplibstor
 0002:0000B840       a_?avrlestream@
 0002:0000B858       a_?avbitstrea_0
 0002:0000B878       a_?av?Multipa_0
 0002:0000B8C0       a_?av?Nodeall_0
 0002:0000B930       a_?aucacheitem@
 0002:0000B958       a_?avlsacrypto@
 0002:0000B970       a_?av?Cluastand
 0002:0000BAD0       a_?avil_native_
 0002:0000BBB0       a_?avcinvertdec
 0002:0000BC00       a_?avcplugindec
 0002:0000BC20       a_?avpkliteunpa
 0002:0000BC40       a_?avshrinkerun
 0002:0000BC60       a_?avupxwunpack
 0002:0000BD08       a_?av?Cluasta_0
 0002:0000BDC8       a_?avonscanfile
 0002:0000BE50       a_?avcpredefine
 0002:0000BED8       a_?avcmpthrea_0
 0002:0000BF60       a_?av?Collate@d
 0002:0000BF80       a_?avvamkm@@
 0002:0000BFB8       a_?avcommiter@@
 0002:0000BFD0       a_?avdispatcher
 0002:0000C068       a_?avreversezer
 0002:0000C090       a_?avzerobytean
 0002:0000C0B0       a_?avforwardzer
 0002:0000C0D8       a_?aujsstringli
 0002:0000C120       a_?aujsidentifi
 0002:0000C140       a_?aujsdelegate
 0002:0000C168       a_?aujsnumber@@
 0002:0000C180       a_?aujsdate@@
 0002:0000C198       a_?avdecryptorf
 0002:0000C1E8       a_?avmoleboxdec
 0002:0000C280       a_?avcvolumesha
 0002:0000C2B8       a_?avcdcdata@@
 0002:0000C2D0       a_?avsha1worker
 0002:0000C350       a_?auntfsfilere
 0002:0000C378       a_?avntfsvolume
 0002:0000C398       a_?av?Crefob_16
 0002:0000C4B8       a_?avoffregvalu
 0002:0000C530       a_?auiregistryv
 0002:0000C550       a_?avbitstreamm
 0002:0000C588       a_?av?Lzmabitst
 0002:0000C610       a_?avbinctree@@
 0002:0000C628       a_?avroutstream
 0002:0000C6C8       a_?av?_ref_co_6
 0002:0000C710       a_?av?_ref_co_7
 0002:0000C750       a_?av?_ref_co_8
 0002:0000C798       a_?av?_ref_co_9
 0002:0000C7D8       a_?av?_ref_c_10
 0002:0000C820       a_?av?_ref_c_11
 0002:0000C8F8       a_?avscan_x16_c
 0002:0000C918       a_?av?Net_il_tr
 0002:0000C940       a_?av?Net_il__0
 0002:0000C968       a_?avvmm_netrpf
 0002:0000CA30       a_?avzipaesencr
 0002:0000CA50       a_?av?Crefob_17
 0002:0000CA88       a_?av?Dataio_t@
 0002:0000CBA8       a_?av?Dataio__0
 0002:0000CC98       a_?auinternalco
 0002:0000CCF0       a_?avrouter@@
 0002:0000CD08       a_?avirouter@@
 0002:0000CD20       a_?avnotemgrfil
 0002:0000CD40       a_?avnotemgrplu
 0002:0000CDA0       a_?avnotemgrpro
 0002:0000CDE8       a_?avnotemgrsys
 0002:0000CE50       a_?avnotemgretw
 0002:0000CE70       a_?av?_ref_c_12
 0002:0000CEB0       a_?avcteadecode
 0002:0000CEF0       a_?avcscopdecod
 0002:0000CF30       a_?avcstandardb
 0002:0000CF58       a_?avupxfixe8e9
 0002:0000CF78       a_?avupxfixsimp
 0002:0000CF98       a_?avupxfilter_
 0002:0000CFB8       a_?avupxfixsi_0
 0002:0000CFD8       a_?avupxfixcomp
 0002:0000CFF8       a_?avupxfixdiss
 0002:0000D058       a_?av?_func_i_3
 0002:0000D098       a_?av?_func_b_0
 0002:0000D0C0       a_?auavconfigur
 0002:0000D130       a_?av?_func_i_4
 0002:0000D1A8       a_?avufsnodecal
 0002:0000D200       a_?av?Crefob_18
 0002:0000D240       a_?aviufsnodeca
 0002:0000D260       a_?av?_func_i_5
 0002:0000D318       a_?avautonetvmh
 0002:0000D338       a_?avssffileio@
 0002:0000D380       a_?aussfhandlei
 0002:0000D3A8       a_?avpereaderwr
 0002:0000D448       a_?avwrapperope
 0002:0000D4F0       a_?av?Crefob_19
 0002:0000D558       a_?av?_ref_c_13
 0002:0000D5B0       a_?av?_func_i_6
 0002:0000D630       a_?avcscanuse_0
 0002:0000D6D0       a_?av?_func_i_7
 0002:0000D748       a_?av?_func_i_8
 0002:0000D820       a_?avpeemumappe
 0002:0000D900       a_?avdecommiter
 0002:0000D920       a_?av?_func_i_9
 0002:0000D9F0       a_?avbreakpoint
 0002:0000DA40       a_?av?_ref_c_14
 0002:0000DAD8       a_?av?_ref_c_15
 0002:0000DB10       a_?avhintfinder
 0002:0000DB38       a_?avsymbolinfo
 0002:0000DB58       a_?av?_ref_c_16
 0002:0000DBC0       a_?av?_ref_c_17
 0002:0000DC40       a_?avzeromemory
 0002:0000DC60       a_?av?_ref_c_18
 0002:0000DCB8       a_?av?_ref_c_19
 0002:0000DD20       a_?avpezerobyte
 0002:0000DD40       a_?avnopanalyze
 0002:0000DD68       a_?av?_func__10
 0002:0000DE60       a_?av?_func_b_1
 0002:0000DF20       a_?av?_func__11
 0002:0000E018       a_?aujstoprimit
 0002:0000E038       a_?aujstostring
 0002:0000E058       a_?aujssecondar
 0002:0000E080       a_?aujsbooleanl
 0002:0000E0C8       a_?aujsproperty
 0002:0000E0E8       a_?aujsassignex
 0002:0000E108       a_?aujsunaryexp
 0002:0000E128       a_?aujsbinaryex
 0002:0000E148       a_?aujsconditio
 0002:0000E1A8       a_?aujsmemberex
 0002:0000E1C8       a_?aujsvardecls
 0002:0000E1E8       a_?aujsexprstmt
 0002:0000E208       a_?aujsifstmttr
 0002:0000E248       a_?aujsforstate
 0002:0000E290       a_?aujscontrolf
 0002:0000E370       a_?aujsnulllite
 0002:0000E390       a_?aujsthistree
 0002:0000E3D0       a_?av?_func__12
 0002:0000E4B8       a_?av?_func__13
 0002:0000E540       a_?av?_func__14
 0002:0000E5A0       a_?av?_func_b_2
 0002:0000E618       a_?aunodetagfil
 0002:0000E638       a_?av?_func__15
 0002:0000E6D0       a_?avssfvhandle
 0002:0000E708       a_?avmappedview
 0002:0000E728       a_?avmd5analyze
 0002:0000E7C0       a_?avpecompact_
 0002:0000E818       a_?avunplibre_0
 0002:0000E898       a_?avlayer2decr
 0002:0000E8B8       a_?avcunjunkcal
 0002:0000E938       a_?avnanomite13
 0002:0000E958       a_?avintegritya
 0002:0000E978       a_?avfixe8e90f_
 0002:0000EA38       a_?avcanalyzers
 0002:0000EA58       a_?avcanlayzere
 0002:0000EA78       a_?avcanlayzerb
 0002:0000EA98       a_?av?_func__16
 0002:0000EB20       a_?avattributep
 0002:0000EB40       a_?av?_func__17
 0002:0000EBB8       a_?aucacheiddat
 0002:0000EC68       a_?av?_func__18
 0002:0000ECE0       a_?av?_func__19
 0002:0000EDD8       a_?avfileinfoca
 0002:0000EE30       a_?avrecordcall
 0002:0000EEB0       a_?av?Crefob_20
 0002:0000EF30       a_?avfileinfo_0
 0002:0000EFE0       a_?avdatacallba
 0002:0000F060       a_?avregkeyenum
 0002:0000F080       a_?avregvalueen
 0002:0000F0E0       a_?avbintree@@
 0002:0000F0F8       a_?avuncompress
 0002:0000F130       a_?avbswrandom@
 0002:0000F148       a_?avwrongwrite
 0002:0000F180       a_?avmetabtree@
 0002:0000F1A0       a_?avwrongread@
 0002:0000F1B8       a_?avrfilterbz@
 0002:0000F1D0       a_?avrfilter@@
 0002:0000F1E8       a_?avglobalnoti
 0002:0000F208       a_?av?_func__20
 0002:0000F300       a_?av?_func__21
 0002:0000F350       a_?av?_ref_c_20
 0002:0000F3A0       a_?av?_func__22
 0002:0000F468       a_?avdtlib_scan
 0002:0000F4A8       a_?avnullcallba
 0002:0000F4F8       a_?av?X86debugr
 0002:0000F520       a_?av?X86debu_0
 0002:0000F548       a_?av?X86debu_1
 0002:0000F570       a_?av?X86debu_2
 0002:0000F598       a_?avuntrustedm
 0002:0000F5C0       a_?av?_func__23
 0002:0000F648       a_?av?_func__24
 0002:0000F6E0       a_?av?_func__25
 0002:0000F750       a_?av?_func__26
 0002:0000F7E0       a_?avmetadatacu
 0002:0000F808       a_?av?_ref_c_21
 0002:0000F8C0       a_?avpdfvforead
 0002:0000F8F8       a_?avpdfmemread
 0002:0000F930       a_?avpdfdecodef
 0002:0000F968       a_?avpdf_intege
 0002:0000F9A0       a_?avzipaesctr@
 0002:0000F9B8       a_?avcufsreader
 0002:0000FA10       a_?avi7zpasswor
 0002:0000FA78       a_?avzcoders@@
 0002:0000FA90       a_?avfilter7z_b
 0002:0000FAB0       a_?av?_func__27
 0002:0000FB28       a_?av?_func__28
 0002:0000FBB8       a_?avvfotracker
 0002:0000FC20       a_?avcscanuse_1
 0002:0000FCD8       a_?av?_ref_c_22
 0002:0000FD38       a_?auaspackismi
 0002:0000FD80       a_?auisminecont
 0002:0000FDC0       a_?avsectiondum
 0002:0000FE20       a_?avvfodumper@
 0002:0000FE68       a_?avcallbackco
 0002:0000FE88       a_?avsignaturem
 0002:0000FEA8       a_?avemusync@@
 0002:0000FEC0       a_?avmovehelper
 0002:0000FF68       a_?avfixe8e9@@
 0002:0000FF80       a_?avupxfixe8@@
 0002:0000FF98       a_?avcmpasimovr
 0002:00010008       a_?auasconfigur
 0002:00010088       a_?av_ref_count
 0002:000100C8       a_?avfilename@@
 0002:000100E0       a_?avfullopenfi
 0002:00010100       a_?aviworkunit@
 0002:00010118       a_?aviworkunitf
 0002:00010138       a_?av_node_rep@
 0002:00010190       a_?av_node_endi
 0002:000101B0       a_?av_node_capt
 0002:000101D0       a_?av_node_end_
 0002:00010270       a_?aviufsclient
 0002:000102E8       a_?avmsilpemapp
 0002:00010328       a_?avattributew
 0002:00010348       a_?avmmapautocu
 0002:00010368       a_?avinitialvmm
 0002:00010388       a_?avselfchecks
 0002:000103C8       a_?avvfsrunstat
 0002:00010408       a_?avsiggenattr
 0002:00010448       a_?aublockanaly
 0002:000104A8       a_?avufsfilerea
 0002:000104E8       a_?aujstree@@
 0002:00010500       a_?auanalyzer@@
 0002:00010518       a_?avmemorybloc
 0002:00010570       a_?avpecompact@
 0002:00010588       a_?avunplibcanc
 0002:000105A8       a_?avunplibca_0
 0002:00010608       a_?auunpackco_0
 0002:00010628       a_?avautohstrst
 0002:00010660       a_?avcinput@@
 0002:00010678       a_?avbmsdetecti
 0002:000106D8       a_?avdft_prefet
 0002:00010700       a_?av?_func_b_3
 0002:00010800       a_?avilogicalvo
 0002:00010820       a_?avithrottlin
 0002:00010840       a_?avquantumari
 0002:000108A8       a_?avrstream@@
 0002:000108C0       a_?avleaf_node@
 0002:000108D8       a_?avrangecoder
 0002:00010908       a_?avwcharfacto
 0002:00010940       a_?auiteratorst
 0002:000109A8       a_?avix86emulat
 0002:000109D0       a_?avnetvm32run
 0002:000109F0       a_?av?Pe_env_pl
 0002:00010A58       a_?av?Netvmrunt
 0002:00010A78       a_?avcallocsmss
 0002:00010A98       a_?aviallocsmss
 0002:00010AB8       a_?auhtmldocume
 0002:00010B28       a_?avpdf_value@
 0002:00010B40       a_?avizipadvanc
 0002:00010BA8       a_?avfilter7z@@
 0002:00010BC0       a_?avprogresstr
 0002:00010BE0       a_?avcrc4decode
 0002:00010C70       a_?avcteacipher
 0002:00010CC0       a_?aublockdecry
 0002:00010CE0       a_?avix86notifi
 0002:00010D28       a_?av?Crefob_21
 0002:00010D70       a_?auisysiohand
 0002:00010DE0       a_?aviudfdirect
 0002:00010E38       a_?aviudfobject
 0002:00010E58       a_?av?Crefob_22
 0002:00010EB0       a_?av?Crefob_23
 0002:00010EE8       a_?aviudfvolume
 0002:00010F80       a_?aujsnativefu
 0002:00010FA8       a_?avpdf_contai
 0002:00011018       a_?av?Crefob_24
 0002:00011050       a_?avintfsdata@
 0002:00011068       a_?aupackedfile
 0002:00011088       a_?avcasprote_0
 0002:000110D8       a_?avaspackunpa
 0002:000110F8       a_?avaspackun_0
 0002:00011118       a_?av?Crefob_25
 0002:000111B8       a_?avcjdpackunp
 0002:000111D8       a_?avpe_morph_2
 0002:00011210       a_?av?Crefob_26
 0002:00011268       a_?avcmpoverl_0
 0002:000112B8       a_?avsfxcabunpa
 0002:000112D8       a_?auctype_base
 0002:000112F8       a_?av?Crefob_27
 0002:00011370       a_?av?Crefob_28
 0002:000113D8       a_?avvmmdumper@
 0002:000113F0       a_?avhuffbitstr
 0002:00011450       a_?avlogic_erro
 0002:00011470       a_?avmoleboxd_0
 0002:00011490       a_?avscan_conte
 0002:00011528       a_?auicollectvi
 0002:00011548       a_?av?Crefob_29
 0002:000115A0       a_?aviasyncreso
 0002:000115C0       a_?av?Crefob_30
 0002:00011608       a_?avimetavault
 0002:00011678       a_?avupxw80unpa
 0002:00011698       a_?av?Crefob_31
 0002:00011730       a_?av?_func_b_4
 0002:00011778       a_?av?Idfprefet
 0002:00011798       a_?avtype_info@
 0002:000117B0       a_?avbad_except
 0002:000117D0       a_?avdnamenode@
 0002:000117E8       a_?avcharnode@@
 0002:00011800       a_?avpcharnode@
 0002:00011818       a_?avpdnamenode
 0002:00011888       a_?avhipsasyncf
 0002:00011970       a_?av?_func__29
 0002:000119D8       a_?avLambda_9d9
 0002:00011A10       a_?av?_func__30
 0002:00011A78       a_?av?_func__31
 0002:00011AE0       a_p6axxz
 0002:00011AF0       a_?aumpcontaine
 0002:00011B38       a_?av?_func__32
 0002:00011BB0       a_?av?_func__33
 0002:00011CE8       a_?aucleanupdat
 0002:00011D60       a_?auremoveupda
 0002:00011DF8       a_?auupdatecall
 0002:00011E78       a_?avLambda_e0f
 0002:00011EB0       a_?auiufsupdate
 0002:00011F18       a_?avufsremovef
 0002:00011F38       a_?avufsremov_0
 0002:00011F90       a_?ausizeupdate
 0002:00011FC8       a_?aubytesupdat
 0002:00012008       a_?aunodeupdate
 0002:00012048       a_?av?_func__34
 0002:000120F8       a_?av?_func__35
 0002:00012180       a_?av?_func__36
 0002:00012208       a_?av?_func__37
 0002:00012290       a_?av?_func__38
 0002:00012318       a_?av?_func__39
 0002:000123A0       a_?av?_func__40
 0002:00012428       a_?av?_func__41
 0002:000124B0       a_?av?_func__42
 0002:00012538       a_?av?_func__43
 0002:000125C0       a_?av?_func__44
 0002:00012648       a_?av?_func__45
 0002:000126D0       a_?av?_func__46
 0002:00012758       a_?av?_func__47
 0002:000127E0       a_?av?_func__48
 0002:00012868       a_?av?_func__49
 0002:000128F0       a_?av?_func_b_5
 0002:00012C80       a_?avioviewover
 0002:00012CD0       a_?avwriteviewp
 0002:00012D28       a_?avremoveprov
 0002:00012D60       a_?avufsupdater
 0002:00012D80       a_?av?Crefob_32
 0002:00012DC0       a_?auiufsupda_0
 0002:00012DE0       a_?avufsfileiov
 0002:00012E20       a_?av?Csysiop_4
 0002:00012E78       a_?avfileupdate
 0002:00012F30       a_?avasynccopyw
 0002:00012F80       a_?aupropertyco
 0002:00012FD8       a_?av?_node_cla
 0002:000130B0       a_?avbmexclusio
 0002:000130F0       a_?av?Listenume
 0002:00013140       a_?av?Listentry
 0002:000131A8       a_?avdebugconfi
 0002:000131E8       a_?av?_func__50
 0002:00013268       a_?av?_func__51
 0002:000132E8       a_?av?_func__52
 0002:00013340       a_?av?_func_b_6
 0002:00013438       a_?aupathcollec
 0002:00013500       a_?avcxpenvmatc
 0002:000135B8       a_?auiresourcei
 0002:000135F8       a_?avnetworkres
 0002:00013680       a_?auinternalno
 0002:000136A8       a_?avinternalno
 0002:00013710       a_?avetwnotific
 0002:00013730       a_?avbootchange
 0002:00013758       a_?avbootchan_0
 0002:00013780       a_?avvolumemoun
 0002:000137A8       a_?auvolumemoun
 0002:00013820       a_?audesktopnot
 0002:00013848       a_?avdesktopnot
 0002:00013960       a_?aufilenameco
 0002:000139C8       a_?av?Crefob_33
 0002:00013A08       a_?avmpthreaten
 0002:00013A30       a_?av?Crefob_34
 0002:00013A70       a_?avbehavioren
 0002:00013AD0       a_?avdetectioni
 0002:00013B10       a_?auidetecti_0
 0002:00013B30       a_?av?Listenu_0
 0002:00013B68       a_?av?Listent_0
 0002:00013BF0       a_?avprocesscon
 0002:00013C18       a_?auexploitrep
 0002:00013C88       a_?av?Crefob_35
 0002:00013CC8       a_?auexploitdet
 0002:00013D40       a_?avcdelayedbm
 0002:00013D60       a_?avattributei
 0002:00013D88       a_?avattribut_0
 0002:00013DB0       a_?av?Crefob_36
 0002:00013E10       a_?av?Crefob_37
 0002:00013E58       a_?auiattribute
 0002:00013E80       a_?avardetectio
 0002:00013EA0       a_?auarscanresu
 0002:00013F08       a_?av?Crefob_38
 0002:00013F48       a_?avresourceen
 0002:00013FA8       a_?avbehaviorit
 0002:00013FE0       a_?auiresourcee
 0002:00014040       a_?avmpthreatit
 0002:00014078       a_?avxmloutstre
 0002:000140B0       a_?avgetmpthrea
 0002:00014138       a_?ausynchronou
 0002:00014178       a_?avLambda_21e
 0002:000141B0       a_?aw4mp_error@
 0002:000141C8       a_?avfilescanma
 0002:00014208       a_?au?Resmgrplu
 0002:000142A8       a_?au?Resmgrp_0
 0002:00014348       a_?au?Resmgrp_1
 0002:000143D0       a_?av?Crefob_39
 0002:00014440       a_?av?Csysiop_5
 0002:00014488       a_?av?Csysiop_6
 0002:00014520       a_?auilockingpr
 0002:00014548       a_?auiresourcep
 0002:00014568       a_?auresmgrplug
 0002:00014588       a_?auresmgrpl_0
 0002:000145D8       a_?avcsysiorawf
 0002:00014620       a_?av?Csysiop_7
 0002:00014660       a_?av?Csysiop_8
 0002:00014708       a_?au?Resmgrp_2
 0002:000147A0       a_?avufsscanfol
 0002:000147C0       a_?avautounlock
 0002:000147E0       a_?au?Resmgrp_3
 0002:000148A8       a_?au?Resmgrp_4
 0002:00014938       a_?aviemsprogre
 0002:00014980       a_?au?Resmgrp_5
 0002:00014A20       a_?avcheckmoacp
 0002:00014A58       a_?avcresmgrems
 0002:00014A98       a_?avmyfileinfo
 0002:00014B28       a_?avautoprinta
 0002:00014B70       a_?av?_func__53
 0002:00014C00       a_?av?_func_b_7
 0002:00014CA8       a_?avLambda_295
 0002:00014CE0       a_?avspynet_rep
 0002:00014D70       a_?auiattribu_0
 0002:00014DF8       a_?avsfcstore@@
 0002:00014E10       a_?av?_func__54
 0002:00014EA8       a_?av?_func__55
 0002:00014FC0       a_?avwin32modul
 0002:00015030       a_?avwin32drive
 0002:00015088       a_?avwin32dispa
 0002:000150B8       a_?avwin32objec
 0002:000150E0       a_?avwin32objmg
 0002:00015108       a_?avwin32devic
 0002:00015160       a_?avarmodulein
 0002:000151C8       a_?avwin32kerne
 0002:000151F0       a_?av?_ref_c_23
 0002:00015260       a_?avpememory@a
 0002:00015288       a_?av?_ref_c_24
 0002:00015328       a_?av?_ref_c_25
 0002:00015368       a_?avpefilehelp
 0002:00015390       a_?avpefile@ant
 0002:000153E8       a_?avwin32idtse
 0002:00015430       a_?avwin32catal
 0002:00015460       a_?avarscan@@
 0002:00015478       a_?avwin32srvdi
 0002:000154B0       a_?avwin32ssdts
 0002:000155A0       a_?avwin32sysen
 0002:000155D0       a_?avwin32ndiss
 0002:000156B0       a_?avlsadetecti
 0002:000156D0       a_?av?Cluasta_1
 0002:00015728       a_?av?Cluasta_2
 0002:00015760       a_?av?Cluasta_3
 0002:00015798       a_?av?_func__56
 0002:00015818       a_?avLambda_a21
 0002:00015850       a_?av?_func_b_8
 0002:00015890       a_?aviarhstrsca
 0002:000158B0       a_?avcenumscanm
 0002:000158D0       a_?avcscanrange
 0002:00015938       a_?avienumscanm
 0002:00015958       a_?avienumrange
 0002:000159B0       a_?auiutilregen
 0002:000159E0       a_?avcutilregen
 0002:00015A10       a_?avimpcryptha
 0002:00015A40       a_?avcmpcryptha
 0002:00015A88       a_?avcmpcrypt_0
 0002:00015AD8       a_?avcmpcrypt_1
 0002:00015B70       a_?avcmpmd5@com
 0002:00015B90       a_?avcmpsha256@
 0002:00015BD8       a_?avcmpsha1@co
 0002:00015C60       a_?au?Pair@pb_w
 0002:00015C80       a_?auold_backre
 0002:00015CC0       a_?auiterator@?
 0002:00015DA8       a_?auold_quant@
 0002:00015E08       a_?auiterator_0
 0002:00015F78       a_?avtype_error
 0002:00015FC0       a_pbd
 0002:00016040       a_?avbad_functi
 0002:00016088       a_?avsystem_err
 0002:000160A8       a_?av_generic_e
 0002:00016130       a_?avstl_critic
 0002:00016170       a_?avstl_crit_0
 0002:000161E0       a_?avcodecvt_ba
 0002:00016200       a_?av?Numpunct@
 0002:00016220       a_?av?Num_get@d
 0002:00016278       a_?av?Num_put@d
 0002:000162F8       a_?av?Money_put
 0002:00016350       a_?av?Time_put@
 0002:00016400       a_?av?Moneypunc
 0002:00016428       a_?av?Money_get
 0002:000164A0       a_?av?Time_get@
 0002:00016578       a_?av?Num_put@_
 0002:000165D0       a_?av?Messages@
 0002:000165F0       a_?av?Time_ge_0
 0002:00016648       a_?av?Time_pu_0
 0002:000166A0       a_?av?Moneypu_0
 0002:000166C8       a_?av?Collate@g
 0002:000166E8       a_?av?Num_get@g
 0002:00016760       a_?av?Codecvt@g
 0002:00016790       a_?av?Num_put@g
 0002:00016828       a_?av?Num_get@_
 0002:00016880       a_?av?Money_g_0
 0002:000168D8       a_?av?Money_p_0
 0002:00016930       a_?av?Time_ge_1
 0002:00016988       a_?av?Time_pu_1
 0002:00016A08       a_?av?Money_p_1
 0002:00016A60       a_?av?Numpunc_0
 0002:00016A80       a_?av?Money_g_1
 0002:00016AD8       a_?av?_mpunct@_
 0002:00016AF8       a_?av?Moneypu_1
 0002:00016B20       a_?avcxmldumper
 0002:00016B58       a_?avcsignatu_0
 0002:00016B78       a_?avcobjhashin
 0002:00016BC8       a_?avcobjmetada
 0002:00016BE8       a_?avcmsifilein
 0002:00016C08       a_?av?_func__57
 0002:00016CB8       a_?avpefileexte
 0002:00016CE8       a_?avextendedat
 0002:00016DE0       a_?avmsil_fop_p
 0002:00016E48       a_?avvb_fop_pro
 0002:00016E68       a_?avcustomkcrc
 0002:00016E88       a_?avdynamicana
 0002:00016EB0       a_?avclassifier
 0002:00016ED0       a_?aveventclsco
 0002:00016EF0       a_?av?_ref_c_26
 0002:00016F68       a_?avx86_fop_pr
 0002:00016FC0       a_?aumyappreado
 0002:00016FE8       a_?avLambda_946
 0002:00017020       a_?avLambda_981
 0002:00017058       a_?av?_ref_c_27
 0002:00017090       a_?avcurefilewr
 0002:000170B0       a_?av?_ref_c_28
 0002:00017108       a_?av?_ref_c_29
 0002:00017150       a_?avattachedfi
 0002:00017180       a_?avcheckmemor
 0002:000171A8       a_?avbad_weak_p
 0002:000171C8       a_?avapplyfixup
 0002:00017218       a_?avcsysioin_0
 0002:00017248       a_?avhandleread
 0002:00017268       a_?av?Csysiop_9
 0002:000172B0       a_?avjsufsstrea
 0002:000172E8       a_?avLambda_5fd
 0002:00017320       a_?avLambda_5bb
 0002:00017358       a_?avLambda_5cb
 0002:00017390       a_?aucstringada
 0002:000173B0       a_?austringadap
 0002:00017468       a_?aujsstringad
 0002:00017488       a_?aucppstringa
 0002:000174A8       a_?au?Jsfunc_12
 0002:00017550       a_?au?Jsfunc_13
 0002:000176C8       a_?aviatincoper
 0002:000176E8       a_?avcjdpack090
 0002:00017730       a_?avcmolebox_2
 0002:00017750       a_?avmoleboxd_1
 0002:00017778       a_?avmoleboxd_2
 0002:000177A0       a_?avpecompac_0
 0002:000177C0       a_?avxordecrypt
 0002:000177E0       a_?avdecryptorc
 0002:00017830       a_?avpecompac_1
 0002:00017850       a_?avpecompac_2
 0002:00017870       a_?avpecompac_3
 0002:00017890       a_?av?_ref_c_30
 0002:00017910       a_?avfilehandle
 0002:00017978       a_?avupack24s@@
 0002:00017990       a_?avupccrc@@
 0002:000179A8       a_?avtearewired
 0002:000179E0       a_?avsignaturei
 0002:00017A20       a_?avvfwunplibw
 0002:00017A68       a_?avLambda_842
 0002:00017AA0       a_?avceapplicat
 0002:00017B08       a_?avLambda_ef8
 0002:00017B40       a_?av?_func__58
 0002:00017BC8       a_?av?_func__59
 0002:00017C50       a_?avLambda_077
 0002:00017C88       a_?avLambda_3d4
 0002:00017CC0       a_?avcfileident
 0002:00017D18       a_?avcresmgrf_0
 0002:00017D48       a_?avcsysiopefi
 0002:00017D78       a_?av?_ref_c_31
 0002:00017DE8       a_?av?Crefob_40
 0002:00017E30       a_?avcdeletesys
 0002:00017E90       a_?av?Crefob_41
 0002:00017ED8       a_?avirepositor
 0002:00017F38       a_?av?_func__60
 0002:00017FC0       a_?av?_func_b_9
 0002:00018070       a_?av?_func__61
 0002:000180F0       a_?av?_func__62
 0002:00018130       a_?av?_func__63
 0002:00018250       a_?avcsxslzmsde
 0002:00018280       a_?avcsxsnonede
 0002:000182B0       a_?avcsxsnullde
 0002:00018338       a_?av?Crefob_42
 0002:000183B8       a_?avoffsetpres
 0002:000183D8       a_?avtrustedrpf
 0002:000183F8       a_?av?_ref_c_32
 0002:00018438       a_?av?_ref_c_33
 0002:00018518       a_?avnativerpff
 0002:00018578       a_?avLambda_6c6
 0002:000185B0       a_?avbufferwrit
 0002:00018608       a_?av?Dftracer@
 0002:00018628       a_?avdft_pref_0
 0002:00018690       a_?avrpf_mpcont
 0002:000186B8       a_?av?Unplibg_6
 0002:00018710       a_?av?Unplibg_7
 0002:00018790       a_?av?_func__64
 0002:000187F8       a_?avLambda_ceb
 0002:00018830       a_?av?_func__65
 0002:000189D8       a_?avsigqueryre
 0002:000189F8       a_?avspynetxmln
 0002:00018A30       a_?avemptynotif
 0002:00018AF8       a_?avcmpcontain
 0002:00018B28       a_?av?_ref_c_34
 0002:00018B70       a_?av?_ref_c_35
 0002:00018BE0       a_?avicontentre
 0002:00018C00       a_?av?Crefob_43
 0002:00018C60       a_?avspynetbuff
 0002:00018CC0       a_?avcsyscleanr
 0002:00018D28       a_?av?Crefob_44
 0002:00018D68       a_?avivolumefil
 0002:00018DF8       a_?av?Crefob_45
 0002:00018E38       a_?avivolumepat
 0002:00018E60       a_?auunplibcanc
 0002:00018EA8       a_?avntfsdirect
 0002:00018ED8       a_?av?Crefob_46
 0002:00018F88       a_?avntfsdire_0
 0002:00019020       a_?avcuseronlys
 0002:00019068       a_?avcoffsetfin
 0002:000190F0       a_?auifindfileh
 0002:00019110       a_?avcrawfindfi
 0002:00019138       a_?av?Cautoregk
 0002:00019188       a_?av?Cautore_0
 0002:000191E8       a_?avautoregkey
 0002:00019208       a_?av?Cautore_1
 0002:00019270       a_?auisysiosecu
 0002:00019298       a_?av?Crefob_47
 0002:000192E0       a_?avcautofrees
 0002:00019300       a_?avcwin32find
 0002:00019378       a_?avcdiffregke
 0002:000193B8       a_?avtrustcheck
 0002:000193D8       a_?av?Unplibg_8
 0002:00019420       a_?avbitstrea_1
 0002:00019440       a_?avdclexplode
 0002:000194A8       a_?avunshrink@@
 0002:000194C0       a_?avunrelocs@@
 0002:000194D8       a_?avunlglzsmal
 0002:00019510       a_?avaplibupc@@
 0002:00019528       a_?av?Fbitstrea
 0002:000195F0       a_?avsquash@@
 0002:00019608       a_?avlzmatstrea
 0002:000196A8       a_?avtpack@@
 0002:000196E0       a_?av?Writer@vr
 0002:00019728       a_?avhaparithco
 0002:00019810       a_?avneolite@@
 0002:00019828       a_?avbitstreama
 0002:00019848       a_?avroutcptrle
 0002:00019878       a_?avpksat@@
 0002:000198A8       a_?av?Pipe@vlzs
 0002:00019930       a_?avunreduce@@
 0002:00019948       a_?avxpress@@
 0002:00019960       a_?avunrar5@@
 0002:00019978       a_?avexepack@@
 0002:00019990       a_?avunjc_42@@
 0002:000199A8       a_?avunautoit@@
 0002:000199C0       a_?avpksmart@@
 0002:000199D8       a_?avlzstreamcp
 0002:00019A08       a_?avwwpack@@
 0002:00019A20       a_?avucexe@@
 0002:00019A80       a_?avpklitetiny
 0002:00019AC8       a_?avpklitelarg
 0002:00019B00       a_?avcpt@@
 0002:00019B28       a_?av?Cbitstr_4
 0002:00019B58       a_?avlzwdstream
 0002:00019B90       a_?avexplode@@
 0002:00019BA8       a_?av?Lzstreamr
 0002:00019BF0       a_?avpkliteencr
 0002:00019C18       a_?avunjc_454@@
 0002:00019C30       a_?avunjc_453@@
 0002:00019C48       a_?av?Writer@vl
 0002:00019CF0       a_?av?Ralloca_0
 0002:00019D38       a_?avarcncr@@
 0002:00019D50       a_?av?Pipe@vlzw
 0002:00019D88       a_?av?Writer@_0
 0002:00019E20       a_?avcwcoutstre
 0002:00019E78       a_?avlz4@@
 0002:00019EA0       a_?avavpackencr
 0002:00019EC8       a_?avavpackinst
 0002:00019EE8       a_?av?Lzstrea_0
 0002:00019F30       a_?avhuffmantre
 0002:00019F50       a_?avihuffmantr
 0002:00019F88       a_?avbufferread
 0002:0001A030       a_?avcutf8strea
 0002:0001A068       a_?avigenericst
 0002:0001A088       a_?avchandlebyt
 0002:0001A0A8       a_?av?Crefob_48
 0002:0001A0E0       a_?avibytestrea
 0002:0001A118       a_?avcxmlstream
 0002:0001A1A8       a_?avfpsmartnot
 0002:0001A1F8       a_?avdecodermem
 0002:0001A218       a_?avdecoderm_0
 0002:0001A238       a_?avdssspynetc
 0002:0001A258       a_?avcsamplesub
 0002:0001A278       a_?avcbuffersub
 0002:0001A2A0       a_?avisubmissio
 0002:0001A2C0       a_?avcsubmissio
 0002:0001A2E0       a_?avcsampleexc
 0002:0001A300       a_?avLambda_351
 0002:0001A338       a_?avbinaryinst
 0002:0001A358       a_?avdllinstall
 0002:0001A458       a_?av?_func__66
 0002:0001A528       a_?avilsalibrar
 0002:0001A548       a_?av?Cluasta_4
 0002:0001A5A8       a_?av?Cluasta_5
 0002:0001A608       a_?av?_func__67
 0002:0001A760       a_?avcmaintenan
 0002:0001A7C0       a_?av?_func__68
 0002:0001A848       a_?av?_func__69
 0002:0001A950       a_?av?_func__70
 0002:0001AA00       a_?avvalidatetr
 0002:0001AAC0       a_?av?_func__71
 0002:0001AAE8       a_?av?_func__72
 0002:0001AB50       a_?avcleanfilet
 0002:0001ABB8       a_?avLambda_25c
 0002:0001ABF0       a_?avLambda_4dd
 0002:0001AC28       a_?ausurlextrad
 0002:0001AC48       a_?av?Crefob_49
 0002:0001ACB0       a_?avccleanfi_0
 0002:0001ACD0       a_?avccleanurld
 0002:0001AD20       a_?avipersisted
 0002:0001AD50       a_?av?Crefob_50
 0002:0001ADC8       a_?avpersistedr
 0002:0001AE78       a_?auuniqueid@w
 0002:0001AEE8       a_?aufailteleme
 0002:0001AF20       a_?aubondnode@@
 0002:0001AF38       a_?avcompactbin
 0002:0001AF60       a_?avibondseria
 0002:0001AF80       a_?avmetavaul_1
 0002:0001AFB8       a_?avmetavaul_2
 0002:0001B060       a_?avmetavaul_3
 0002:0001B090       a_?avmetavaul_4
 0002:0001B0C0       a_?avmetavaul_5
 0002:0001B130       a_?avmetavaul_6
 0002:0001B170       a_?avmetavaul_7
 0002:0001B1A8       a_?avmetastore@
 0002:0001B1D0       a_?avbad_varian
 0002:0001B1F8       a_?avmetavaultq
 0002:0001B280       a_?avmetavaul_8
 0002:0001B2B8       a_?avmetavaul_9
 0002:0001B300       a_?avmetavau_10
 0002:0001B350       a_?avmetavau_11
 0002:0001B390       a_?avmetavau_12
 0002:0001B448       a_?avmetavau_13
 0002:0001B490       a_?avmetavau_14
 0002:0001B4D0       a_?avmetavau_15
 0002:0001B568       a_?avmetavau_16
 0002:0001B5A0       a_?avmetavau_17
 0002:0001B620       a_?avmetavau_18
 0002:0001B6F8       a_?avvssapivist
 0002:0001B738       a_?auisnapshots
 0002:0001B760       a_?av?Crefob_51
 0002:0001B7C8       a_?av?Crefob_52
 0002:0001B810       a_?auisnapshot@
 0002:0001B848       a_?avbminternal
 0002:0001B868       a_?av?Crefob_53
 0002:0001B8B8       a_?avccheckpoin
 0002:0001B900       a_?avremediatio
 0002:0001B938       a_?avicheckpoin
 0002:0001B968       a_?av?Crefob_54
 0002:0001B9C0       a_?avccheckpo_0
 0002:0001BA00       a_?avicheckpo_0
 0002:0001BA38       a_?auinstr_x64_
 0002:0001BAB8       a_?avsampleread
 0002:0001BAD8       a_?avicompresso
 0002:0001BB78       a_?avsamplesubm
 0002:0001BBA8       a_?auivalidator
 0002:0001BBD0       a_?avvalidatori
 0002:0001BC38       a_?avdnsrecordp
 0002:0001BC58       a_?av?_ref_c_36
 0002:0001BCE0       a_?avdnsrecorda
 0002:0001BD30       a_?aufindparent
 0002:0001BD78       a_?aucontroller
 0002:0001BDA8       a_?aufindnameco
 0002:0001BE00       a_?aufindkeynam
 0002:0001BE48       a_?avLambda_301
 0002:0001BE80       a_?avix64notifi
 0002:0001BEC8       a_?avix64except
 0002:0001BF48       a_?avx64_dtlib_
 0002:0001BF70       a_?avibreakpoin
 0002:0001BF90       a_?avdtlibbreak
 0002:0001BFE8       a_?avil_emulato
 0002:0001C040       a_?avuntrustedd
 0002:0001C090       a_?avpevmmreade
 0002:0001C0B8       a_?av?Unplibg_9
 0002:0001C110       a_?av?Unplib_10
 0002:0001C168       a_?avmetadatasi
 0002:0001C190       a_?avimetadatas
 0002:0001C1B8       a_?avvmp_bb_mgr
 0002:0001C268       a_?avvmp_il_tra
 0002:0001C288       a_?avvmp_s32_pa
 0002:0001C2A8       a_?avvmp_ctx_tr
 0002:0001C2C8       a_?av?_func__73
 0002:0001C3C0       a_?av?_func__74
 0002:0001C468       a_?av?_func__75
 0002:0001C508       a_?av?_ref_c_37
 0002:0001C558       a_?av?Crefob_55
 0002:0001C5E8       a_?auirestorati
 0002:0001C620       a_?av?_ref_c_38
 0002:0001C658       a_?av?_func__76
 0002:0001C700       a_?av?_ref_c_39
 0002:0001C740       a_?av?_ref_c_40
 0002:0001C7E0       a_?av?Wstring_c
 0002:0001C858       a_?av?Codecvt_u
 0002:0001C890       a_?avalreadyope
 0002:0001C8D0       a_?avLambda_510
 0002:0001C908       a_?avLambda_f0d
 0002:0001C940       a_?avLambda_7a6
 0002:0001C978       a_?auextendfile
 0002:0001C9E0       a_?aushrinkfile
 0002:0001CA68       a_?au?Default_d
 0002:0001CB18       a_?avasciihexde
 0002:0001CB38       a_?avpdf_null@@
 0002:0001CB50       a_?avpdf_boolea
 0002:0001CBB0       a_?avnufsp_repl
 0002:0001CBD8       a_?avzipwrongre
 0002:0001CC78       a_?av?Unplib_11
 0002:0001CCC0       a_?aucryptheade
 0002:0001CCE0       a_?avrarpasswor
 0002:0001CD28       a_?avcrarencryp
 0002:0001CE90       a_?avcudfbootim
 0002:0001CEE8       a_?aviudfbootim
 0002:0001CFA0       a_?avfilter7z_0
 0002:0001CFF0       a_?avnufsp_mkpl
 0002:0001D010       a_?avnufsp_fsd@
 0002:0001D028       a_?avnufsp_mar@
 0002:0001D040       a_?avnufsp_dzip
 0002:0001D0B0       a_?av?_ref_c_41
 0002:0001D0F0       a_?av?_ref_c_42
 0002:0001D168       a_?av?_ref_c_43
 0002:0001D1E0       a_?avvfowrapper
 0002:0001D240       a_?avcanceler@?
 0002:0001D2D8       a_?av?_ref_c_44
 0002:0001D3A0       a_?avarmthumbfi
 0002:0001D3C8       a_?av?Bcjfilter
 0002:0001D408       a_?avarmfilter@
 0002:0001D468       a_?avia64filter
 0002:0001D4C8       a_?avppcfilter@
 0002:0001D4F0       a_?avxzwriterad
 0002:0001D540       a_?avxzreader@?
 0002:0001D5A0       a_?avwriter@?3?
 0002:0001D618       a_?avxzreaderad
 0002:0001D6A8       a_?av?Unplib_12
 0002:0001D6F8       a_?av?Bcjfilt_0
 0002:0001D760       a_?avdeltafilte
 0002:0001D7A8       a_?avfilter@xzs
 0002:0001D7C8       a_?avautovfohan
 0002:0001D800       a_?avtinycontex
 0002:0001D840       a_?avexepack_un
 0002:0001D880       a_?avnufsp_auto
 0002:0001D930       a_?av?_func__77
 0002:0001D9C8       a_?av?_ref_c_45
 0002:0001DA80       a_?avresourcefi
 0002:0001DAC8       a_?avautoitdecr
 0002:0001DB08       a_?avautoitgene
 0002:0001DB48       a_?avnufsp_c2rd
 0002:0001DBA0       a_?avnufsp_nbin
 0002:0001DBD8       a_?avnbinderhea
 0002:0001DC00       a_?avnbinderh_0
 0002:0001DC28       a_?avnbinderh_1
 0002:0001DC80       a_?avnufsp_dbx@
 0002:0001DC98       a_?avnufsp_mbx@
 0002:0001DCB0       a_?avnufsp_tbb@
 0002:0001DCC8       a_?av?Crefob_56
 0002:0001DD00       a_?avnufsp_dfsp
 0002:0001DD38       a_?avcrhandlevh
 0002:0001DD58       a_?avcquaenum@q
 0002:0001DD98       a_?avresdatacal
 0002:0001DDB8       a_?avcuserdbq_0
 0002:0001DDD8       a_?avcqexquaent
 0002:0001DE28       a_?avcqexquares
 0002:0001DED8       a_?av?Corderedl
 0002:0001DF18       a_?av?Cordere_0
 0002:0001DF50       a_?avrebootacti
 0002:0001DF80       a_?ausremediati
 0002:0001E018       a_?avcthreathan
 0002:0001E040       a_?avcactiontra
 0002:0001E068       a_?avcscriptact
 0002:0001E0D0       a_?avcmodernfix
 0002:0001E158       a_?avcresetchro
 0002:0001E1D8       a_?avcautomatic
 0002:0001E2E0       a_?avcbasethrea
 0002:0001E338       a_?avcfixchrome
 0002:0001E368       a_?avcremovalac
 0002:0001E390       a_?avcreremoval
 0002:0001E3B8       a_?avccleanacti
 0002:0001E438       a_?avcquarantin
 0002:0001E460       a_?avcquarant_0
 0002:0001E490       a_?avcnullactio
 0002:0001E4E8       a_?avcluascript
 0002:0001E510       a_?avLambda_54e
 0002:0001E548       a_?av?_func__78
 0002:0001E5C8       a_?avregkeyvalu
 0002:0001E630       a_?au?Resmgrp_6
 0002:0001E6D8       a_?au?Resmgrp_7
 0002:0001E778       a_?avuniquepath
 0002:0001E7B0       a_?au?Resmgrp_8
 0002:0001E840       a_?au?Resmgrp_9
 0002:0001E8E8       a_?avccountsvch
 0002:0001E9A0       a_?avcremovesvc
 0002:0001E9F8       a_?au?Resmgr_10
 0002:0001EAA0       a_?au?Resmgr_11
 0002:0001EB88       a_?au?Resmgr_12
 0002:0001EC58       a_?au?Resmgr_13
 0002:0001ECF8       a_?av?Clowere_0
 0002:0001ED58       a_?avcresmgrboo
 0002:0001ED98       a_?au?Resmgr_14
 0002:0001EE68       a_?av?Crefproxy
 0002:0001EED8       a_?au?Resmgr_15
 0002:0001EF80       a_?avcresmgrcom
 0002:0001F020       a_?av?_func__79
 0002:0001F0B8       a_?av?_func__80
 0002:0001F110       a_?au?Resmgr_16
 0002:0001F1B8       a_?av?_func__81
 0002:0001F250       a_?au?Resmgr_17
 0002:0001F2D8       a_?au?Resmgr_18
 0002:0001F378       a_?avLambda_7b7
 0002:0001F3B0       a_?avcresmgrams
 0002:0001F3D0       a_?au?Resmgr_19
 0002:0001F4B8       a_?au?Resmgr_20
 0002:0001F560       a_?av?_func__82
 0002:0001F5F8       a_?avLambda_1c6
 0002:0001F630       a_?au?Resmgr_21
 0002:0001F728       a_?au?Resmgr_22
 0002:0001F7F0       a_?au?Resmgr_23
 0002:0001F8D0       a_?au?Resmgr_24
 0002:0001F978       a_?av?_func__83
 0002:0001FA10       a_?au?Resmgr_25
 0002:0001FAA8       a_?avLambda_cb0
 0002:0001FAE0       a_?avcresmgrioa
 0002:0001FB00       a_?au?Resmgr_26
 0002:0001FBE8       a_?avcresmgrf_1
 0002:0001FC08       a_?au?Resmgr_27
 0002:0001FCA8       a_?avcresmgrela
 0002:0001FCC8       a_?au?Resmgr_28
 0002:0001FD68       a_?avcresmgrapp
 0002:0001FD88       a_?au?Resmgr_29
 0002:0001FE58       a_?avcresmgrcer
 0002:0001FE78       a_?av?_func__84
 0002:0001FF28       a_?au?Resmgr_30
 0002:0001FFD0       a_?av?Clowere_1
 0002:00020048       a_?au?Resmgr_31
 0002:000200E8       a_?au?Resmgr_32
 0002:000201C8       a_?au?Resmgr_33
 0002:00020260       a_?avcdumppathp
 0002:00020280       a_?avcpathparse
 0002:000202A0       a_?au?Resmgr_34
 0002:00020380       a_?av?Clowere_2
 0002:000203C0       a_?au?Resmgr_35
 0002:00020450       a_?avcresmgrhoo
 0002:00020470       a_?au?Resmgr_36
 0002:00020510       a_?avcpkcs7data
 0002:00020580       a_?avwin32vm@an
 0002:00020630       a_?avaspack1fix
 0002:00020650       a_?avaspackun_1
 0002:00020670       a_?avcaipprotec
 0002:000206B8       a_?avcasprote_1
 0002:00020728       a_?avdelphiinit
 0002:00020790       a_?avcobfuscate
 0002:00020828       a_?avcasprote_2
 0002:00020850       a_?avcasprote_3
 0002:000208A8       a_?avcasprote_4
 0002:000208D8       a_?avcasprote_5
 0002:00020968       a_?avcasprote_6
 0002:00020990       a_?avcasprote_7
 0002:000209C0       a_?avcdelphiini
 0002:00020A18       a_?avcdecryptem
 0002:00020A40       a_?avcimportv2@
 0002:00020A58       a_?avcimportv1@
 0002:00020A70       a_?avcimport@@
 0002:00020A88       a_?avcstolenoep
 0002:00020AC0       a_?avcliensedco
 0002:00020B28       a_?avcliensed_0
 0002:00020B90       a_?avcliensed_1
 0002:00020C00       a_?avcliensed_2
 0002:00020C68       a_?avclicensedf
 0002:00020D00       a_?avclicense_0
 0002:00020D30       a_?avclicense_1
 0002:00020D98       a_?avclicense_2
 0002:00020E10       a_?avclicensedc
 0002:00020E70       a_?avcpackedfil
 0002:00020EB8       a_?avccodesnipp
 0002:00020F30       a_?avrelocation
 0002:00020F88       a_?avimportsdum
 0002:00020FB0       a_?avccrypter13
 0002:00021028       a_?avcversion20
 0002:000210E0       a_?avccrc32decr
 0002:00021100       a_?avcpecompa_0
 0002:00021128       a_?avccryptdecr
 0002:00021178       a_?avcxordecryp
 0002:000211C8       a_?avcrnd5decry
 0002:00021220       a_?avcmessagebo
 0002:00021280       a_?avcdecada82d
 0002:000212E0       a_?avccod1decry
 0002:00021338       a_?avcverifydec
 0002:00021390       a_?avcsimplecrc
 0002:000213E8       a_?avcrnd5polym
 0002:00021440       a_?avcrnd5pol_0
 0002:00021498       a_?avcwincryptd
 0002:000214F0       a_?avcsvkprotec
 0002:00021578       a_?avcsvkprot_0
 0002:000215A0       a_?avcsvkprot_1
 0002:000215C8       a_?avclayer2cry
 0002:00021618       a_?avcaesdecryp
 0002:00021670       a_?avcsvkpdecry
 0002:000216C8       a_?avcaddcrypto
 0002:00021700       a_?avupxw64lzma
 0002:00021750       a_?aux64e8e9dec
 0002:000217A0       a_?avupxw896nun
 0002:000217C0       a_?av?_ref_c_46
 0002:000217F0       a_?avxordecry_0
 0002:00021878       a_?avcfunctiono
 0002:00021898       a_?avcfunctio_0
 0002:00021950       a_?aviprovider@
 0002:00021968       a_?avctransport
 0002:000219D0       a_?av?Crefob_57
 0002:00021A70       a_?avcobjectdir
 0002:00021AC8       a_?avclsaffrlib
 0002:00021B10       a_?avbond_signa
 0002:00021B58       a_?avbond_spyne
 0002:00021B80       a_?avbond_sig_0
 0002:00021BC0       a_?avbond_rootk
 0002:00021BE8       a_?avbond_volum
 0002:00021C10       a_?avbond_ietoo
 0002:00021C30       a_?avbond_check
 0002:00021CA0       a_?avbond_behav
 0002:00021CE8       a_?avbond_hosts
 0002:00021D08       a_?avbond_file@
 0002:00021D20       a_?avbond_netwo
 0002:00021D50       a_?avbond_windo
 0002:00021D78       a_?avbond_unkno
 0002:00021DE0       a_?avbond_sampl
 0002:00021E48       a_?avbond_boote
 0002:00021E88       a_?avbond_activ
 0002:00021EF0       a_?avbond_proce
 0002:00021FB0       a_?avbond_syste
 0002:00021FF8       a_?avbond_dnsre
 0002:00022018       a_?avbond_shell
 0002:00022040       a_?avbond_unive
 0002:000220A8       a_?avbond_sig_1
 0002:00022108       a_?avbond_azsub
 0002:00022148       a_?avbond_memor
 0002:00022170       a_?avbond_users
 0002:000221B0       a_?avbond_threa
 0002:000221D8       a_?avbond_conne
 0002:00022200       a_?avbond_thr_0
 0002:00022258       a_?avbond_ieurl
 0002:000222D8       a_?avbond_reg@@
 0002:000222F0       a_?avbond_dnsse
 0002:00022310       a_?avbond_drive
 0002:00022350       a_?avbond_strin
 0002:00022370       a_?avbond_conta
 0002:00022398       a_?avbond_preva
 0002:000223E0       a_?avbond_image
 0002:00022408       a_?avbond_deskt
 0002:00022470       a_?avbond_antir
 0002:00022490       a_?avbond_regis
 0002:000224F8       a_?avbond_mem_0
 0002:00022538       a_?avbond_exclu
 0002:00022558       a_?avbond_mem_1
 0002:00022578       a_?avbond_defau
 0002:000225D8       a_?avbond_heart
 0002:00022668       a_?avbond_rsign
 0002:00022688       a_?avbond_start
 0002:000226B0       a_?avbond_exc_0
 0002:000226D0       a_?avbond_mputd
 0002:00022760       a_?avbond_ieplu
 0002:000227A8       a_?avbond_servi
 0002:00022878       a_?avbond_remed
 0002:000228A8       a_?avbond_she_0
 0002:000228D8       a_?avbond_recov
 0002:00022900       a_?avbond_rtppr
 0002:00022948       a_?avbond_asrre
 0002:00022968       a_?avbond_beh_0
 0002:00022A10       a_?avbond_pro_0
 0002:00022A58       a_?avbond_repor
 0002:00022A78       a_?avbond_etwbe
 0002:00022A98       a_?avbond_parti
 0002:00022AC0       a_?avbond_rem_0
 0002:00022B18       a_?avbond_txtre
 0002:00022B38       a_?avbond_filea
 0002:00022BD0       a_?avbond_pre_0
 0002:00022BF8       a_?avbond_rtpco
 0002:00022C20       a_?avbond_rem_1
 0002:00022C70       a_?avbond_audit
 0002:00022CA8       a_?avbond_segme
 0002:00022CE8       a_?avbond_restr
 0002:00022D08       a_?avbond_pro_1
 0002:00022D98       a_?avbond_amsiu
 0002:00022DB8       a_?avcsmsscanne
 0002:00022DF0       a_?avbackwardwr
 0002:00022E10       a_?avupxfixe8_0
 0002:00022E68       a_?avbad_typeid
 0002:0002323C       aA_13
 0002:0002324C       aMxu
 0002:000232A0       ___security_cookie
 0002:000234D4       aVyv
 0002:000234E0       aJ_0
 0002:000234E8       aBe_0
 0002:000238E0       hConsoleOutput
 0002:00023AC0       dwTlsIndex
 0002:00024110       aCopyfilesource
 0002:00024130       aDefenderauditl
 0002:00024158       aDefenderapilog
 0002:0002417C       aFdrthreatid_0
 0002:00024198       a000000000000_5
 0002:000250E4       a?_2
 0002:00025160       aFdrsigseq
 0002:00025174       aFdrthreatid
 0002:0002518C       aCopyfilesour_0
 0002:00025510       SListHead
 0002:00025878       Filename
 0002:00025C0C       hHeap
 0002:00025E44       lpMem
 0002:00025F50       hObject
 0002:00025F5C       TlsIndex
 0002:00025F80       TimeZoneInformation
 0002:00026084       hModule
 0002:00026898       lpPathName
 0002:00027798       hEvent
 0002:00027888       FileTime2
 0002:00027954       hProcess
 0002:000279D0       lpCriticalSection
 0002:00027B34       lpAddress
 0002:0002A77C       VersionInformation
 0002:0002CD80       SystemInfo
 0002:0002D1C0       FileName
 0002:0002DAC4       Binding
 0002:0002DC6C       hLibModule
 0002:0002DC9C       hHandle
 0002:0002DF34       CriticalSection
 0003:00000600       ___guard_check_icall_fptr
 0003:00000604       __IMPORT_DESCRIPTOR_ole32
 0003:00000618       __IMPORT_DESCRIPTOR_RPCRT4
 0003:0000062C       __IMPORT_DESCRIPTOR_ntdll
 0003:00000640       __IMPORT_DESCRIPTOR_KERNEL32
 0003:00000654       __IMPORT_DESCRIPTOR_ADVAPI32
 0003:00000668       __IMPORT_DESCRIPTOR_OLEAUT32
 0003:00000CB2       aOle32_dll
 0003:00000CCE       aRpcrt4_dll
 0003:00000DF8       aNtdll_dll
 0003:0000182A       aKernel32_dll
 0003:00001B1C       aAdvapi32_dll
 0003:00001BBA       aOleaut32_dll

Program entry point at 0001:00538330
